
key_copy.elf:     file format elf32-avr

Sections:
Idx Name          Size      VMA       LMA       File off  Algn
  0 .data         00000026  00800100  000072a6  0000733a  2**0
                  CONTENTS, ALLOC, LOAD, DATA
  1 .text         000072a6  00000000  00000000  00000094  2**1
                  CONTENTS, ALLOC, LOAD, READONLY, CODE
  2 .bss          00000467  00800126  00800126  00007360  2**0
                  ALLOC
  3 .comment      00000030  00000000  00000000  00007360  2**0
                  CONTENTS, READONLY
  4 .note.gnu.avr.deviceinfo 00000040  00000000  00000000  00007390  2**2
                  CONTENTS, READONLY

Disassembly of section .text:

00000000 <__vectors>:
       0:	0c 94 8e 05 	jmp	0xb1c	; 0xb1c <__ctors_end>
       4:	0c 94 ab 05 	jmp	0xb56	; 0xb56 <__bad_interrupt>
       8:	0c 94 ab 05 	jmp	0xb56	; 0xb56 <__bad_interrupt>
       c:	0c 94 ab 05 	jmp	0xb56	; 0xb56 <__bad_interrupt>
      10:	0c 94 ab 05 	jmp	0xb56	; 0xb56 <__bad_interrupt>
      14:	0c 94 ab 05 	jmp	0xb56	; 0xb56 <__bad_interrupt>
      18:	0c 94 ab 05 	jmp	0xb56	; 0xb56 <__bad_interrupt>
      1c:	0c 94 ab 05 	jmp	0xb56	; 0xb56 <__bad_interrupt>
      20:	0c 94 ab 05 	jmp	0xb56	; 0xb56 <__bad_interrupt>
      24:	0c 94 0d 20 	jmp	0x401a	; 0x401a <__vector_9>
      28:	0c 94 ab 05 	jmp	0xb56	; 0xb56 <__bad_interrupt>
      2c:	0c 94 ab 05 	jmp	0xb56	; 0xb56 <__bad_interrupt>
      30:	0c 94 ab 05 	jmp	0xb56	; 0xb56 <__bad_interrupt>
      34:	0c 94 ab 05 	jmp	0xb56	; 0xb56 <__bad_interrupt>
      38:	0c 94 ab 05 	jmp	0xb56	; 0xb56 <__bad_interrupt>
      3c:	0c 94 ab 05 	jmp	0xb56	; 0xb56 <__bad_interrupt>
      40:	0c 94 ab 05 	jmp	0xb56	; 0xb56 <__bad_interrupt>
      44:	0c 94 ab 05 	jmp	0xb56	; 0xb56 <__bad_interrupt>
      48:	0c 94 8e 36 	jmp	0x6d1c	; 0x6d1c <__vector_18>
      4c:	0c 94 ab 05 	jmp	0xb56	; 0xb56 <__bad_interrupt>
      50:	0c 94 ab 05 	jmp	0xb56	; 0xb56 <__bad_interrupt>
      54:	0c 94 ab 05 	jmp	0xb56	; 0xb56 <__bad_interrupt>
      58:	0c 94 ab 05 	jmp	0xb56	; 0xb56 <__bad_interrupt>
      5c:	0c 94 ab 05 	jmp	0xb56	; 0xb56 <__bad_interrupt>
      60:	0c 94 ab 05 	jmp	0xb56	; 0xb56 <__bad_interrupt>
      64:	0c 94 ab 05 	jmp	0xb56	; 0xb56 <__bad_interrupt>
      68:	fb 21       	and	r31, r11
      6a:	a1 21       	and	r26, r1
      6c:	b7 21       	and	r27, r7
      6e:	be 21       	and	r27, r14
      70:	c5 21       	and	r28, r5
      72:	cc 21       	and	r28, r12
      74:	d3 21       	and	r29, r3
      76:	da 21       	and	r29, r10
      78:	e1 21       	and	r30, r1
      7a:	e8 21       	and	r30, r8
      7c:	ef 21       	and	r30, r15

0000007e <__trampolines_end>:
	...
      92:	00 00       	nop
      94:	00 c0       	rjmp	.+0      	; 0x96 <__trampolines_end+0x18>
      96:	c0 30       	cpi	r28, 0x00	; 0
      98:	30 30       	cpi	r19, 0x00	; 0
      9a:	30 30       	cpi	r19, 0x00	; 0
      9c:	30 30       	cpi	r19, 0x00	; 0
      9e:	30 30       	cpi	r19, 0x00	; 0
      a0:	30 30       	cpi	r19, 0x00	; 0
      a2:	30 30       	cpi	r19, 0x00	; 0
      a4:	30 30       	cpi	r19, 0x00	; 0
      a6:	30 30       	cpi	r19, 0x00	; 0
      a8:	30 30       	cpi	r19, 0x00	; 0
      aa:	30 30       	cpi	r19, 0x00	; 0
      ac:	30 30       	cpi	r19, 0x00	; 0
      ae:	30 30       	cpi	r19, 0x00	; 0
      b0:	30 30       	cpi	r19, 0x00	; 0
      b2:	30 30       	cpi	r19, 0x00	; 0
      b4:	30 30       	cpi	r19, 0x00	; 0
      b6:	30 30       	cpi	r19, 0x00	; 0
      b8:	30 c0       	rjmp	.+96     	; 0x11a <__trampolines_end+0x9c>
      ba:	c0 00       	.word	0x00c0	; ????
	...
      e4:	00 00       	nop
      e6:	00 ff       	sbrs	r16, 0
      e8:	ff 00       	.word	0x00ff	; ????
      ea:	00 00       	nop
      ec:	00 00       	nop
      ee:	00 30       	cpi	r16, 0x00	; 0
      f0:	30 00       	.word	0x0030	; ????
      f2:	00 00       	nop
      f4:	00 00       	nop
      f6:	00 00       	nop
      f8:	00 0c       	add	r0, r0
      fa:	0c 00       	.word	0x000c	; ????
      fc:	00 c0       	rjmp	.+0      	; 0xfe <__trampolines_end+0x80>
      fe:	c0 cc       	rjmp	.-1664   	; 0xfffffa80 <__eeprom_end+0xff7efa80>
     100:	cc 00       	.word	0x00cc	; ????
     102:	00 00       	nop
     104:	00 00       	nop
     106:	00 c0       	rjmp	.+0      	; 0x108 <__trampolines_end+0x8a>
     108:	c0 00       	.word	0x00c0	; ????
     10a:	00 00       	nop
     10c:	00 00       	nop
     10e:	00 ff       	sbrs	r16, 0
     110:	ff 00       	.word	0x00ff	; ????
     112:	00 c0       	rjmp	.+0      	; 0x114 <__trampolines_end+0x96>
     114:	c0 c0       	rjmp	.+384    	; 0x296 <font5x7+0x20>
     116:	c0 00       	.word	0x00c0	; ????
	...
     12c:	00 00       	nop
     12e:	00 fc       	sbrc	r0, 0
     130:	fc cc       	rjmp	.-1544   	; 0xfffffb2a <__eeprom_end+0xff7efb2a>
     132:	cc 0c       	add	r12, r12
     134:	0c 3c       	cpi	r16, 0xCC	; 204
     136:	3c f0       	brlt	.+14     	; 0x146 <__trampolines_end+0xc8>
     138:	f0 c0       	rjmp	.+480    	; 0x31a <font5x7+0xa4>
     13a:	c0 ff       	sbrs	r28, 0
     13c:	ff 00       	.word	0x00ff	; ????
     13e:	00 00       	nop
     140:	00 00       	nop
     142:	00 00       	nop
     144:	00 c0       	rjmp	.+0      	; 0x146 <__trampolines_end+0xc8>
     146:	c0 00       	.word	0x00c0	; ????
     148:	00 03       	mulsu	r16, r16
     14a:	03 00       	.word	0x0003	; ????
     14c:	00 00       	nop
     14e:	00 ff       	sbrs	r16, 0
     150:	ff 00       	.word	0x00ff	; ????
     152:	00 00       	nop
     154:	00 03       	mulsu	r16, r16
     156:	03 0c       	add	r0, r3
     158:	0c 30       	cpi	r16, 0x0C	; 12
     15a:	30 30       	cpi	r19, 0x00	; 0
     15c:	30 30       	cpi	r19, 0x00	; 0
     15e:	30 30       	cpi	r19, 0x00	; 0
     160:	30 30       	cpi	r19, 0x00	; 0
     162:	30 0f       	add	r19, r16
     164:	0f 03       	fmul	r16, r23
     166:	03 00       	.word	0x0003	; ????
     168:	00 00       	nop
     16a:	00 ff       	sbrs	r16, 0
     16c:	ff 00       	.word	0x00ff	; ????
	...
     182:	00 00       	nop
     184:	00 03       	mulsu	r16, r16
     186:	03 0f       	add	r16, r19
     188:	0f 3c       	cpi	r16, 0xCF	; 207
     18a:	3c 30       	cpi	r19, 0x0C	; 12
     18c:	30 f3       	brcs	.-52     	; 0x15a <__trampolines_end+0xdc>
     18e:	f3 ff       	sbrs	r31, 3
     190:	ff 00       	.word	0x00ff	; ????
     192:	00 00       	nop
     194:	00 0c       	add	r0, r0
     196:	0c 00       	.word	0x000c	; ????
     198:	00 00       	nop
     19a:	00 c0       	rjmp	.+0      	; 0x19c <__trampolines_end+0x11e>
     19c:	c0 00       	.word	0x00c0	; ????
     19e:	03 03       	mulsu	r16, r19
     1a0:	00 ff       	sbrs	r16, 0
     1a2:	ff 00       	.word	0x00ff	; ????
     1a4:	00 80       	ld	r0, Z
     1a6:	80 00       	.word	0x0080	; ????
     1a8:	00 30       	cpi	r16, 0x00	; 0
     1aa:	30 3c       	cpi	r19, 0xC0	; 192
     1ac:	3c 00       	.word	0x003c	; ????
     1ae:	00 00       	nop
     1b0:	00 00       	nop
     1b2:	00 30       	cpi	r16, 0x00	; 0
     1b4:	30 00       	.word	0x0030	; ????
     1b6:	00 30       	cpi	r16, 0x00	; 0
     1b8:	30 3c       	cpi	r19, 0xC0	; 192
     1ba:	3c 00       	.word	0x003c	; ????
     1bc:	80 80       	ld	r8, Z
     1be:	00 00       	nop
     1c0:	00 ff       	sbrs	r16, 0
     1c2:	ff 00       	.word	0x00ff	; ????
	...
     1dc:	00 00       	nop
     1de:	00 c0       	rjmp	.+0      	; 0x1e0 <__trampolines_end+0x162>
     1e0:	c0 30       	cpi	r28, 0x00	; 0
     1e2:	30 3f       	cpi	r19, 0xF0	; 240
     1e4:	3f 30       	cpi	r19, 0x0F	; 15
     1e6:	30 c0       	rjmp	.+96     	; 0x248 <__trampolines_end+0x1ca>
     1e8:	c0 c0       	rjmp	.+384    	; 0x36a <font5x7+0xf4>
     1ea:	c0 c3       	rjmp	.+1920   	; 0x96c <__c.2523+0xc>
     1ec:	c3 c0       	rjmp	.+390    	; 0x374 <font5x7+0xfe>
     1ee:	c0 c0       	rjmp	.+384    	; 0x370 <font5x7+0xfa>
     1f0:	c0 c0       	rjmp	.+384    	; 0x372 <font5x7+0xfc>
     1f2:	c0 c0       	rjmp	.+384    	; 0x374 <font5x7+0xfe>
     1f4:	c0 c3       	rjmp	.+1920   	; 0x976 <__c.2521+0x8>
     1f6:	c3 cc       	rjmp	.-1658   	; 0xfffffb7e <__eeprom_end+0xff7efb7e>
     1f8:	cc f1       	brlt	.+114    	; 0x26c <__trampolines_end+0x1ee>
     1fa:	f1 c0       	rjmp	.+482    	; 0x3de <font5x7+0x168>
     1fc:	c0 c0       	rjmp	.+384    	; 0x37e <font5x7+0x108>
     1fe:	c0 cf       	rjmp	.-128    	; 0x180 <__trampolines_end+0x102>
     200:	cf cc       	rjmp	.-1634   	; 0xfffffba0 <__eeprom_end+0xff7efba0>
     202:	cc cc       	rjmp	.-1640   	; 0xfffffb9c <__eeprom_end+0xff7efb9c>
     204:	cc cf       	rjmp	.-104    	; 0x19e <__trampolines_end+0x120>
     206:	cf cc       	rjmp	.-1634   	; 0xfffffba6 <__eeprom_end+0xff7efba6>
     208:	cc cc       	rjmp	.-1640   	; 0xfffffba2 <__eeprom_end+0xff7efba2>
     20a:	cc cf       	rjmp	.-104    	; 0x1a4 <__trampolines_end+0x126>
     20c:	cf c0       	rjmp	.+414    	; 0x3ac <font5x7+0x136>
     20e:	c0 c0       	rjmp	.+384    	; 0x390 <font5x7+0x11a>
     210:	c1 31       	cpi	r28, 0x11	; 17
     212:	30 0c       	add	r3, r0
     214:	0c 03       	fmul	r16, r20
     216:	03 00       	.word	0x0003	; ????
	...
     230:	00 00       	nop
     232:	00 0f       	add	r16, r16
     234:	0f 0c       	add	r0, r15
     236:	0c 0c       	add	r0, r12
     238:	0c 0f       	add	r16, r28
     23a:	0f 03       	fmul	r16, r23
     23c:	03 00       	.word	0x0003	; ????
     23e:	00 0f       	add	r16, r16
     240:	0f 0c       	add	r0, r15
     242:	0c 0c       	add	r0, r12
     244:	0c 03       	fmul	r16, r20
     246:	03 00       	.word	0x0003	; ????
     248:	00 00       	nop
     24a:	00 00       	nop
     24c:	00 00       	nop
     24e:	00 03       	mulsu	r16, r16
     250:	03 0c       	add	r0, r3
     252:	0c 0c       	add	r0, r12
     254:	0c 0f       	add	r16, r28
     256:	0f 00       	.word	0x000f	; ????
     258:	00 03       	mulsu	r16, r16
     25a:	03 0c       	add	r0, r3
     25c:	0c 0c       	add	r0, r12
     25e:	0c 03       	fmul	r16, r20
     260:	03 00       	.word	0x0003	; ????
	...

00000276 <font5x7>:
     276:	00 00 00 00 00 00 00 2f 00 00 00 07 00 07 00 14     ......./........
     286:	7f 14 7f 14 24 2a 7f 2a 12 32 34 08 16 26 36 49     ....$*.*.24..&6I
     296:	55 22 50 00 05 03 00 00 00 1c 22 41 00 00 41 22     U"P......."A..A"
     2a6:	1c 00 14 08 3e 08 14 08 08 3e 08 08 00 00 50 30     ....>....>....P0
     2b6:	00 10 10 10 10 10 00 60 60 00 00 20 10 08 04 02     .......``.. ....
     2c6:	3e 51 49 45 3e 00 42 7f 40 00 42 61 51 49 46 21     >QIE>.B.@.BaQIF!
     2d6:	41 45 4b 31 18 14 12 7f 10 27 45 45 45 39 3c 4a     AEK1.....'EEE9<J
     2e6:	49 49 30 01 71 09 05 03 36 49 49 49 36 06 49 49     II0.q...6III6.II
     2f6:	29 1e 00 36 36 00 00 00 56 36 00 00 08 14 22 41     )..66...V6...."A
     306:	00 14 14 14 14 14 00 41 22 14 08 02 01 51 09 06     .......A"....Q..
     316:	32 49 59 51 3e 7e 11 11 11 7e 7f 49 49 49 36 3e     2IYQ>~...~.III6>
     326:	41 41 41 22 7f 41 41 22 1c 7f 49 49 49 41 7f 09     AAA".AA"..IIIA..
     336:	09 09 01 3e 41 49 49 7a 7f 08 08 08 7f 00 41 7f     ...>AIIz......A.
     346:	41 00 20 40 41 3f 01 7f 08 14 22 41 7f 40 40 40     A. @A?...."A.@@@
     356:	40 7f 02 0c 02 7f 7f 04 08 10 7f 3e 41 41 41 3e     @..........>AAA>
     366:	7f 09 09 09 06 3e 41 51 21 5e 7f 09 19 29 46 46     .....>AQ!^...)FF
     376:	49 49 49 31 01 01 7f 01 01 3f 40 40 40 3f 1f 20     III1.....?@@@?. 
     386:	40 20 1f 3f 40 38 40 3f 63 14 08 14 63 07 08 70     @ .?@8@?c...c..p
     396:	08 07 61 51 49 45 43 00 7f 41 41 00 04 08 10 20     ..aQIEC..AA.... 
     3a6:	40 00 41 41 7f 00 04 02 01 02 04 40 40 40 40 40     @.AA.......@@@@@
     3b6:	00 01 02 00 00 20 54 54 54 78 7f 48 44 44 38 38     ..... TTTx.HDD88
     3c6:	44 44 44 20 38 44 44 48 7f 38 54 54 54 18 08 7e     DDD 8DDH.8TTT..~
     3d6:	09 01 02 0c 52 52 52 3e 7f 08 04 04 78 00 44 7d     ....RRR>....x.D}
     3e6:	40 00 20 40 44 3d 00 7f 10 28 44 00 00 41 7f 40     @. @D=...(D..A.@
     3f6:	00 7c 04 18 04 78 7c 08 04 04 78 38 44 44 44 38     .|...x|...x8DDD8
     406:	7c 14 14 14 08 08 14 14 18 7c 7c 08 04 04 08 48     |........||....H
     416:	54 54 54 20 04 3f 44 40 20 3c 40 40 20 7c 1c 20     TTT .?D@ <@@ |. 
     426:	40 20 1c 3c 40 30 40 3c 44 28 10 28 44 0c 50 50     @ .<@0@<D(.(D.PP
     436:	50 3c 44 64 54 4c 44 08 08 36 41 41 00 00 7f 00     P<DdTLD..6AA....
     446:	00 41 41 36 08 08 02 01 02 02 01 7f 7f 7f 7f 7f     .AA6............
     456:	3e 3e 3e 3e 3e 00 7f 3e 1c 08 08 1c 3e 7f 00 08     >>>>>..>....>...
     466:	7c 7e 7c 08 10 3e 7e 3e 10 00 7e 7f 7e 00 00 7e     |~|..>~>..~.~..~
     476:	7b 7e 00 00 7e 73 7e 00 00 7e 63 7e 00 00 7e 43     {~..~s~..~c~..~C
     486:	7e 00 00 00 3e 00 00 20 10 08 04 02 08 08 08 08     ~...>.. ........
     496:	08 02 04 08 10 20 67 65 7d 05 07 08 22 1c 41 3e     ..... ge}...".A>
     4a6:	05 02 05 00 00 40 3c 10 1c 20 55 2a 55 2a 55 00     .....@<.. U*U*U.
     4b6:	07 05 07 00 7f 7f 7f 7e 7c 00 00 00 00 00 00 00     .......~|.......
	...
     596:	7c 12 11 12 7c 7f 49 49 49 31 7f 49 49 49 36 7f     |...|.III1.III6.
     5a6:	01 01 01 01 60 3f 21 3f 60 7f 49 49 49 41 77 08     ....`?!?`.IIIAw.
     5b6:	7f 08 77 22 41 49 49 36 7f 10 08 04 7f 7e 10 09     ..w"AII6.....~..
     5c6:	04 7e 7f 08 14 22 41 40 3e 01 01 7f 7f 02 0c 02     .~..."A@>.......
     5d6:	7f 7f 08 08 08 7f 3e 41 41 41 3e 7f 01 01 01 7f     ......>AAA>.....
     5e6:	7f 09 09 09 06 3e 41 41 41 22 01 01 7f 01 01 07     .....>AAA"......
     5f6:	48 48 48 3f 0e 11 7f 11 0e 63 14 08 14 63 3f 20     HHH?.....c...c? 
     606:	20 3f 60 07 08 08 08 7f 7f 40 7e 40 7f 3f 20 3f      ?`......@~@.? ?
     616:	20 7f 01 7f 48 48 30 7f 48 30 00 7f 00 7f 48 48      ...HH0.H0....HH
     626:	30 22 41 49 49 3e 7f 08 3e 41 3e 46 29 19 09 7f     0"AII>..>A>F)...
     636:	20 54 54 54 78 3c 4a 4a 4a 31 7c 54 54 28 00 7c      TTTx<JJJ1|TT(.|
     646:	04 04 0c 00 60 3c 24 3c 60 38 54 54 54 18 6c 10     ....`<$<`8TTT.l.
     656:	7c 10 6c 00 44 54 54 28 7c 20 10 08 7c 7c 21 12     |.l.DTT(| ..||!.
     666:	09 7c 7c 10 28 44 00 40 38 04 04 7c 7c 08 10 08     .||.(D.@8..||...
     676:	7c 7c 10 10 10 7c 38 44 44 44 38 7c 04 04 04 7c     ||...|8DDD8|...|
     686:	7c 14 14 14 08 38 44 44 44 00 04 04 7c 04 04 0c     |....8DDD...|...
     696:	50 50 50 3c 08 14 7c 14 08 44 28 10 28 44 3c 20     PPP<..|..D(.(D< 
     6a6:	20 3c 60 0c 10 10 10 7c 7c 40 7c 40 7c 3c 20 3c      <`....||@|@|< <
     6b6:	20 7c 04 7c 50 50 20 7c 50 20 00 7c 00 7c 50 50      |.|PP |P .|.|PP
     6c6:	20 28 44 54 54 38 7c 10 38 44 38 48 54 34 14 7c      (DTT8|.8D8HT4.|

000006d6 <__c.2926>:
     6d6:	cb ee e3 20 ee f7 e8 f9 e5 ed 21 00                 ... ......!.

000006e2 <__c.2923>:
     6e2:	43 61 6e 27 74 20 6f 70 65 6e 20 6c 6f 67 0d 0a     Can't open log..
	...

000006f3 <__c.2915>:
     6f3:	43 61 6e 27 74 20 6f 70 65 6e 20 6c 6f 67 0d 0a     Can't open log..
	...

00000704 <__c.2907>:
     704:	43 61 6e 27 74 20 6f 70 65 6e 20 6b 65 79 73 0d     Can't open keys.
     714:	0a 00                                               ..

00000716 <__c.2891>:
     716:	20 4f 68 6d 0d 0a 00                                 Ohm...

0000071d <__c.2889>:
     71d:	20 ce ec 00                                          ...

00000721 <__c.2886>:
     721:	57 61 69 74 20 66 6f 72 20 61 20 6b 65 79 0d 0a     Wait for a key..
	...

00000732 <__c.2884>:
     732:	c6 e4 f3 20 ea eb fe f7 20 8e 00                    ... .... ..

0000073d <__c.2882>:
     73d:	55 53 42 00                                         USB.

00000741 <__c.2880>:
     741:	53 44 00                                            SD.

00000744 <__c.2878>:
     744:	43 61 6e 27 74 20 6f 70 65 6e 20 6b 65 79 73 0d     Can't open keys.
     754:	0a 00                                               ..

00000756 <__c.2820>:
     756:	4b 54 2d 30 31 20 69 73 20 72 65 63 6f 72 64 65     KT-01 is recorde
     766:	64 0d 0a 00                                         d...

0000076a <__c.2818>:
     76a:	4b 54 2d 30 31 20 e7 e0 ef e8 f1 e0 ed 00           KT-01 ........

00000778 <__c.2805>:
     778:	cf ee e4 ea eb fe f7 e8 f2 e5 20 f9 f3 ef 00        .......... ....

00000787 <__c.2802>:
     787:	74 35 35 35 37 20 69 73 20 72 65 63 6f 72 64 65     t5557 is recorde
     797:	64 0d 0a 00                                         d...

0000079b <__c.2800>:
     79b:	74 35 35 35 37 20 e7 e0 ef e8 f1 e0 ed 00           t5557 ........

000007a9 <__c.2780>:
     7a9:	0d 0a 00                                            ...

000007ac <__c.2775>:
     7ac:	3b d6 e8 f4 f0 e0 eb 3b 00                          ;......;.

000007b5 <__c.2772>:
     7b5:	3b cc e5 f2 e0 ea ee ec 3b 00                       ;.......;.

000007bf <__c.2769>:
     7bf:	3b ca d2 2d 30 31 3b 00                             ;..-01;.

000007c7 <__c.2766>:
     7c7:	3b cf f0 ee ea f1 e8 3b 00                          ;......;.

000007d0 <__c.2762>:
     7d0:	3b c4 e0 eb eb e0 f1 3b 00                          ;......;.

000007d9 <__c.2746>:
     7d9:	ca d2 2d 30 31 00                                   ..-01.

000007df <__c.2744>:
     7df:	cc e5 f2 e0 ea ee ec 00                             ........

000007e7 <__c.2742>:
     7e7:	d6 e8 f4 f0 e0 eb 00                                .......

000007ee <__c.2740>:
     7ee:	cf f0 ee ea f1 e8 00                                .......

000007f5 <__c.2738>:
     7f5:	c4 e0 eb eb e0 f1 00                                .......

000007fc <__c.2703>:
     7fc:	63 79 66 72 61 6c 00                                cyfral.

00000803 <__c.2701>:
     803:	6d 65 74 61 6b 6f 6d 00                             metakom.

0000080b <__c.2699>:
     80b:	6b 74 2d 30 31 00                                   kt-01.

00000811 <__c.2697>:
     811:	72 66 69 64 00                                      rfid.

00000816 <__c.2695>:
     816:	64 61 6c 6c 61 73 00                                dallas.

0000081d <__c.2690>:
     81d:	77 72 69 74 65 00                                   write.

00000823 <__c.2688>:
     823:	72 65 61 64 00                                      read.

00000828 <__c.2618>:
     828:	20 69 73 20 72 65 63 6f 72 64 65 64 0d 0a 00         is recorded...

00000837 <__c.2616>:
     837:	20 e7 e0 ef e8 f1 e0 ed 00                           ........

00000840 <__c.2614>:
     840:	74 6d 32 30 30 34 00                                tm2004.

00000847 <__c.2612>:
     847:	74 6d 32 30 30 34 00                                tm2004.

0000084e <__c.2610>:
     84e:	74 6d 30 38 76 32 00                                tm08v2.

00000855 <__c.2608>:
     855:	74 6d 30 38 76 32 00                                tm08v2.

0000085c <__c.2606>:
     85c:	52 57 31 39 39 30 00                                RW1990.

00000863 <__c.2604>:
     863:	52 57 31 39 39 30 00                                RW1990.

0000086a <__c.2584>:
     86a:	57 72 69 74 65 20 65 72 72 6f 72 0d 0a 00           Write error...

00000878 <__c.2582>:
     878:	ce f8 e8 e1 ea e0 20 e7 e0 ef e8 f1 e8 00           ...... .......

00000886 <__c.2578>:
     886:	4b 65 79 20 61 6c 72 65 61 64 79 20 72 65 63 6f     Key already reco
     896:	72 64 65 64 0d 0a 00                                rded...

0000089d <__c.2576>:
     89d:	8e 20 f3 e6 e5 20 e7 e0 ef e8 f1 e0 ed 00           . ... ........

000008ab <__c.2572>:
     8ab:	57 72 69 74 69 6e 67 2e 2e 2e 0d 0a 00              Writing......

000008b8 <__c.2570>:
     8b8:	c7 e0 ef e8 f1 fb e2 e0 fe 00                       ..........

000008c2 <__c.2566>:
     8c2:	20 d0 e0 ed e4 ee ec 20 cf f0 ee ea f1 e8 00         ...... .......

000008d1 <__c.2564>:
     8d1:	20 d0 e0 ed e4 ee ec 20 c4 e0 eb eb e0 f1 00         ...... .......

000008e0 <__c.2562>:
     8e0:	20 ce f7 e8 f1 f2 e8 f2 fc 20 eb ee e3 20 00         ........ ... .

000008ef <__c.2560>:
     8ef:	20 d1 ec ee f2 f0 e5 f2 fc 20 eb ee e3 20 00         ........ ... .

000008fe <__c.2558>:
     8fe:	20 d1 ef e8 f1 ee ea 20 20 20 20 20 20 20 00         ......       .

0000090d <__c.2556>:
     90d:	20 d7 f2 e5 ed e8 e5 20 20 20 20 20 20 20 00         ......       .

0000091c <__c.2551>:
     91c:	0d 0a 00                                            ...

0000091f <__c.2541>:
     91f:	f2 e0 e9 ec f1 eb ee f2 20 00                       ........ .

00000929 <__c.2539>:
     929:	3a 43 52 43 20 20 46 41 4d 3a 00                    :CRC  FAM:.

00000934 <__c.2535>:
     934:	0d 0a 00                                            ...

00000937 <__c.2533>:
     937:	52 65 73 69 73 74 6f 72 00                          Resistor.

00000940 <__c.2531>:
     940:	d0 e5 e7 e8 f1 f2 ee f0 00                          .........

00000949 <__c.2528>:
     949:	43 79 66 72 61 6c 2e 54 43 2d 30 31 00              Cyfral.TC-01.

00000956 <__c.2526>:
     956:	d6 e8 f4 2e 54 43 2d 30 31 00                       ....TC-01.

00000960 <__c.2523>:
     960:	43 79 66 72 61 6c 2e 32 30 39 34 2e 31 00           Cyfral.2094.1.

0000096e <__c.2521>:
     96e:	d6 e8 f4 2e 32 30 39 34 00                          ....2094.

00000977 <__c.2518>:
     977:	43 79 66 72 61 6c 00                                Cyfral.

0000097e <__c.2516>:
     97e:	d6 e8 f4 f0 e0 eb 00                                .......

00000985 <__c.2513>:
     985:	4d 65 74 61 6b 6f 6d 2e 45 4c 43 00                 Metakom.ELC.

00000991 <__c.2511>:
     991:	cc e5 f2 2e 45 4c 43 00                             ....ELC.

00000999 <__c.2508>:
     999:	4d 65 74 61 6b 6f 6d 2e 4d 4b 39 39 00              Metakom.MK99.

000009a6 <__c.2506>:
     9a6:	cc e5 f2 2e 4d 4b 39 39 00                          ....MK99.

000009af <__c.2503>:
     9af:	4d 65 74 61 6b 6f 6d 00                             Metakom.

000009b7 <__c.2501>:
     9b7:	cc e5 f2 e0 ea ee ec 00                             ........

000009bf <__c.2498>:
     9bf:	4b 54 2d 30 31 00                                   KT-01.

000009c5 <__c.2496>:
     9c5:	ca d2 2d 30 31 00                                   ..-01.

000009cb <__c.2493>:
     9cb:	52 46 49 44 00                                      RFID.

000009d0 <__c.2491>:
     9d0:	cf f0 ee ea f1 e8 00                                .......

000009d7 <__c.2487>:
     9d7:	44 61 6c 6c 61 73 00                                Dallas.

000009de <__c.2485>:
     9de:	c4 e0 eb eb e0 f1 00                                .......

000009e5 <__c.2481>:
     9e5:	54 79 70 65 3a 20 00                                Type: .

000009ec <__c.2479>:
     9ec:	d2 e8 ef 3a 20 00                                   ...: .

000009f2 <__c.2475>:
     9f2:	65 72 72 6f 72 20 6f 70 65 6e 69 6e 67 20 66 69     error opening fi
     a02:	6c 65 3a 20 6b 65 79 73 2e 63 73 76 0d 0a 00        le: keys.csv...

00000a11 <__c.2473>:
     a11:	65 72 72 6f 72 20 6f 70 65 6e 69 6e 67 20 66 69     error opening fi
     a21:	6c 65 3a 20 6c 6f 67 2e 63 73 76 0d 0a 00           le: log.csv...

00000a2f <__c.2471>:
     a2f:	6f 70 65 6e 69 6e 67 20 72 6f 6f 74 20 64 69 72     opening root dir
     a3f:	65 63 74 6f 72 79 20 66 61 69 6c 65 64 0d 0a 00     ectory failed...

00000a4f <__c.2468>:
     a4f:	6f 70 65 6e 69 6e 67 20 66 69 6c 65 73 79 73 74     opening filesyst
     a5f:	65 6d 20 66 61 69 6c 65 64 0d 0a 00                 em failed...

00000a6b <__c.2466>:
     a6b:	6f 70 65 6e 69 6e 67 20 70 61 72 74 69 74 69 6f     opening partitio
     a7b:	6e 20 66 61 69 6c 65 64 0d 0a 00                    n failed...

00000a86 <__c.2464>:
     a86:	4d 4d 43 2f 53 44 20 69 6e 69 74 69 61 6c 69 7a     MMC/SD initializ
     a96:	61 74 69 6f 6e 20 66 61 69 6c 65 64 0d 0a 00        ation failed...

00000aa5 <cy_dal_2_tbl>:
     aa5:	0f 0b 07 03 0e 0a 06 02 0d 09 05 01 0c 08 04 00     ................

00000ab5 <sound_button2>:
     ab5:	3b 00                                               ;.

00000ab7 <sound_button>:
     ab7:	3e 00                                               >.

00000ab9 <sound_exist>:
     ab9:	59 00                                               Y.

00000abb <sound_error>:
     abb:	41 20 41 00                                         A A.

00000abf <sound_write>:
     abf:	34 32 31 2f 2d 00                                   421/-.

00000ac5 <sound_read>:
     ac5:	2d 2f 31 32 34 00                                   -/124.

00000acb <pausedelay>:
     acb:	20 00 40 00 80 00 00 01 00 02 00 04 00 08 00 10      .@.............

00000adb <notefreq>:
     adb:	00 00 71 77 bf 70 6b 6a 70 64 cd 5e 7b 59 75 54     ..qw.pkjpd.^{YuT
     aeb:	b7 4f 3e 4b 04 47 09 43 45 3f b8 3b 5f 38 35 35     .O>K.G.CE?.;_855
     afb:	38 32 67 2f be 2c 3b 2a dc 27 9f 25 83 23 85 21     82g/.,;*.'.%.#.!
     b0b:	a3 1f dd 1d 2f 1c 9b 1a 1c 19 b4 17 5f 16 1d 15     ..../......._...
	...

00000b1c <__ctors_end>:
     b1c:	11 24       	eor	r1, r1
     b1e:	1f be       	out	0x3f, r1	; 63
     b20:	cf ef       	ldi	r28, 0xFF	; 255
     b22:	d8 e0       	ldi	r29, 0x08	; 8
     b24:	de bf       	out	0x3e, r29	; 62
     b26:	cd bf       	out	0x3d, r28	; 61

00000b28 <__do_copy_data>:
     b28:	11 e0       	ldi	r17, 0x01	; 1
     b2a:	a0 e0       	ldi	r26, 0x00	; 0
     b2c:	b1 e0       	ldi	r27, 0x01	; 1
     b2e:	e6 ea       	ldi	r30, 0xA6	; 166
     b30:	f2 e7       	ldi	r31, 0x72	; 114
     b32:	02 c0       	rjmp	.+4      	; 0xb38 <__do_copy_data+0x10>
     b34:	05 90       	lpm	r0, Z+
     b36:	0d 92       	st	X+, r0
     b38:	a6 32       	cpi	r26, 0x26	; 38
     b3a:	b1 07       	cpc	r27, r17
     b3c:	d9 f7       	brne	.-10     	; 0xb34 <__do_copy_data+0xc>

00000b3e <__do_clear_bss>:
     b3e:	25 e0       	ldi	r18, 0x05	; 5
     b40:	a6 e2       	ldi	r26, 0x26	; 38
     b42:	b1 e0       	ldi	r27, 0x01	; 1
     b44:	01 c0       	rjmp	.+2      	; 0xb48 <.do_clear_bss_start>

00000b46 <.do_clear_bss_loop>:
     b46:	1d 92       	st	X+, r1

00000b48 <.do_clear_bss_start>:
     b48:	ad 38       	cpi	r26, 0x8D	; 141
     b4a:	b2 07       	cpc	r27, r18
     b4c:	e1 f7       	brne	.-8      	; 0xb46 <.do_clear_bss_loop>
     b4e:	0e 94 43 27 	call	0x4e86	; 0x4e86 <main>
     b52:	0c 94 51 39 	jmp	0x72a2	; 0x72a2 <_exit>

00000b56 <__bad_interrupt>:
     b56:	0c 94 00 00 	jmp	0	; 0x0 <__vectors>

00000b5a <read16>:
     b5a:	fc 01       	movw	r30, r24
     b5c:	21 81       	ldd	r18, Z+1	; 0x01
     b5e:	30 e0       	ldi	r19, 0x00	; 0
     b60:	32 2f       	mov	r19, r18
     b62:	22 27       	eor	r18, r18
     b64:	80 81       	ld	r24, Z
     b66:	a9 01       	movw	r20, r18
     b68:	48 2b       	or	r20, r24
     b6a:	ca 01       	movw	r24, r20
     b6c:	08 95       	ret

00000b6e <read32>:
     b6e:	fc 01       	movw	r30, r24
     b70:	23 81       	ldd	r18, Z+3	; 0x03
     b72:	62 81       	ldd	r22, Z+2	; 0x02
     b74:	86 2f       	mov	r24, r22
     b76:	90 e0       	ldi	r25, 0x00	; 0
     b78:	a0 e0       	ldi	r26, 0x00	; 0
     b7a:	b0 e0       	ldi	r27, 0x00	; 0
     b7c:	dc 01       	movw	r26, r24
     b7e:	99 27       	eor	r25, r25
     b80:	88 27       	eor	r24, r24
     b82:	b2 2b       	or	r27, r18
     b84:	20 81       	ld	r18, Z
     b86:	82 2b       	or	r24, r18
     b88:	21 81       	ldd	r18, Z+1	; 0x01
     b8a:	bc 01       	movw	r22, r24
     b8c:	cd 01       	movw	r24, r26
     b8e:	72 2b       	or	r23, r18
     b90:	08 95       	ret

00000b92 <write16>:
     b92:	fc 01       	movw	r30, r24
     b94:	71 83       	std	Z+1, r23	; 0x01
     b96:	60 83       	st	Z, r22
     b98:	08 95       	ret

00000b9a <write32>:
     b9a:	fc 01       	movw	r30, r24
     b9c:	73 83       	std	Z+3, r23	; 0x03
     b9e:	62 83       	std	Z+2, r22	; 0x02
     ba0:	51 83       	std	Z+1, r21	; 0x01
     ba2:	40 83       	st	Z, r20
     ba4:	08 95       	ret

00000ba6 <cl_decode>:
     ba6:	0f 93       	push	r16
     ba8:	1f 93       	push	r17
     baa:	cf 93       	push	r28
     bac:	df 93       	push	r29
     bae:	fc 01       	movw	r30, r24
     bb0:	dc 01       	movw	r26, r24
     bb2:	08 96       	adiw	r24, 0x08	; 8
     bb4:	1d 92       	st	X+, r1
     bb6:	a8 17       	cp	r26, r24
     bb8:	b9 07       	cpc	r27, r25
     bba:	e1 f7       	brne	.-8      	; 0xbb4 <cl_decode+0xe>
     bbc:	80 e0       	ldi	r24, 0x00	; 0
     bbe:	20 e0       	ldi	r18, 0x00	; 0
     bc0:	88 0f       	add	r24, r24
     bc2:	a2 2f       	mov	r26, r18
     bc4:	a6 95       	lsr	r26
     bc6:	a6 95       	lsr	r26
     bc8:	a6 95       	lsr	r26
     bca:	b0 e0       	ldi	r27, 0x00	; 0
     bcc:	a7 5d       	subi	r26, 0xD7	; 215
     bce:	bb 4f       	sbci	r27, 0xFB	; 251
     bd0:	4c 91       	ld	r20, X
     bd2:	50 e0       	ldi	r21, 0x00	; 0
     bd4:	92 2f       	mov	r25, r18
     bd6:	97 70       	andi	r25, 0x07	; 7
     bd8:	02 c0       	rjmp	.+4      	; 0xbde <cl_decode+0x38>
     bda:	55 95       	asr	r21
     bdc:	47 95       	ror	r20
     bde:	9a 95       	dec	r25
     be0:	e2 f7       	brpl	.-8      	; 0xbda <cl_decode+0x34>
     be2:	40 fd       	sbrc	r20, 0
     be4:	81 60       	ori	r24, 0x01	; 1
     be6:	8f 70       	andi	r24, 0x0F	; 15
     be8:	81 30       	cpi	r24, 0x01	; 1
     bea:	21 f4       	brne	.+8      	; 0xbf4 <cl_decode+0x4e>
     bec:	23 30       	cpi	r18, 0x03	; 3
     bee:	10 f0       	brcs	.+4      	; 0xbf4 <cl_decode+0x4e>
     bf0:	23 50       	subi	r18, 0x03	; 3
     bf2:	03 c0       	rjmp	.+6      	; 0xbfa <cl_decode+0x54>
     bf4:	2f 5f       	subi	r18, 0xFF	; 255
     bf6:	20 37       	cpi	r18, 0x70	; 112
     bf8:	19 f7       	brne	.-58     	; 0xbc0 <cl_decode+0x1a>
     bfa:	a0 e0       	ldi	r26, 0x00	; 0
     bfc:	b0 e0       	ldi	r27, 0x00	; 0
     bfe:	30 e0       	ldi	r19, 0x00	; 0
     c00:	89 01       	movw	r16, r18
     c02:	0c 5d       	subi	r16, 0xDC	; 220
     c04:	1f 4f       	sbci	r17, 0xFF	; 255
     c06:	a8 01       	movw	r20, r16
     c08:	4a 0f       	add	r20, r26
     c0a:	5b 1f       	adc	r21, r27
     c0c:	ca 01       	movw	r24, r20
     c0e:	d3 e0       	ldi	r29, 0x03	; 3
     c10:	95 95       	asr	r25
     c12:	87 95       	ror	r24
     c14:	da 95       	dec	r29
     c16:	e1 f7       	brne	.-8      	; 0xc10 <cl_decode+0x6a>
     c18:	87 5d       	subi	r24, 0xD7	; 215
     c1a:	9b 4f       	sbci	r25, 0xFB	; 251
     c1c:	ec 01       	movw	r28, r24
     c1e:	88 81       	ld	r24, Y
     c20:	90 e0       	ldi	r25, 0x00	; 0
     c22:	47 70       	andi	r20, 0x07	; 7
     c24:	55 27       	eor	r21, r21
     c26:	02 c0       	rjmp	.+4      	; 0xc2c <cl_decode+0x86>
     c28:	95 95       	asr	r25
     c2a:	87 95       	ror	r24
     c2c:	4a 95       	dec	r20
     c2e:	e2 f7       	brpl	.-8      	; 0xc28 <cl_decode+0x82>
     c30:	81 70       	andi	r24, 0x01	; 1
     c32:	99 27       	eor	r25, r25
     c34:	bd 01       	movw	r22, r26
     c36:	62 0f       	add	r22, r18
     c38:	73 1f       	adc	r23, r19
     c3a:	ab 01       	movw	r20, r22
     c3c:	c3 e0       	ldi	r28, 0x03	; 3
     c3e:	55 95       	asr	r21
     c40:	47 95       	ror	r20
     c42:	ca 95       	dec	r28
     c44:	e1 f7       	brne	.-8      	; 0xc3e <cl_decode+0x98>
     c46:	47 5d       	subi	r20, 0xD7	; 215
     c48:	5b 4f       	sbci	r21, 0xFB	; 251
     c4a:	ea 01       	movw	r28, r20
     c4c:	48 81       	ld	r20, Y
     c4e:	50 e0       	ldi	r21, 0x00	; 0
     c50:	67 70       	andi	r22, 0x07	; 7
     c52:	77 27       	eor	r23, r23
     c54:	02 c0       	rjmp	.+4      	; 0xc5a <cl_decode+0xb4>
     c56:	55 95       	asr	r21
     c58:	47 95       	ror	r20
     c5a:	6a 95       	dec	r22
     c5c:	e2 f7       	brpl	.-8      	; 0xc56 <cl_decode+0xb0>
     c5e:	41 70       	andi	r20, 0x01	; 1
     c60:	55 27       	eor	r21, r21
     c62:	84 17       	cp	r24, r20
     c64:	95 07       	cpc	r25, r21
     c66:	09 f0       	breq	.+2      	; 0xc6a <cl_decode+0xc4>
     c68:	55 c0       	rjmp	.+170    	; 0xd14 <cl_decode+0x16e>
     c6a:	11 96       	adiw	r26, 0x01	; 1
     c6c:	a4 32       	cpi	r26, 0x24	; 36
     c6e:	b1 05       	cpc	r27, r1
     c70:	51 f6       	brne	.-108    	; 0xc06 <cl_decode+0x60>
     c72:	80 e0       	ldi	r24, 0x00	; 0
     c74:	62 e0       	ldi	r22, 0x02	; 2
     c76:	70 e0       	ldi	r23, 0x00	; 0
     c78:	a0 e0       	ldi	r26, 0x00	; 0
     c7a:	b0 e0       	ldi	r27, 0x00	; 0
     c7c:	90 e0       	ldi	r25, 0x00	; 0
     c7e:	2c 5f       	subi	r18, 0xFC	; 252
     c80:	3f 4f       	sbci	r19, 0xFF	; 255
     c82:	99 0f       	add	r25, r25
     c84:	89 01       	movw	r16, r18
     c86:	0a 0f       	add	r16, r26
     c88:	1b 1f       	adc	r17, r27
     c8a:	a8 01       	movw	r20, r16
     c8c:	c3 e0       	ldi	r28, 0x03	; 3
     c8e:	55 95       	asr	r21
     c90:	47 95       	ror	r20
     c92:	ca 95       	dec	r28
     c94:	e1 f7       	brne	.-8      	; 0xc8e <cl_decode+0xe8>
     c96:	47 5d       	subi	r20, 0xD7	; 215
     c98:	5b 4f       	sbci	r21, 0xFB	; 251
     c9a:	ea 01       	movw	r28, r20
     c9c:	48 81       	ld	r20, Y
     c9e:	50 e0       	ldi	r21, 0x00	; 0
     ca0:	e8 01       	movw	r28, r16
     ca2:	c7 70       	andi	r28, 0x07	; 7
     ca4:	dd 27       	eor	r29, r29
     ca6:	02 c0       	rjmp	.+4      	; 0xcac <cl_decode+0x106>
     ca8:	55 95       	asr	r21
     caa:	47 95       	ror	r20
     cac:	ca 95       	dec	r28
     cae:	e2 f7       	brpl	.-8      	; 0xca8 <cl_decode+0x102>
     cb0:	40 fd       	sbrc	r20, 0
     cb2:	91 60       	ori	r25, 0x01	; 1
     cb4:	11 96       	adiw	r26, 0x01	; 1
     cb6:	a4 30       	cpi	r26, 0x04	; 4
     cb8:	b1 05       	cpc	r27, r1
     cba:	19 f7       	brne	.-58     	; 0xc82 <cl_decode+0xdc>
     cbc:	9b 30       	cpi	r25, 0x0B	; 11
     cbe:	69 f0       	breq	.+26     	; 0xcda <cl_decode+0x134>
     cc0:	20 f4       	brcc	.+8      	; 0xcca <cl_decode+0x124>
     cc2:	97 30       	cpi	r25, 0x07	; 7
     cc4:	39 f5       	brne	.+78     	; 0xd14 <cl_decode+0x16e>
     cc6:	40 e0       	ldi	r20, 0x00	; 0
     cc8:	09 c0       	rjmp	.+18     	; 0xcdc <cl_decode+0x136>
     cca:	9d 30       	cpi	r25, 0x0D	; 13
     ccc:	21 f0       	breq	.+8      	; 0xcd6 <cl_decode+0x130>
     cce:	9e 30       	cpi	r25, 0x0E	; 14
     cd0:	09 f5       	brne	.+66     	; 0xd14 <cl_decode+0x16e>
     cd2:	40 ec       	ldi	r20, 0xC0	; 192
     cd4:	03 c0       	rjmp	.+6      	; 0xcdc <cl_decode+0x136>
     cd6:	40 e8       	ldi	r20, 0x80	; 128
     cd8:	01 c0       	rjmp	.+2      	; 0xcdc <cl_decode+0x136>
     cda:	40 e4       	ldi	r20, 0x40	; 64
     cdc:	98 2f       	mov	r25, r24
     cde:	92 95       	swap	r25
     ce0:	9f 70       	andi	r25, 0x0F	; 15
     ce2:	db 01       	movw	r26, r22
     ce4:	a9 1b       	sub	r26, r25
     ce6:	b1 09       	sbc	r27, r1
     ce8:	ae 0f       	add	r26, r30
     cea:	bf 1f       	adc	r27, r31
     cec:	50 e0       	ldi	r21, 0x00	; 0
     cee:	98 2f       	mov	r25, r24
     cf0:	9f 70       	andi	r25, 0x0F	; 15
     cf2:	96 95       	lsr	r25
     cf4:	02 c0       	rjmp	.+4      	; 0xcfa <cl_decode+0x154>
     cf6:	55 95       	asr	r21
     cf8:	47 95       	ror	r20
     cfa:	9a 95       	dec	r25
     cfc:	e2 f7       	brpl	.-8      	; 0xcf6 <cl_decode+0x150>
     cfe:	9c 91       	ld	r25, X
     d00:	49 2b       	or	r20, r25
     d02:	4c 93       	st	X, r20
     d04:	8c 5f       	subi	r24, 0xFC	; 252
     d06:	80 32       	cpi	r24, 0x20	; 32
     d08:	09 f0       	breq	.+2      	; 0xd0c <cl_decode+0x166>
     d0a:	b6 cf       	rjmp	.-148    	; 0xc78 <cl_decode+0xd2>
     d0c:	81 e0       	ldi	r24, 0x01	; 1
     d0e:	83 83       	std	Z+3, r24	; 0x03
     d10:	80 e0       	ldi	r24, 0x00	; 0
     d12:	01 c0       	rjmp	.+2      	; 0xd16 <cl_decode+0x170>
     d14:	81 e0       	ldi	r24, 0x01	; 1
     d16:	df 91       	pop	r29
     d18:	cf 91       	pop	r28
     d1a:	1f 91       	pop	r17
     d1c:	0f 91       	pop	r16
     d1e:	08 95       	ret

00000d20 <cl_read>:
     d20:	cf 93       	push	r28
     d22:	df 93       	push	r29
     d24:	ec 01       	movw	r28, r24
     d26:	80 e6       	ldi	r24, 0x60	; 96
     d28:	80 93 7c 00 	sts	0x007C, r24
     d2c:	3a e6       	ldi	r19, 0x6A	; 106
     d2e:	3a 95       	dec	r19
     d30:	f1 f7       	brne	.-4      	; 0xd2e <cl_read+0xe>
     d32:	00 c0       	rjmp	.+0      	; 0xd34 <cl_read+0x14>
     d34:	e9 e2       	ldi	r30, 0x29	; 41
     d36:	f4 e0       	ldi	r31, 0x04	; 4
     d38:	8e e0       	ldi	r24, 0x0E	; 14
     d3a:	8e 0f       	add	r24, r30
     d3c:	11 92       	st	Z+, r1
     d3e:	8e 13       	cpse	r24, r30
     d40:	fd cf       	rjmp	.-6      	; 0xd3c <cl_read+0x1c>
     d42:	24 e6       	ldi	r18, 0x64	; 100
     d44:	80 e0       	ldi	r24, 0x00	; 0
     d46:	90 e0       	ldi	r25, 0x00	; 0
     d48:	30 91 79 00 	lds	r19, 0x0079
     d4c:	83 0f       	add	r24, r19
     d4e:	91 1d       	adc	r25, r1
     d50:	45 e3       	ldi	r20, 0x35	; 53
     d52:	4a 95       	dec	r20
     d54:	f1 f7       	brne	.-4      	; 0xd52 <cl_read+0x32>
     d56:	00 00       	nop
     d58:	21 50       	subi	r18, 0x01	; 1
     d5a:	b1 f7       	brne	.-20     	; 0xd48 <cl_read+0x28>
     d5c:	64 e6       	ldi	r22, 0x64	; 100
     d5e:	70 e0       	ldi	r23, 0x00	; 0
     d60:	0e 94 43 37 	call	0x6e86	; 0x6e86 <__udivmodhi4>
     d64:	26 2f       	mov	r18, r22
     d66:	34 e6       	ldi	r19, 0x64	; 100
     d68:	80 e0       	ldi	r24, 0x00	; 0
     d6a:	40 e0       	ldi	r20, 0x00	; 0
     d6c:	50 e0       	ldi	r21, 0x00	; 0
     d6e:	90 e0       	ldi	r25, 0x00	; 0
     d70:	60 91 79 00 	lds	r22, 0x0079
     d74:	62 17       	cp	r22, r18
     d76:	30 f4       	brcc	.+12     	; 0xd84 <cl_read+0x64>
     d78:	88 23       	and	r24, r24
     d7a:	21 f0       	breq	.+8      	; 0xd84 <cl_read+0x64>
     d7c:	49 0f       	add	r20, r25
     d7e:	51 1d       	adc	r21, r1
     d80:	80 e0       	ldi	r24, 0x00	; 0
     d82:	11 c0       	rjmp	.+34     	; 0xda6 <cl_read+0x86>
     d84:	60 91 79 00 	lds	r22, 0x0079
     d88:	26 17       	cp	r18, r22
     d8a:	30 f4       	brcc	.+12     	; 0xd98 <cl_read+0x78>
     d8c:	81 11       	cpse	r24, r1
     d8e:	04 c0       	rjmp	.+8      	; 0xd98 <cl_read+0x78>
     d90:	49 0f       	add	r20, r25
     d92:	51 1d       	adc	r21, r1
     d94:	81 e0       	ldi	r24, 0x01	; 1
     d96:	07 c0       	rjmp	.+14     	; 0xda6 <cl_read+0x86>
     d98:	65 e1       	ldi	r22, 0x15	; 21
     d9a:	6a 95       	dec	r22
     d9c:	f1 f7       	brne	.-4      	; 0xd9a <cl_read+0x7a>
     d9e:	00 00       	nop
     da0:	9f 5f       	subi	r25, 0xFF	; 255
     da2:	98 3c       	cpi	r25, 0xC8	; 200
     da4:	29 f7       	brne	.-54     	; 0xd70 <cl_read+0x50>
     da6:	31 50       	subi	r19, 0x01	; 1
     da8:	11 f7       	brne	.-60     	; 0xd6e <cl_read+0x4e>
     daa:	ca 01       	movw	r24, r20
     dac:	64 e6       	ldi	r22, 0x64	; 100
     dae:	70 e0       	ldi	r23, 0x00	; 0
     db0:	0e 94 43 37 	call	0x6e86	; 0x6e86 <__udivmodhi4>
     db4:	86 2f       	mov	r24, r22
     db6:	65 50       	subi	r22, 0x05	; 5
     db8:	63 31       	cpi	r22, 0x13	; 19
     dba:	e0 f5       	brcc	.+120    	; 0xe34 <cl_read+0x114>
     dbc:	90 e0       	ldi	r25, 0x00	; 0
     dbe:	61 e0       	ldi	r22, 0x01	; 1
     dc0:	70 e0       	ldi	r23, 0x00	; 0
     dc2:	30 e0       	ldi	r19, 0x00	; 0
     dc4:	40 91 79 00 	lds	r20, 0x0079
     dc8:	24 17       	cp	r18, r20
     dca:	48 f0       	brcs	.+18     	; 0xdde <cl_read+0xbe>
     dcc:	45 e1       	ldi	r20, 0x15	; 21
     dce:	4a 95       	dec	r20
     dd0:	f1 f7       	brne	.-4      	; 0xdce <cl_read+0xae>
     dd2:	00 00       	nop
     dd4:	3f 5f       	subi	r19, 0xFF	; 255
     dd6:	37 39       	cpi	r19, 0x97	; 151
     dd8:	a9 f7       	brne	.-22     	; 0xdc4 <cl_read+0xa4>
     dda:	30 e0       	ldi	r19, 0x00	; 0
     ddc:	0a c0       	rjmp	.+20     	; 0xdf2 <cl_read+0xd2>
     dde:	36 39       	cpi	r19, 0x96	; 150
     de0:	e1 f7       	brne	.-8      	; 0xdda <cl_read+0xba>
     de2:	28 c0       	rjmp	.+80     	; 0xe34 <cl_read+0x114>
     de4:	45 e1       	ldi	r20, 0x15	; 21
     de6:	4a 95       	dec	r20
     de8:	f1 f7       	brne	.-4      	; 0xde6 <cl_read+0xc6>
     dea:	00 00       	nop
     dec:	3f 5f       	subi	r19, 0xFF	; 255
     dee:	37 39       	cpi	r19, 0x97	; 151
     df0:	41 f0       	breq	.+16     	; 0xe02 <cl_read+0xe2>
     df2:	40 91 79 00 	lds	r20, 0x0079
     df6:	42 17       	cp	r20, r18
     df8:	a8 f7       	brcc	.-22     	; 0xde4 <cl_read+0xc4>
     dfa:	36 39       	cpi	r19, 0x96	; 150
     dfc:	d9 f0       	breq	.+54     	; 0xe34 <cl_read+0x114>
     dfe:	83 17       	cp	r24, r19
     e00:	88 f4       	brcc	.+34     	; 0xe24 <cl_read+0x104>
     e02:	e9 2f       	mov	r30, r25
     e04:	e6 95       	lsr	r30
     e06:	e6 95       	lsr	r30
     e08:	e6 95       	lsr	r30
     e0a:	f0 e0       	ldi	r31, 0x00	; 0
     e0c:	e7 5d       	subi	r30, 0xD7	; 215
     e0e:	fb 4f       	sbci	r31, 0xFB	; 251
     e10:	39 2f       	mov	r19, r25
     e12:	37 70       	andi	r19, 0x07	; 7
     e14:	ab 01       	movw	r20, r22
     e16:	01 c0       	rjmp	.+2      	; 0xe1a <cl_read+0xfa>
     e18:	44 0f       	add	r20, r20
     e1a:	3a 95       	dec	r19
     e1c:	ea f7       	brpl	.-6      	; 0xe18 <cl_read+0xf8>
     e1e:	30 81       	ld	r19, Z
     e20:	43 2b       	or	r20, r19
     e22:	40 83       	st	Z, r20
     e24:	9f 5f       	subi	r25, 0xFF	; 255
     e26:	90 37       	cpi	r25, 0x70	; 112
     e28:	61 f6       	brne	.-104    	; 0xdc2 <cl_read+0xa2>
     e2a:	ce 01       	movw	r24, r28
     e2c:	df 91       	pop	r29
     e2e:	cf 91       	pop	r28
     e30:	0c 94 d3 05 	jmp	0xba6	; 0xba6 <cl_decode>
     e34:	81 e0       	ldi	r24, 0x01	; 1
     e36:	df 91       	pop	r29
     e38:	cf 91       	pop	r28
     e3a:	08 95       	ret

00000e3c <ds_out.part.0>:
     e3c:	38 9a       	sbi	0x07, 0	; 7
     e3e:	08 95       	ret

00000e40 <ds_init>:
     e40:	40 98       	cbi	0x08, 0	; 8
     e42:	38 98       	cbi	0x07, 0	; 7
     e44:	08 95       	ret

00000e46 <ds_crc>:
     e46:	86 27       	eor	r24, r22
     e48:	98 e0       	ldi	r25, 0x08	; 8
     e4a:	3c e8       	ldi	r19, 0x8C	; 140
     e4c:	28 2f       	mov	r18, r24
     e4e:	26 95       	lsr	r18
     e50:	80 ff       	sbrs	r24, 0
     e52:	03 c0       	rjmp	.+6      	; 0xe5a <ds_crc+0x14>
     e54:	82 2f       	mov	r24, r18
     e56:	83 27       	eor	r24, r19
     e58:	01 c0       	rjmp	.+2      	; 0xe5c <ds_crc+0x16>
     e5a:	82 2f       	mov	r24, r18
     e5c:	91 50       	subi	r25, 0x01	; 1
     e5e:	b1 f7       	brne	.-20     	; 0xe4c <ds_crc+0x6>
     e60:	08 95       	ret

00000e62 <ds_crc_check>:
     e62:	ef 92       	push	r14
     e64:	ff 92       	push	r15
     e66:	0f 93       	push	r16
     e68:	1f 93       	push	r17
     e6a:	cf 93       	push	r28
     e6c:	df 93       	push	r29
     e6e:	ec 01       	movw	r28, r24
     e70:	7c 01       	movw	r14, r24
     e72:	88 e0       	ldi	r24, 0x08	; 8
     e74:	e8 0e       	add	r14, r24
     e76:	f1 1c       	adc	r15, r1
     e78:	8e 01       	movw	r16, r28
     e7a:	80 e0       	ldi	r24, 0x00	; 0
     e7c:	f8 01       	movw	r30, r16
     e7e:	61 91       	ld	r22, Z+
     e80:	8f 01       	movw	r16, r30
     e82:	0e 94 23 07 	call	0xe46	; 0xe46 <ds_crc>
     e86:	0e 15       	cp	r16, r14
     e88:	1f 05       	cpc	r17, r15
     e8a:	c1 f7       	brne	.-16     	; 0xe7c <ds_crc_check+0x1a>
     e8c:	90 e0       	ldi	r25, 0x00	; 0
     e8e:	29 91       	ld	r18, Y+
     e90:	21 11       	cpse	r18, r1
     e92:	9f 5f       	subi	r25, 0xFF	; 255
     e94:	ce 15       	cp	r28, r14
     e96:	df 05       	cpc	r29, r15
     e98:	d1 f7       	brne	.-12     	; 0xe8e <ds_crc_check+0x2c>
     e9a:	99 23       	and	r25, r25
     e9c:	21 f0       	breq	.+8      	; 0xea6 <ds_crc_check+0x44>
     e9e:	88 23       	and	r24, r24
     ea0:	21 f0       	breq	.+8      	; 0xeaa <ds_crc_check+0x48>
     ea2:	82 e0       	ldi	r24, 0x02	; 2
     ea4:	03 c0       	rjmp	.+6      	; 0xeac <ds_crc_check+0x4a>
     ea6:	81 e0       	ldi	r24, 0x01	; 1
     ea8:	01 c0       	rjmp	.+2      	; 0xeac <ds_crc_check+0x4a>
     eaa:	80 e0       	ldi	r24, 0x00	; 0
     eac:	df 91       	pop	r29
     eae:	cf 91       	pop	r28
     eb0:	1f 91       	pop	r17
     eb2:	0f 91       	pop	r16
     eb4:	ff 90       	pop	r15
     eb6:	ef 90       	pop	r14
     eb8:	08 95       	ret

00000eba <ds_out>:
     eba:	81 11       	cpse	r24, r1
     ebc:	02 c0       	rjmp	.+4      	; 0xec2 <ds_out+0x8>
     ebe:	0c 94 1e 07 	jmp	0xe3c	; 0xe3c <ds_out.part.0>
     ec2:	38 98       	cbi	0x07, 0	; 7
     ec4:	08 95       	ret

00000ec6 <ds_write_bit.part.1>:
     ec6:	0e 94 1e 07 	call	0xe3c	; 0xe3c <ds_out.part.0>
     eca:	85 e0       	ldi	r24, 0x05	; 5
     ecc:	8a 95       	dec	r24
     ece:	f1 f7       	brne	.-4      	; 0xecc <ds_write_bit.part.1+0x6>
     ed0:	00 00       	nop
     ed2:	81 e0       	ldi	r24, 0x01	; 1
     ed4:	0e 94 5d 07 	call	0xeba	; 0xeba <ds_out>
     ed8:	8f ef       	ldi	r24, 0xFF	; 255
     eda:	90 e0       	ldi	r25, 0x00	; 0
     edc:	01 97       	sbiw	r24, 0x01	; 1
     ede:	f1 f7       	brne	.-4      	; 0xedc <ds_write_bit.part.1+0x16>
     ee0:	00 c0       	rjmp	.+0      	; 0xee2 <ds_write_bit.part.1+0x1c>
     ee2:	00 00       	nop
     ee4:	08 95       	ret

00000ee6 <ds_write_bit>:
     ee6:	81 11       	cpse	r24, r1
     ee8:	0c 94 63 07 	jmp	0xec6	; 0xec6 <ds_write_bit.part.1>
     eec:	0e 94 1e 07 	call	0xe3c	; 0xe3c <ds_out.part.0>
     ef0:	8f ee       	ldi	r24, 0xEF	; 239
     ef2:	90 e0       	ldi	r25, 0x00	; 0
     ef4:	01 97       	sbiw	r24, 0x01	; 1
     ef6:	f1 f7       	brne	.-4      	; 0xef4 <ds_write_bit+0xe>
     ef8:	00 c0       	rjmp	.+0      	; 0xefa <ds_write_bit+0x14>
     efa:	00 00       	nop
     efc:	81 e0       	ldi	r24, 0x01	; 1
     efe:	0e 94 5d 07 	call	0xeba	; 0xeba <ds_out>
     f02:	95 e3       	ldi	r25, 0x35	; 53
     f04:	9a 95       	dec	r25
     f06:	f1 f7       	brne	.-4      	; 0xf04 <ds_write_bit+0x1e>
     f08:	00 00       	nop
     f0a:	08 95       	ret

00000f0c <ds_read_bit>:
     f0c:	0e 94 1e 07 	call	0xe3c	; 0xe3c <ds_out.part.0>
     f10:	85 e0       	ldi	r24, 0x05	; 5
     f12:	8a 95       	dec	r24
     f14:	f1 f7       	brne	.-4      	; 0xf12 <ds_read_bit+0x6>
     f16:	00 00       	nop
     f18:	81 e0       	ldi	r24, 0x01	; 1
     f1a:	0e 94 5d 07 	call	0xeba	; 0xeba <ds_out>
     f1e:	e0 e3       	ldi	r30, 0x30	; 48
     f20:	ea 95       	dec	r30
     f22:	f1 f7       	brne	.-4      	; 0xf20 <ds_read_bit+0x14>
     f24:	86 b1       	in	r24, 0x06	; 6
     f26:	eb ed       	ldi	r30, 0xDB	; 219
     f28:	f0 e0       	ldi	r31, 0x00	; 0
     f2a:	31 97       	sbiw	r30, 0x01	; 1
     f2c:	f1 f7       	brne	.-4      	; 0xf2a <ds_read_bit+0x1e>
     f2e:	00 c0       	rjmp	.+0      	; 0xf30 <ds_read_bit+0x24>
     f30:	00 00       	nop
     f32:	81 70       	andi	r24, 0x01	; 1
     f34:	08 95       	ret

00000f36 <ds_write_byte>:
     f36:	cf 93       	push	r28
     f38:	df 93       	push	r29
     f3a:	d8 2f       	mov	r29, r24
     f3c:	c8 e0       	ldi	r28, 0x08	; 8
     f3e:	8d 2f       	mov	r24, r29
     f40:	81 70       	andi	r24, 0x01	; 1
     f42:	0e 94 73 07 	call	0xee6	; 0xee6 <ds_write_bit>
     f46:	d6 95       	lsr	r29
     f48:	c1 50       	subi	r28, 0x01	; 1
     f4a:	c9 f7       	brne	.-14     	; 0xf3e <ds_write_byte+0x8>
     f4c:	df 91       	pop	r29
     f4e:	cf 91       	pop	r28
     f50:	08 95       	ret

00000f52 <ds_program_byte>:
     f52:	cf 93       	push	r28
     f54:	df 93       	push	r29
     f56:	d8 2f       	mov	r29, r24
     f58:	d0 95       	com	r29
     f5a:	c8 e0       	ldi	r28, 0x08	; 8
     f5c:	8d 2f       	mov	r24, r29
     f5e:	81 70       	andi	r24, 0x01	; 1
     f60:	0e 94 73 07 	call	0xee6	; 0xee6 <ds_write_bit>
     f64:	d6 95       	lsr	r29
     f66:	8f e3       	ldi	r24, 0x3F	; 63
     f68:	9c e9       	ldi	r25, 0x9C	; 156
     f6a:	01 97       	sbiw	r24, 0x01	; 1
     f6c:	f1 f7       	brne	.-4      	; 0xf6a <ds_program_byte+0x18>
     f6e:	00 c0       	rjmp	.+0      	; 0xf70 <ds_program_byte+0x1e>
     f70:	00 00       	nop
     f72:	c1 50       	subi	r28, 0x01	; 1
     f74:	99 f7       	brne	.-26     	; 0xf5c <ds_program_byte+0xa>
     f76:	df 91       	pop	r29
     f78:	cf 91       	pop	r28
     f7a:	08 95       	ret

00000f7c <ds_program_pulse>:
     f7c:	8f e5       	ldi	r24, 0x5F	; 95
     f7e:	99 e0       	ldi	r25, 0x09	; 9
     f80:	01 97       	sbiw	r24, 0x01	; 1
     f82:	f1 f7       	brne	.-4      	; 0xf80 <ds_program_pulse+0x4>
     f84:	00 c0       	rjmp	.+0      	; 0xf86 <ds_program_pulse+0xa>
     f86:	00 00       	nop
     f88:	0e 94 63 07 	call	0xec6	; 0xec6 <ds_write_bit.part.1>
     f8c:	9f ef       	ldi	r25, 0xFF	; 255
     f8e:	20 e7       	ldi	r18, 0x70	; 112
     f90:	82 e0       	ldi	r24, 0x02	; 2
     f92:	91 50       	subi	r25, 0x01	; 1
     f94:	20 40       	sbci	r18, 0x00	; 0
     f96:	80 40       	sbci	r24, 0x00	; 0
     f98:	e1 f7       	brne	.-8      	; 0xf92 <ds_program_pulse+0x16>
     f9a:	00 c0       	rjmp	.+0      	; 0xf9c <ds_program_pulse+0x20>
     f9c:	00 00       	nop
     f9e:	08 95       	ret

00000fa0 <ds_read_byte>:
     fa0:	cf 93       	push	r28
     fa2:	df 93       	push	r29
     fa4:	d8 e0       	ldi	r29, 0x08	; 8
     fa6:	c0 e0       	ldi	r28, 0x00	; 0
     fa8:	c6 95       	lsr	r28
     faa:	0e 94 86 07 	call	0xf0c	; 0xf0c <ds_read_bit>
     fae:	81 11       	cpse	r24, r1
     fb0:	c0 68       	ori	r28, 0x80	; 128
     fb2:	d1 50       	subi	r29, 0x01	; 1
     fb4:	c9 f7       	brne	.-14     	; 0xfa8 <ds_read_byte+0x8>
     fb6:	8c 2f       	mov	r24, r28
     fb8:	df 91       	pop	r29
     fba:	cf 91       	pop	r28
     fbc:	08 95       	ret

00000fbe <ds_reset>:
     fbe:	0e 94 1e 07 	call	0xe3c	; 0xe3c <ds_out.part.0>
     fc2:	8f e0       	ldi	r24, 0x0F	; 15
     fc4:	9e e0       	ldi	r25, 0x0E	; 14
     fc6:	01 97       	sbiw	r24, 0x01	; 1
     fc8:	f1 f7       	brne	.-4      	; 0xfc6 <ds_reset+0x8>
     fca:	00 c0       	rjmp	.+0      	; 0xfcc <ds_reset+0xe>
     fcc:	00 00       	nop
     fce:	81 e0       	ldi	r24, 0x01	; 1
     fd0:	0e 94 5d 07 	call	0xeba	; 0xeba <ds_out>
     fd4:	95 e3       	ldi	r25, 0x35	; 53
     fd6:	9a 95       	dec	r25
     fd8:	f1 f7       	brne	.-4      	; 0xfd6 <ds_reset+0x18>
     fda:	00 00       	nop
     fdc:	30 9b       	sbis	0x06, 0	; 6
     fde:	12 c0       	rjmp	.+36     	; 0x1004 <ds_reset+0x46>
     fe0:	e7 e1       	ldi	r30, 0x17	; 23
     fe2:	f1 e0       	ldi	r31, 0x01	; 1
     fe4:	31 97       	sbiw	r30, 0x01	; 1
     fe6:	f1 f7       	brne	.-4      	; 0xfe4 <ds_reset+0x26>
     fe8:	00 c0       	rjmp	.+0      	; 0xfea <ds_reset+0x2c>
     fea:	00 00       	nop
     fec:	96 b1       	in	r25, 0x06	; 6
     fee:	89 2f       	mov	r24, r25
     ff0:	81 70       	andi	r24, 0x01	; 1
     ff2:	90 fd       	sbrc	r25, 0
     ff4:	09 c0       	rjmp	.+18     	; 0x1008 <ds_reset+0x4a>
     ff6:	e7 e6       	ldi	r30, 0x67	; 103
     ff8:	f6 e0       	ldi	r31, 0x06	; 6
     ffa:	31 97       	sbiw	r30, 0x01	; 1
     ffc:	f1 f7       	brne	.-4      	; 0xffa <ds_reset+0x3c>
     ffe:	00 c0       	rjmp	.+0      	; 0x1000 <ds_reset+0x42>
    1000:	00 00       	nop
    1002:	08 95       	ret
    1004:	81 e0       	ldi	r24, 0x01	; 1
    1006:	08 95       	ret
    1008:	82 e0       	ldi	r24, 0x02	; 2
    100a:	08 95       	ret

0000100c <ds_timeslot>:
    100c:	0e 94 1e 07 	call	0xe3c	; 0xe3c <ds_out.part.0>
    1010:	8f e0       	ldi	r24, 0x0F	; 15
    1012:	9e e0       	ldi	r25, 0x0E	; 14
    1014:	01 97       	sbiw	r24, 0x01	; 1
    1016:	f1 f7       	brne	.-4      	; 0x1014 <ds_timeslot+0x8>
    1018:	00 c0       	rjmp	.+0      	; 0x101a <ds_timeslot+0xe>
    101a:	00 00       	nop
    101c:	81 e0       	ldi	r24, 0x01	; 1
    101e:	0e 94 5d 07 	call	0xeba	; 0xeba <ds_out>
    1022:	95 e3       	ldi	r25, 0x35	; 53
    1024:	9a 95       	dec	r25
    1026:	f1 f7       	brne	.-4      	; 0x1024 <ds_timeslot+0x18>
    1028:	00 00       	nop
    102a:	9a e0       	ldi	r25, 0x0A	; 10
	...
    1040:	30 9b       	sbis	0x06, 0	; 6
    1042:	03 c0       	rjmp	.+6      	; 0x104a <ds_timeslot+0x3e>
    1044:	9f 5f       	subi	r25, 0xFF	; 255
    1046:	94 36       	cpi	r25, 0x64	; 100
    1048:	89 f7       	brne	.-30     	; 0x102c <ds_timeslot+0x20>
    104a:	e7 e6       	ldi	r30, 0x67	; 103
    104c:	f6 e0       	ldi	r31, 0x06	; 6
    104e:	31 97       	sbiw	r30, 0x01	; 1
    1050:	f1 f7       	brne	.-4      	; 0x104e <ds_timeslot+0x42>
    1052:	00 c0       	rjmp	.+0      	; 0x1054 <ds_timeslot+0x48>
    1054:	00 00       	nop
    1056:	26 b1       	in	r18, 0x06	; 6
    1058:	82 2f       	mov	r24, r18
    105a:	81 70       	andi	r24, 0x01	; 1
    105c:	20 ff       	sbrs	r18, 0
    105e:	05 c0       	rjmp	.+10     	; 0x106a <ds_timeslot+0x5e>
    1060:	93 36       	cpi	r25, 0x63	; 99
    1062:	10 f0       	brcs	.+4      	; 0x1068 <ds_timeslot+0x5c>
    1064:	80 e0       	ldi	r24, 0x00	; 0
    1066:	08 95       	ret
    1068:	89 2f       	mov	r24, r25
    106a:	08 95       	ret

0000106c <ds_read_rom>:
    106c:	bf 92       	push	r11
    106e:	cf 92       	push	r12
    1070:	df 92       	push	r13
    1072:	ef 92       	push	r14
    1074:	ff 92       	push	r15
    1076:	0f 93       	push	r16
    1078:	1f 93       	push	r17
    107a:	cf 93       	push	r28
    107c:	df 93       	push	r29
    107e:	ec 01       	movw	r28, r24
    1080:	10 92 37 04 	sts	0x0437, r1
    1084:	0e 94 06 08 	call	0x100c	; 0x100c <ds_timeslot>
    1088:	18 2f       	mov	r17, r24
    108a:	8a 30       	cpi	r24, 0x0A	; 10
    108c:	10 f4       	brcc	.+4      	; 0x1092 <ds_read_rom+0x26>
    108e:	81 e0       	ldi	r24, 0x01	; 1
    1090:	31 c0       	rjmp	.+98     	; 0x10f4 <ds_read_rom+0x88>
    1092:	83 e3       	ldi	r24, 0x33	; 51
    1094:	0e 94 9b 07 	call	0xf36	; 0xf36 <ds_write_byte>
    1098:	6e 01       	movw	r12, r28
    109a:	88 e0       	ldi	r24, 0x08	; 8
    109c:	c8 0e       	add	r12, r24
    109e:	d1 1c       	adc	r13, r1
    10a0:	7e 01       	movw	r14, r28
    10a2:	0e 94 d0 07 	call	0xfa0	; 0xfa0 <ds_read_byte>
    10a6:	f7 01       	movw	r30, r14
    10a8:	81 93       	st	Z+, r24
    10aa:	7f 01       	movw	r14, r30
    10ac:	ec 15       	cp	r30, r12
    10ae:	fd 05       	cpc	r31, r13
    10b0:	c1 f7       	brne	.-16     	; 0x10a2 <ds_read_rom+0x36>
    10b2:	ce 01       	movw	r24, r28
    10b4:	0e 94 31 07 	call	0xe62	; 0xe62 <ds_crc_check>
    10b8:	88 23       	and	r24, r24
    10ba:	d1 f0       	breq	.+52     	; 0x10f0 <ds_read_rom+0x84>
    10bc:	18 e0       	ldi	r17, 0x08	; 8
    10be:	0e 94 06 08 	call	0x100c	; 0x100c <ds_timeslot>
    10c2:	08 2f       	mov	r16, r24
    10c4:	8a 30       	cpi	r24, 0x0A	; 10
    10c6:	18 f3       	brcs	.-58     	; 0x108e <ds_read_rom+0x22>
    10c8:	83 e3       	ldi	r24, 0x33	; 51
    10ca:	0e 94 9b 07 	call	0xf36	; 0xf36 <ds_write_byte>
    10ce:	7e 01       	movw	r14, r28
    10d0:	f7 01       	movw	r30, r14
    10d2:	b1 90       	ld	r11, Z+
    10d4:	7f 01       	movw	r14, r30
    10d6:	0e 94 d0 07 	call	0xfa0	; 0xfa0 <ds_read_byte>
    10da:	b8 12       	cpse	r11, r24
    10dc:	d8 cf       	rjmp	.-80     	; 0x108e <ds_read_rom+0x22>
    10de:	ec 14       	cp	r14, r12
    10e0:	fd 04       	cpc	r15, r13
    10e2:	b1 f7       	brne	.-20     	; 0x10d0 <ds_read_rom+0x64>
    10e4:	11 50       	subi	r17, 0x01	; 1
    10e6:	59 f7       	brne	.-42     	; 0x10be <ds_read_rom+0x52>
    10e8:	00 93 37 04 	sts	0x0437, r16
    10ec:	82 e0       	ldi	r24, 0x02	; 2
    10ee:	02 c0       	rjmp	.+4      	; 0x10f4 <ds_read_rom+0x88>
    10f0:	10 93 37 04 	sts	0x0437, r17
    10f4:	df 91       	pop	r29
    10f6:	cf 91       	pop	r28
    10f8:	1f 91       	pop	r17
    10fa:	0f 91       	pop	r16
    10fc:	ff 90       	pop	r15
    10fe:	ef 90       	pop	r14
    1100:	df 90       	pop	r13
    1102:	cf 90       	pop	r12
    1104:	bf 90       	pop	r11
    1106:	08 95       	ret

00001108 <ds_program_RW1990_2>:
    1108:	ef 92       	push	r14
    110a:	ff 92       	push	r15
    110c:	0f 93       	push	r16
    110e:	1f 93       	push	r17
    1110:	cf 93       	push	r28
    1112:	df 93       	push	r29
    1114:	8c 01       	movw	r16, r24
    1116:	0e 94 df 07 	call	0xfbe	; 0xfbe <ds_reset>
    111a:	88 23       	and	r24, r24
    111c:	11 f0       	breq	.+4      	; 0x1122 <ds_program_RW1990_2+0x1a>
    111e:	c1 e0       	ldi	r28, 0x01	; 1
    1120:	41 c0       	rjmp	.+130    	; 0x11a4 <ds_program_RW1990_2+0x9c>
    1122:	8d e1       	ldi	r24, 0x1D	; 29
    1124:	0e 94 9b 07 	call	0xf36	; 0xf36 <ds_write_byte>
    1128:	0e 94 63 07 	call	0xec6	; 0xec6 <ds_write_bit.part.1>
    112c:	8f e3       	ldi	r24, 0x3F	; 63
    112e:	9c e9       	ldi	r25, 0x9C	; 156
    1130:	01 97       	sbiw	r24, 0x01	; 1
    1132:	f1 f7       	brne	.-4      	; 0x1130 <ds_program_RW1990_2+0x28>
    1134:	00 c0       	rjmp	.+0      	; 0x1136 <ds_program_RW1990_2+0x2e>
    1136:	00 00       	nop
    1138:	0e 94 df 07 	call	0xfbe	; 0xfbe <ds_reset>
    113c:	81 11       	cpse	r24, r1
    113e:	ef cf       	rjmp	.-34     	; 0x111e <ds_program_RW1990_2+0x16>
    1140:	85 ed       	ldi	r24, 0xD5	; 213
    1142:	0e 94 9b 07 	call	0xf36	; 0xf36 <ds_write_byte>
    1146:	e8 01       	movw	r28, r16
    1148:	78 01       	movw	r14, r16
    114a:	98 e0       	ldi	r25, 0x08	; 8
    114c:	e9 0e       	add	r14, r25
    114e:	f1 1c       	adc	r15, r1
    1150:	f8 01       	movw	r30, r16
    1152:	81 91       	ld	r24, Z+
    1154:	8f 01       	movw	r16, r30
    1156:	0e 94 a9 07 	call	0xf52	; 0xf52 <ds_program_byte>
    115a:	0e 15       	cp	r16, r14
    115c:	1f 05       	cpc	r17, r15
    115e:	c1 f7       	brne	.-16     	; 0x1150 <ds_program_RW1990_2+0x48>
    1160:	0e 94 df 07 	call	0xfbe	; 0xfbe <ds_reset>
    1164:	81 11       	cpse	r24, r1
    1166:	db cf       	rjmp	.-74     	; 0x111e <ds_program_RW1990_2+0x16>
    1168:	83 e3       	ldi	r24, 0x33	; 51
    116a:	0e 94 9b 07 	call	0xf36	; 0xf36 <ds_write_byte>
    116e:	19 91       	ld	r17, Y+
    1170:	0e 94 d0 07 	call	0xfa0	; 0xfa0 <ds_read_byte>
    1174:	18 13       	cpse	r17, r24
    1176:	15 c0       	rjmp	.+42     	; 0x11a2 <ds_program_RW1990_2+0x9a>
    1178:	ce 15       	cp	r28, r14
    117a:	df 05       	cpc	r29, r15
    117c:	c1 f7       	brne	.-16     	; 0x116e <ds_program_RW1990_2+0x66>
    117e:	0e 94 df 07 	call	0xfbe	; 0xfbe <ds_reset>
    1182:	c8 2f       	mov	r28, r24
    1184:	81 11       	cpse	r24, r1
    1186:	cb cf       	rjmp	.-106    	; 0x111e <ds_program_RW1990_2+0x16>
    1188:	8d e1       	ldi	r24, 0x1D	; 29
    118a:	0e 94 9b 07 	call	0xf36	; 0xf36 <ds_write_byte>
    118e:	80 e0       	ldi	r24, 0x00	; 0
    1190:	0e 94 73 07 	call	0xee6	; 0xee6 <ds_write_bit>
    1194:	8f e3       	ldi	r24, 0x3F	; 63
    1196:	9c e9       	ldi	r25, 0x9C	; 156
    1198:	01 97       	sbiw	r24, 0x01	; 1
    119a:	f1 f7       	brne	.-4      	; 0x1198 <ds_program_RW1990_2+0x90>
    119c:	00 c0       	rjmp	.+0      	; 0x119e <ds_program_RW1990_2+0x96>
    119e:	00 00       	nop
    11a0:	01 c0       	rjmp	.+2      	; 0x11a4 <ds_program_RW1990_2+0x9c>
    11a2:	c2 e0       	ldi	r28, 0x02	; 2
    11a4:	8c 2f       	mov	r24, r28
    11a6:	df 91       	pop	r29
    11a8:	cf 91       	pop	r28
    11aa:	1f 91       	pop	r17
    11ac:	0f 91       	pop	r16
    11ae:	ff 90       	pop	r15
    11b0:	ef 90       	pop	r14
    11b2:	08 95       	ret

000011b4 <ds_program_tm08v2>:
    11b4:	ef 92       	push	r14
    11b6:	ff 92       	push	r15
    11b8:	0f 93       	push	r16
    11ba:	1f 93       	push	r17
    11bc:	cf 93       	push	r28
    11be:	df 93       	push	r29
    11c0:	8c 01       	movw	r16, r24
    11c2:	0e 94 df 07 	call	0xfbe	; 0xfbe <ds_reset>
    11c6:	88 23       	and	r24, r24
    11c8:	11 f0       	breq	.+4      	; 0x11ce <ds_program_tm08v2+0x1a>
    11ca:	c1 e0       	ldi	r28, 0x01	; 1
    11cc:	41 c0       	rjmp	.+130    	; 0x1250 <ds_program_tm08v2+0x9c>
    11ce:	81 ed       	ldi	r24, 0xD1	; 209
    11d0:	0e 94 9b 07 	call	0xf36	; 0xf36 <ds_write_byte>
    11d4:	80 e0       	ldi	r24, 0x00	; 0
    11d6:	0e 94 73 07 	call	0xee6	; 0xee6 <ds_write_bit>
    11da:	8f e3       	ldi	r24, 0x3F	; 63
    11dc:	9c e9       	ldi	r25, 0x9C	; 156
    11de:	01 97       	sbiw	r24, 0x01	; 1
    11e0:	f1 f7       	brne	.-4      	; 0x11de <ds_program_tm08v2+0x2a>
    11e2:	00 c0       	rjmp	.+0      	; 0x11e4 <ds_program_tm08v2+0x30>
    11e4:	00 00       	nop
    11e6:	0e 94 df 07 	call	0xfbe	; 0xfbe <ds_reset>
    11ea:	81 11       	cpse	r24, r1
    11ec:	ee cf       	rjmp	.-36     	; 0x11ca <ds_program_tm08v2+0x16>
    11ee:	85 ed       	ldi	r24, 0xD5	; 213
    11f0:	0e 94 9b 07 	call	0xf36	; 0xf36 <ds_write_byte>
    11f4:	e8 01       	movw	r28, r16
    11f6:	78 01       	movw	r14, r16
    11f8:	98 e0       	ldi	r25, 0x08	; 8
    11fa:	e9 0e       	add	r14, r25
    11fc:	f1 1c       	adc	r15, r1
    11fe:	f8 01       	movw	r30, r16
    1200:	81 91       	ld	r24, Z+
    1202:	8f 01       	movw	r16, r30
    1204:	0e 94 a9 07 	call	0xf52	; 0xf52 <ds_program_byte>
    1208:	0e 15       	cp	r16, r14
    120a:	1f 05       	cpc	r17, r15
    120c:	c1 f7       	brne	.-16     	; 0x11fe <ds_program_tm08v2+0x4a>
    120e:	0e 94 df 07 	call	0xfbe	; 0xfbe <ds_reset>
    1212:	81 11       	cpse	r24, r1
    1214:	da cf       	rjmp	.-76     	; 0x11ca <ds_program_tm08v2+0x16>
    1216:	83 e3       	ldi	r24, 0x33	; 51
    1218:	0e 94 9b 07 	call	0xf36	; 0xf36 <ds_write_byte>
    121c:	19 91       	ld	r17, Y+
    121e:	0e 94 d0 07 	call	0xfa0	; 0xfa0 <ds_read_byte>
    1222:	18 13       	cpse	r17, r24
    1224:	14 c0       	rjmp	.+40     	; 0x124e <ds_program_tm08v2+0x9a>
    1226:	ce 15       	cp	r28, r14
    1228:	df 05       	cpc	r29, r15
    122a:	c1 f7       	brne	.-16     	; 0x121c <ds_program_tm08v2+0x68>
    122c:	0e 94 df 07 	call	0xfbe	; 0xfbe <ds_reset>
    1230:	c8 2f       	mov	r28, r24
    1232:	81 11       	cpse	r24, r1
    1234:	ca cf       	rjmp	.-108    	; 0x11ca <ds_program_tm08v2+0x16>
    1236:	81 ed       	ldi	r24, 0xD1	; 209
    1238:	0e 94 9b 07 	call	0xf36	; 0xf36 <ds_write_byte>
    123c:	0e 94 63 07 	call	0xec6	; 0xec6 <ds_write_bit.part.1>
    1240:	8f e3       	ldi	r24, 0x3F	; 63
    1242:	9c e9       	ldi	r25, 0x9C	; 156
    1244:	01 97       	sbiw	r24, 0x01	; 1
    1246:	f1 f7       	brne	.-4      	; 0x1244 <ds_program_tm08v2+0x90>
    1248:	00 c0       	rjmp	.+0      	; 0x124a <ds_program_tm08v2+0x96>
    124a:	00 00       	nop
    124c:	01 c0       	rjmp	.+2      	; 0x1250 <ds_program_tm08v2+0x9c>
    124e:	c2 e0       	ldi	r28, 0x02	; 2
    1250:	8c 2f       	mov	r24, r28
    1252:	df 91       	pop	r29
    1254:	cf 91       	pop	r28
    1256:	1f 91       	pop	r17
    1258:	0f 91       	pop	r16
    125a:	ff 90       	pop	r15
    125c:	ef 90       	pop	r14
    125e:	08 95       	ret

00001260 <ds_program_tm2004>:
    1260:	cf 92       	push	r12
    1262:	df 92       	push	r13
    1264:	ff 92       	push	r15
    1266:	0f 93       	push	r16
    1268:	1f 93       	push	r17
    126a:	cf 93       	push	r28
    126c:	df 93       	push	r29
    126e:	f8 2e       	mov	r15, r24
    1270:	09 2f       	mov	r16, r25
    1272:	0e 94 df 07 	call	0xfbe	; 0xfbe <ds_reset>
    1276:	18 2f       	mov	r17, r24
    1278:	81 11       	cpse	r24, r1
    127a:	2b c0       	rjmp	.+86     	; 0x12d2 <ds_program_tm2004+0x72>
    127c:	8c e3       	ldi	r24, 0x3C	; 60
    127e:	0e 94 9b 07 	call	0xf36	; 0xf36 <ds_write_byte>
    1282:	80 e0       	ldi	r24, 0x00	; 0
    1284:	0e 94 9b 07 	call	0xf36	; 0xf36 <ds_write_byte>
    1288:	80 e0       	ldi	r24, 0x00	; 0
    128a:	0e 94 9b 07 	call	0xf36	; 0xf36 <ds_write_byte>
    128e:	cf 2d       	mov	r28, r15
    1290:	d0 2f       	mov	r29, r16
    1292:	f1 2c       	mov	r15, r1
    1294:	05 e6       	ldi	r16, 0x65	; 101
    1296:	6e 01       	movw	r12, r28
    1298:	88 81       	ld	r24, Y
    129a:	0e 94 9b 07 	call	0xf36	; 0xf36 <ds_write_byte>
    129e:	68 81       	ld	r22, Y
    12a0:	80 2f       	mov	r24, r16
    12a2:	0e 94 23 07 	call	0xe46	; 0xe46 <ds_crc>
    12a6:	08 2f       	mov	r16, r24
    12a8:	0e 94 d0 07 	call	0xfa0	; 0xfa0 <ds_read_byte>
    12ac:	80 17       	cp	r24, r16
    12ae:	11 f0       	breq	.+4      	; 0x12b4 <ds_program_tm2004+0x54>
    12b0:	12 e0       	ldi	r17, 0x02	; 2
    12b2:	10 c0       	rjmp	.+32     	; 0x12d4 <ds_program_tm2004+0x74>
    12b4:	0e 94 be 07 	call	0xf7c	; 0xf7c <ds_program_pulse>
    12b8:	0e 94 d0 07 	call	0xfa0	; 0xfa0 <ds_read_byte>
    12bc:	21 96       	adiw	r28, 0x01	; 1
    12be:	f6 01       	movw	r30, r12
    12c0:	90 81       	ld	r25, Z
    12c2:	89 13       	cpse	r24, r25
    12c4:	f5 cf       	rjmp	.-22     	; 0x12b0 <ds_program_tm2004+0x50>
    12c6:	01 e0       	ldi	r16, 0x01	; 1
    12c8:	0f 0d       	add	r16, r15
    12ca:	08 30       	cpi	r16, 0x08	; 8
    12cc:	19 f0       	breq	.+6      	; 0x12d4 <ds_program_tm2004+0x74>
    12ce:	f0 2e       	mov	r15, r16
    12d0:	e2 cf       	rjmp	.-60     	; 0x1296 <ds_program_tm2004+0x36>
    12d2:	11 e0       	ldi	r17, 0x01	; 1
    12d4:	81 2f       	mov	r24, r17
    12d6:	df 91       	pop	r29
    12d8:	cf 91       	pop	r28
    12da:	1f 91       	pop	r17
    12dc:	0f 91       	pop	r16
    12de:	ff 90       	pop	r15
    12e0:	df 90       	pop	r13
    12e2:	cf 90       	pop	r12
    12e4:	08 95       	ret

000012e6 <fat_get_next_cluster>:
    12e6:	6f 92       	push	r6
    12e8:	7f 92       	push	r7
    12ea:	8f 92       	push	r8
    12ec:	9f 92       	push	r9
    12ee:	af 92       	push	r10
    12f0:	bf 92       	push	r11
    12f2:	cf 92       	push	r12
    12f4:	df 92       	push	r13
    12f6:	ef 92       	push	r14
    12f8:	ff 92       	push	r15
    12fa:	0f 93       	push	r16
    12fc:	1f 93       	push	r17
    12fe:	cf 93       	push	r28
    1300:	df 93       	push	r29
    1302:	00 d0       	rcall	.+0      	; 0x1304 <fat_get_next_cluster+0x1e>
    1304:	00 d0       	rcall	.+0      	; 0x1306 <fat_get_next_cluster+0x20>
    1306:	cd b7       	in	r28, 0x3d	; 61
    1308:	de b7       	in	r29, 0x3e	; 62
    130a:	4c 01       	movw	r8, r24
    130c:	89 2b       	or	r24, r25
    130e:	09 f4       	brne	.+2      	; 0x1312 <fat_get_next_cluster+0x2c>
    1310:	77 c0       	rjmp	.+238    	; 0x1400 <fat_get_next_cluster+0x11a>
    1312:	42 30       	cpi	r20, 0x02	; 2
    1314:	51 05       	cpc	r21, r1
    1316:	61 05       	cpc	r22, r1
    1318:	71 05       	cpc	r23, r1
    131a:	08 f4       	brcc	.+2      	; 0x131e <fat_get_next_cluster+0x38>
    131c:	71 c0       	rjmp	.+226    	; 0x1400 <fat_get_next_cluster+0x11a>
    131e:	cb 01       	movw	r24, r22
    1320:	ba 01       	movw	r22, r20
    1322:	d4 01       	movw	r26, r8
    1324:	ed 91       	ld	r30, X+
    1326:	fc 91       	ld	r31, X
    1328:	20 85       	ldd	r18, Z+8	; 0x08
    132a:	60 80       	ld	r6, Z
    132c:	71 80       	ldd	r7, Z+1	; 0x01
    132e:	2b 30       	cpi	r18, 0x0B	; 11
    1330:	89 f5       	brne	.+98     	; 0x1394 <fat_get_next_cluster+0xae>
    1332:	24 e0       	ldi	r18, 0x04	; 4
    1334:	30 e0       	ldi	r19, 0x00	; 0
    1336:	40 e0       	ldi	r20, 0x00	; 0
    1338:	50 e0       	ldi	r21, 0x00	; 0
    133a:	0e 94 f7 37 	call	0x6fee	; 0x6fee <__umulsidi3>
    133e:	f4 01       	movw	r30, r8
    1340:	a2 84       	ldd	r10, Z+10	; 0x0a
    1342:	b3 84       	ldd	r11, Z+11	; 0x0b
    1344:	c4 84       	ldd	r12, Z+12	; 0x0c
    1346:	d5 84       	ldd	r13, Z+13	; 0x0d
    1348:	e6 84       	ldd	r14, Z+14	; 0x0e
    134a:	f7 84       	ldd	r15, Z+15	; 0x0f
    134c:	00 89       	ldd	r16, Z+16	; 0x10
    134e:	11 89       	ldd	r17, Z+17	; 0x11
    1350:	0e 94 40 38 	call	0x7080	; 0x7080 <__adddi3>
    1354:	f4 e0       	ldi	r31, 0x04	; 4
    1356:	ef 2e       	mov	r14, r31
    1358:	f1 2c       	mov	r15, r1
    135a:	8e 01       	movw	r16, r28
    135c:	0f 5f       	subi	r16, 0xFF	; 255
    135e:	1f 4f       	sbci	r17, 0xFF	; 255
    1360:	f3 01       	movw	r30, r6
    1362:	09 95       	icall
    1364:	88 23       	and	r24, r24
    1366:	09 f4       	brne	.+2      	; 0x136a <fat_get_next_cluster+0x84>
    1368:	4b c0       	rjmp	.+150    	; 0x1400 <fat_get_next_cluster+0x11a>
    136a:	09 81       	ldd	r16, Y+1	; 0x01
    136c:	1a 81       	ldd	r17, Y+2	; 0x02
    136e:	2b 81       	ldd	r18, Y+3	; 0x03
    1370:	3c 81       	ldd	r19, Y+4	; 0x04
    1372:	01 15       	cp	r16, r1
    1374:	11 05       	cpc	r17, r1
    1376:	21 05       	cpc	r18, r1
    1378:	31 05       	cpc	r19, r1
    137a:	09 f4       	brne	.+2      	; 0x137e <fat_get_next_cluster+0x98>
    137c:	41 c0       	rjmp	.+130    	; 0x1400 <fat_get_next_cluster+0x11a>
    137e:	d9 01       	movw	r26, r18
    1380:	c8 01       	movw	r24, r16
    1382:	80 5f       	subi	r24, 0xF0	; 240
    1384:	9f 4f       	sbci	r25, 0xFF	; 255
    1386:	af 4f       	sbci	r26, 0xFF	; 255
    1388:	bf 40       	sbci	r27, 0x0F	; 15
    138a:	40 97       	sbiw	r24, 0x10	; 16
    138c:	a1 05       	cpc	r26, r1
    138e:	b1 05       	cpc	r27, r1
    1390:	a0 f5       	brcc	.+104    	; 0x13fa <fat_get_next_cluster+0x114>
    1392:	36 c0       	rjmp	.+108    	; 0x1400 <fat_get_next_cluster+0x11a>
    1394:	22 e0       	ldi	r18, 0x02	; 2
    1396:	30 e0       	ldi	r19, 0x00	; 0
    1398:	40 e0       	ldi	r20, 0x00	; 0
    139a:	50 e0       	ldi	r21, 0x00	; 0
    139c:	0e 94 f7 37 	call	0x6fee	; 0x6fee <__umulsidi3>
    13a0:	d4 01       	movw	r26, r8
    13a2:	1a 96       	adiw	r26, 0x0a	; 10
    13a4:	ac 90       	ld	r10, X
    13a6:	1a 97       	sbiw	r26, 0x0a	; 10
    13a8:	1b 96       	adiw	r26, 0x0b	; 11
    13aa:	bc 90       	ld	r11, X
    13ac:	1b 97       	sbiw	r26, 0x0b	; 11
    13ae:	1c 96       	adiw	r26, 0x0c	; 12
    13b0:	cc 90       	ld	r12, X
    13b2:	1c 97       	sbiw	r26, 0x0c	; 12
    13b4:	1d 96       	adiw	r26, 0x0d	; 13
    13b6:	dc 90       	ld	r13, X
    13b8:	1d 97       	sbiw	r26, 0x0d	; 13
    13ba:	1e 96       	adiw	r26, 0x0e	; 14
    13bc:	ec 90       	ld	r14, X
    13be:	1e 97       	sbiw	r26, 0x0e	; 14
    13c0:	1f 96       	adiw	r26, 0x0f	; 15
    13c2:	fc 90       	ld	r15, X
    13c4:	1f 97       	sbiw	r26, 0x0f	; 15
    13c6:	50 96       	adiw	r26, 0x10	; 16
    13c8:	0c 91       	ld	r16, X
    13ca:	50 97       	sbiw	r26, 0x10	; 16
    13cc:	51 96       	adiw	r26, 0x11	; 17
    13ce:	1c 91       	ld	r17, X
    13d0:	0e 94 40 38 	call	0x7080	; 0x7080 <__adddi3>
    13d4:	e2 e0       	ldi	r30, 0x02	; 2
    13d6:	ee 2e       	mov	r14, r30
    13d8:	f1 2c       	mov	r15, r1
    13da:	8e 01       	movw	r16, r28
    13dc:	0f 5f       	subi	r16, 0xFF	; 255
    13de:	1f 4f       	sbci	r17, 0xFF	; 255
    13e0:	f3 01       	movw	r30, r6
    13e2:	09 95       	icall
    13e4:	88 23       	and	r24, r24
    13e6:	61 f0       	breq	.+24     	; 0x1400 <fat_get_next_cluster+0x11a>
    13e8:	89 81       	ldd	r24, Y+1	; 0x01
    13ea:	9a 81       	ldd	r25, Y+2	; 0x02
    13ec:	8c 01       	movw	r16, r24
    13ee:	20 e0       	ldi	r18, 0x00	; 0
    13f0:	30 e0       	ldi	r19, 0x00	; 0
    13f2:	01 97       	sbiw	r24, 0x01	; 1
    13f4:	8f 3e       	cpi	r24, 0xEF	; 239
    13f6:	9f 4f       	sbci	r25, 0xFF	; 255
    13f8:	18 f4       	brcc	.+6      	; 0x1400 <fat_get_next_cluster+0x11a>
    13fa:	b8 01       	movw	r22, r16
    13fc:	c9 01       	movw	r24, r18
    13fe:	04 c0       	rjmp	.+8      	; 0x1408 <fat_get_next_cluster+0x122>
    1400:	60 e0       	ldi	r22, 0x00	; 0
    1402:	70 e0       	ldi	r23, 0x00	; 0
    1404:	80 e0       	ldi	r24, 0x00	; 0
    1406:	90 e0       	ldi	r25, 0x00	; 0
    1408:	0f 90       	pop	r0
    140a:	0f 90       	pop	r0
    140c:	0f 90       	pop	r0
    140e:	0f 90       	pop	r0
    1410:	df 91       	pop	r29
    1412:	cf 91       	pop	r28
    1414:	1f 91       	pop	r17
    1416:	0f 91       	pop	r16
    1418:	ff 90       	pop	r15
    141a:	ef 90       	pop	r14
    141c:	df 90       	pop	r13
    141e:	cf 90       	pop	r12
    1420:	bf 90       	pop	r11
    1422:	af 90       	pop	r10
    1424:	9f 90       	pop	r9
    1426:	8f 90       	pop	r8
    1428:	7f 90       	pop	r7
    142a:	6f 90       	pop	r6
    142c:	08 95       	ret

0000142e <fat_free_clusters>:
    142e:	2f 92       	push	r2
    1430:	3f 92       	push	r3
    1432:	4f 92       	push	r4
    1434:	5f 92       	push	r5
    1436:	6f 92       	push	r6
    1438:	7f 92       	push	r7
    143a:	8f 92       	push	r8
    143c:	9f 92       	push	r9
    143e:	af 92       	push	r10
    1440:	bf 92       	push	r11
    1442:	cf 92       	push	r12
    1444:	df 92       	push	r13
    1446:	ef 92       	push	r14
    1448:	ff 92       	push	r15
    144a:	0f 93       	push	r16
    144c:	1f 93       	push	r17
    144e:	cf 93       	push	r28
    1450:	df 93       	push	r29
    1452:	cd b7       	in	r28, 0x3d	; 61
    1454:	de b7       	in	r29, 0x3e	; 62
    1456:	62 97       	sbiw	r28, 0x12	; 18
    1458:	0f b6       	in	r0, 0x3f	; 63
    145a:	f8 94       	cli
    145c:	de bf       	out	0x3e, r29	; 62
    145e:	0f be       	out	0x3f, r0	; 63
    1460:	cd bf       	out	0x3d, r28	; 61
    1462:	1c 01       	movw	r2, r24
    1464:	2a 01       	movw	r4, r20
    1466:	3b 01       	movw	r6, r22
    1468:	89 2b       	or	r24, r25
    146a:	09 f4       	brne	.+2      	; 0x146e <fat_free_clusters+0x40>
    146c:	f9 c0       	rjmp	.+498    	; 0x1660 <fat_free_clusters+0x232>
    146e:	42 30       	cpi	r20, 0x02	; 2
    1470:	51 05       	cpc	r21, r1
    1472:	61 05       	cpc	r22, r1
    1474:	71 05       	cpc	r23, r1
    1476:	08 f4       	brcc	.+2      	; 0x147a <fat_free_clusters+0x4c>
    1478:	f3 c0       	rjmp	.+486    	; 0x1660 <fat_free_clusters+0x232>
    147a:	d1 01       	movw	r26, r2
    147c:	1a 96       	adiw	r26, 0x0a	; 10
    147e:	bc 91       	ld	r27, X
    1480:	bd 83       	std	Y+5, r27	; 0x05
    1482:	f1 01       	movw	r30, r2
    1484:	f3 85       	ldd	r31, Z+11	; 0x0b
    1486:	fe 83       	std	Y+6, r31	; 0x06
    1488:	d1 01       	movw	r26, r2
    148a:	1c 96       	adiw	r26, 0x0c	; 12
    148c:	bc 91       	ld	r27, X
    148e:	bf 83       	std	Y+7, r27	; 0x07
    1490:	f1 01       	movw	r30, r2
    1492:	f5 85       	ldd	r31, Z+13	; 0x0d
    1494:	f8 87       	std	Y+8, r31	; 0x08
    1496:	d1 01       	movw	r26, r2
    1498:	1e 96       	adiw	r26, 0x0e	; 14
    149a:	bc 91       	ld	r27, X
    149c:	b9 87       	std	Y+9, r27	; 0x09
    149e:	f1 01       	movw	r30, r2
    14a0:	f7 85       	ldd	r31, Z+15	; 0x0f
    14a2:	fa 87       	std	Y+10, r31	; 0x0a
    14a4:	d1 01       	movw	r26, r2
    14a6:	50 96       	adiw	r26, 0x10	; 16
    14a8:	bc 91       	ld	r27, X
    14aa:	bb 87       	std	Y+11, r27	; 0x0b
    14ac:	f1 01       	movw	r30, r2
    14ae:	f1 89       	ldd	r31, Z+17	; 0x11
    14b0:	fc 87       	std	Y+12, r31	; 0x0c
    14b2:	d1 01       	movw	r26, r2
    14b4:	ed 91       	ld	r30, X+
    14b6:	fc 91       	ld	r31, X
    14b8:	80 85       	ldd	r24, Z+8	; 0x08
    14ba:	8b 30       	cpi	r24, 0x0B	; 11
    14bc:	09 f0       	breq	.+2      	; 0x14c0 <fat_free_clusters+0x92>
    14be:	a4 c0       	rjmp	.+328    	; 0x1608 <fat_free_clusters+0x1da>
    14c0:	c3 01       	movw	r24, r6
    14c2:	b2 01       	movw	r22, r4
    14c4:	24 e0       	ldi	r18, 0x04	; 4
    14c6:	30 e0       	ldi	r19, 0x00	; 0
    14c8:	40 e0       	ldi	r20, 0x00	; 0
    14ca:	50 e0       	ldi	r21, 0x00	; 0
    14cc:	0e 94 f7 37 	call	0x6fee	; 0x6fee <__umulsidi3>
    14d0:	ad 80       	ldd	r10, Y+5	; 0x05
    14d2:	be 80       	ldd	r11, Y+6	; 0x06
    14d4:	cf 80       	ldd	r12, Y+7	; 0x07
    14d6:	d8 84       	ldd	r13, Y+8	; 0x08
    14d8:	e9 84       	ldd	r14, Y+9	; 0x09
    14da:	fa 84       	ldd	r15, Y+10	; 0x0a
    14dc:	0b 85       	ldd	r16, Y+11	; 0x0b
    14de:	1c 85       	ldd	r17, Y+12	; 0x0c
    14e0:	0e 94 40 38 	call	0x7080	; 0x7080 <__adddi3>
    14e4:	2d 87       	std	Y+13, r18	; 0x0d
    14e6:	3e 87       	std	Y+14, r19	; 0x0e
    14e8:	6a 01       	movw	r12, r20
    14ea:	6f 87       	std	Y+15, r22	; 0x0f
    14ec:	78 8b       	std	Y+16, r23	; 0x10
    14ee:	89 8b       	std	Y+17, r24	; 0x11
    14f0:	9a 8b       	std	Y+18, r25	; 0x12
    14f2:	d1 01       	movw	r26, r2
    14f4:	ed 91       	ld	r30, X+
    14f6:	fc 91       	ld	r31, X
    14f8:	01 90       	ld	r0, Z+
    14fa:	f0 81       	ld	r31, Z
    14fc:	e0 2d       	mov	r30, r0
    14fe:	44 e0       	ldi	r20, 0x04	; 4
    1500:	e4 2e       	mov	r14, r20
    1502:	f1 2c       	mov	r15, r1
    1504:	8e 01       	movw	r16, r28
    1506:	0f 5f       	subi	r16, 0xFF	; 255
    1508:	1f 4f       	sbci	r17, 0xFF	; 255
    150a:	a6 01       	movw	r20, r12
    150c:	09 95       	icall
    150e:	88 23       	and	r24, r24
    1510:	09 f4       	brne	.+2      	; 0x1514 <fat_free_clusters+0xe6>
    1512:	a7 c0       	rjmp	.+334    	; 0x1662 <fat_free_clusters+0x234>
    1514:	89 80       	ldd	r8, Y+1	; 0x01
    1516:	9a 80       	ldd	r9, Y+2	; 0x02
    1518:	ab 80       	ldd	r10, Y+3	; 0x03
    151a:	bc 80       	ldd	r11, Y+4	; 0x04
    151c:	81 14       	cp	r8, r1
    151e:	91 04       	cpc	r9, r1
    1520:	a1 04       	cpc	r10, r1
    1522:	b1 04       	cpc	r11, r1
    1524:	09 f4       	brne	.+2      	; 0x1528 <fat_free_clusters+0xfa>
    1526:	9a c0       	rjmp	.+308    	; 0x165c <fat_free_clusters+0x22e>
    1528:	d5 01       	movw	r26, r10
    152a:	c4 01       	movw	r24, r8
    152c:	80 5f       	subi	r24, 0xF0	; 240
    152e:	9f 4f       	sbci	r25, 0xFF	; 255
    1530:	af 4f       	sbci	r26, 0xFF	; 255
    1532:	bf 40       	sbci	r27, 0x0F	; 15
    1534:	08 97       	sbiw	r24, 0x08	; 8
    1536:	a1 05       	cpc	r26, r1
    1538:	b1 05       	cpc	r27, r1
    153a:	08 f4       	brcc	.+2      	; 0x153e <fat_free_clusters+0x110>
    153c:	91 c0       	rjmp	.+290    	; 0x1660 <fat_free_clusters+0x232>
    153e:	d5 01       	movw	r26, r10
    1540:	c4 01       	movw	r24, r8
    1542:	88 5f       	subi	r24, 0xF8	; 248
    1544:	9f 4f       	sbci	r25, 0xFF	; 255
    1546:	af 4f       	sbci	r26, 0xFF	; 255
    1548:	bf 40       	sbci	r27, 0x0F	; 15
    154a:	08 97       	sbiw	r24, 0x08	; 8
    154c:	a1 05       	cpc	r26, r1
    154e:	b1 05       	cpc	r27, r1
    1550:	18 f4       	brcc	.+6      	; 0x1558 <fat_free_clusters+0x12a>
    1552:	81 2c       	mov	r8, r1
    1554:	91 2c       	mov	r9, r1
    1556:	54 01       	movw	r10, r8
    1558:	f1 01       	movw	r30, r2
    155a:	86 a5       	ldd	r24, Z+46	; 0x2e
    155c:	97 a5       	ldd	r25, Z+47	; 0x2f
    155e:	a0 a9       	ldd	r26, Z+48	; 0x30
    1560:	b1 a9       	ldd	r27, Z+49	; 0x31
    1562:	89 2b       	or	r24, r25
    1564:	8a 2b       	or	r24, r26
    1566:	8b 2b       	or	r24, r27
    1568:	21 f4       	brne	.+8      	; 0x1572 <fat_free_clusters+0x144>
    156a:	46 a6       	std	Z+46, r4	; 0x2e
    156c:	57 a6       	std	Z+47, r5	; 0x2f
    156e:	60 aa       	std	Z+48, r6	; 0x30
    1570:	71 aa       	std	Z+49, r7	; 0x31
    1572:	19 82       	std	Y+1, r1	; 0x01
    1574:	1a 82       	std	Y+2, r1	; 0x02
    1576:	1b 82       	std	Y+3, r1	; 0x03
    1578:	1c 82       	std	Y+4, r1	; 0x04
    157a:	d1 01       	movw	r26, r2
    157c:	ed 91       	ld	r30, X+
    157e:	fc 91       	ld	r31, X
    1580:	04 80       	ldd	r0, Z+4	; 0x04
    1582:	f5 81       	ldd	r31, Z+5	; 0x05
    1584:	e0 2d       	mov	r30, r0
    1586:	24 e0       	ldi	r18, 0x04	; 4
    1588:	e2 2e       	mov	r14, r18
    158a:	f1 2c       	mov	r15, r1
    158c:	8e 01       	movw	r16, r28
    158e:	0f 5f       	subi	r16, 0xFF	; 255
    1590:	1f 4f       	sbci	r17, 0xFF	; 255
    1592:	2d 85       	ldd	r18, Y+13	; 0x0d
    1594:	3e 85       	ldd	r19, Y+14	; 0x0e
    1596:	a6 01       	movw	r20, r12
    1598:	6f 85       	ldd	r22, Y+15	; 0x0f
    159a:	78 89       	ldd	r23, Y+16	; 0x10
    159c:	89 89       	ldd	r24, Y+17	; 0x11
    159e:	9a 89       	ldd	r25, Y+18	; 0x12
    15a0:	09 95       	icall
    15a2:	81 14       	cp	r8, r1
    15a4:	91 04       	cpc	r9, r1
    15a6:	a1 04       	cpc	r10, r1
    15a8:	b1 04       	cpc	r11, r1
    15aa:	09 f4       	brne	.+2      	; 0x15ae <fat_free_clusters+0x180>
    15ac:	57 c0       	rjmp	.+174    	; 0x165c <fat_free_clusters+0x22e>
    15ae:	24 01       	movw	r4, r8
    15b0:	35 01       	movw	r6, r10
    15b2:	86 cf       	rjmp	.-244    	; 0x14c0 <fat_free_clusters+0x92>
    15b4:	c9 80       	ldd	r12, Y+1	; 0x01
    15b6:	da 80       	ldd	r13, Y+2	; 0x02
    15b8:	c1 14       	cp	r12, r1
    15ba:	d1 04       	cpc	r13, r1
    15bc:	09 f4       	brne	.+2      	; 0x15c0 <fat_free_clusters+0x192>
    15be:	4e c0       	rjmp	.+156    	; 0x165c <fat_free_clusters+0x22e>
    15c0:	c6 01       	movw	r24, r12
    15c2:	40 96       	adiw	r24, 0x10	; 16
    15c4:	08 97       	sbiw	r24, 0x08	; 8
    15c6:	08 f4       	brcc	.+2      	; 0x15ca <fat_free_clusters+0x19c>
    15c8:	4b c0       	rjmp	.+150    	; 0x1660 <fat_free_clusters+0x232>
    15ca:	b8 ef       	ldi	r27, 0xF8	; 248
    15cc:	cb 16       	cp	r12, r27
    15ce:	bf ef       	ldi	r27, 0xFF	; 255
    15d0:	db 06       	cpc	r13, r27
    15d2:	10 f0       	brcs	.+4      	; 0x15d8 <fat_free_clusters+0x1aa>
    15d4:	c1 2c       	mov	r12, r1
    15d6:	d1 2c       	mov	r13, r1
    15d8:	1a 82       	std	Y+2, r1	; 0x02
    15da:	19 82       	std	Y+1, r1	; 0x01
    15dc:	d1 01       	movw	r26, r2
    15de:	ed 91       	ld	r30, X+
    15e0:	fc 91       	ld	r31, X
    15e2:	04 80       	ldd	r0, Z+4	; 0x04
    15e4:	f5 81       	ldd	r31, Z+5	; 0x05
    15e6:	e0 2d       	mov	r30, r0
    15e8:	82 e0       	ldi	r24, 0x02	; 2
    15ea:	e8 2e       	mov	r14, r24
    15ec:	f1 2c       	mov	r15, r1
    15ee:	8e 01       	movw	r16, r28
    15f0:	0f 5f       	subi	r16, 0xFF	; 255
    15f2:	1f 4f       	sbci	r17, 0xFF	; 255
    15f4:	92 01       	movw	r18, r4
    15f6:	a3 01       	movw	r20, r6
    15f8:	b4 01       	movw	r22, r8
    15fa:	c5 01       	movw	r24, r10
    15fc:	09 95       	icall
    15fe:	26 01       	movw	r4, r12
    1600:	61 2c       	mov	r6, r1
    1602:	71 2c       	mov	r7, r1
    1604:	cd 28       	or	r12, r13
    1606:	51 f1       	breq	.+84     	; 0x165c <fat_free_clusters+0x22e>
    1608:	c3 01       	movw	r24, r6
    160a:	b2 01       	movw	r22, r4
    160c:	22 e0       	ldi	r18, 0x02	; 2
    160e:	30 e0       	ldi	r19, 0x00	; 0
    1610:	40 e0       	ldi	r20, 0x00	; 0
    1612:	50 e0       	ldi	r21, 0x00	; 0
    1614:	0e 94 f7 37 	call	0x6fee	; 0x6fee <__umulsidi3>
    1618:	ad 80       	ldd	r10, Y+5	; 0x05
    161a:	be 80       	ldd	r11, Y+6	; 0x06
    161c:	cf 80       	ldd	r12, Y+7	; 0x07
    161e:	d8 84       	ldd	r13, Y+8	; 0x08
    1620:	e9 84       	ldd	r14, Y+9	; 0x09
    1622:	fa 84       	ldd	r15, Y+10	; 0x0a
    1624:	0b 85       	ldd	r16, Y+11	; 0x0b
    1626:	1c 85       	ldd	r17, Y+12	; 0x0c
    1628:	0e 94 40 38 	call	0x7080	; 0x7080 <__adddi3>
    162c:	29 01       	movw	r4, r18
    162e:	3a 01       	movw	r6, r20
    1630:	4b 01       	movw	r8, r22
    1632:	5c 01       	movw	r10, r24
    1634:	d1 01       	movw	r26, r2
    1636:	ed 91       	ld	r30, X+
    1638:	fc 91       	ld	r31, X
    163a:	01 90       	ld	r0, Z+
    163c:	f0 81       	ld	r31, Z
    163e:	e0 2d       	mov	r30, r0
    1640:	92 e0       	ldi	r25, 0x02	; 2
    1642:	e9 2e       	mov	r14, r25
    1644:	f1 2c       	mov	r15, r1
    1646:	8e 01       	movw	r16, r28
    1648:	0f 5f       	subi	r16, 0xFF	; 255
    164a:	1f 4f       	sbci	r17, 0xFF	; 255
    164c:	92 01       	movw	r18, r4
    164e:	a3 01       	movw	r20, r6
    1650:	b4 01       	movw	r22, r8
    1652:	c5 01       	movw	r24, r10
    1654:	09 95       	icall
    1656:	81 11       	cpse	r24, r1
    1658:	ad cf       	rjmp	.-166    	; 0x15b4 <fat_free_clusters+0x186>
    165a:	03 c0       	rjmp	.+6      	; 0x1662 <fat_free_clusters+0x234>
    165c:	81 e0       	ldi	r24, 0x01	; 1
    165e:	01 c0       	rjmp	.+2      	; 0x1662 <fat_free_clusters+0x234>
    1660:	80 e0       	ldi	r24, 0x00	; 0
    1662:	62 96       	adiw	r28, 0x12	; 18
    1664:	0f b6       	in	r0, 0x3f	; 63
    1666:	f8 94       	cli
    1668:	de bf       	out	0x3e, r29	; 62
    166a:	0f be       	out	0x3f, r0	; 63
    166c:	cd bf       	out	0x3d, r28	; 61
    166e:	df 91       	pop	r29
    1670:	cf 91       	pop	r28
    1672:	1f 91       	pop	r17
    1674:	0f 91       	pop	r16
    1676:	ff 90       	pop	r15
    1678:	ef 90       	pop	r14
    167a:	df 90       	pop	r13
    167c:	cf 90       	pop	r12
    167e:	bf 90       	pop	r11
    1680:	af 90       	pop	r10
    1682:	9f 90       	pop	r9
    1684:	8f 90       	pop	r8
    1686:	7f 90       	pop	r7
    1688:	6f 90       	pop	r6
    168a:	5f 90       	pop	r5
    168c:	4f 90       	pop	r4
    168e:	3f 90       	pop	r3
    1690:	2f 90       	pop	r2
    1692:	08 95       	ret

00001694 <fat_append_clusters>:
    1694:	2f 92       	push	r2
    1696:	3f 92       	push	r3
    1698:	4f 92       	push	r4
    169a:	5f 92       	push	r5
    169c:	6f 92       	push	r6
    169e:	7f 92       	push	r7
    16a0:	8f 92       	push	r8
    16a2:	9f 92       	push	r9
    16a4:	af 92       	push	r10
    16a6:	bf 92       	push	r11
    16a8:	cf 92       	push	r12
    16aa:	df 92       	push	r13
    16ac:	ef 92       	push	r14
    16ae:	ff 92       	push	r15
    16b0:	0f 93       	push	r16
    16b2:	1f 93       	push	r17
    16b4:	cf 93       	push	r28
    16b6:	df 93       	push	r29
    16b8:	cd b7       	in	r28, 0x3d	; 61
    16ba:	de b7       	in	r29, 0x3e	; 62
    16bc:	a9 97       	sbiw	r28, 0x29	; 41
    16be:	0f b6       	in	r0, 0x3f	; 63
    16c0:	f8 94       	cli
    16c2:	de bf       	out	0x3e, r29	; 62
    16c4:	0f be       	out	0x3f, r0	; 63
    16c6:	cd bf       	out	0x3d, r28	; 61
    16c8:	4c 01       	movw	r8, r24
    16ca:	4c a3       	std	Y+36, r20	; 0x24
    16cc:	5d a3       	std	Y+37, r21	; 0x25
    16ce:	6e a3       	std	Y+38, r22	; 0x26
    16d0:	7f a3       	std	Y+39, r23	; 0x27
    16d2:	0b 87       	std	Y+11, r16	; 0x0b
    16d4:	1c 87       	std	Y+12, r17	; 0x0c
    16d6:	2d 87       	std	Y+13, r18	; 0x0d
    16d8:	3e 87       	std	Y+14, r19	; 0x0e
    16da:	00 97       	sbiw	r24, 0x00	; 0
    16dc:	09 f4       	brne	.+2      	; 0x16e0 <fat_append_clusters+0x4c>
    16de:	36 c1       	rjmp	.+620    	; 0x194c <fat_append_clusters+0x2b8>
    16e0:	dc 01       	movw	r26, r24
    16e2:	ed 91       	ld	r30, X+
    16e4:	fc 91       	ld	r31, X
    16e6:	11 97       	sbiw	r26, 0x01	; 1
    16e8:	20 81       	ld	r18, Z
    16ea:	31 81       	ldd	r19, Z+1	; 0x01
    16ec:	39 a7       	std	Y+41, r19	; 0x29
    16ee:	28 a7       	std	Y+40, r18	; 0x28
    16f0:	44 81       	ldd	r20, Z+4	; 0x04
    16f2:	55 81       	ldd	r21, Z+5	; 0x05
    16f4:	5a 8b       	std	Y+18, r21	; 0x12
    16f6:	49 8b       	std	Y+17, r20	; 0x11
    16f8:	1a 96       	adiw	r26, 0x0a	; 10
    16fa:	5c 91       	ld	r21, X
    16fc:	1a 97       	sbiw	r26, 0x0a	; 10
    16fe:	5b 8b       	std	Y+19, r21	; 0x13
    1700:	1b 96       	adiw	r26, 0x0b	; 11
    1702:	8c 91       	ld	r24, X
    1704:	1b 97       	sbiw	r26, 0x0b	; 11
    1706:	8c 8b       	std	Y+20, r24	; 0x14
    1708:	1c 96       	adiw	r26, 0x0c	; 12
    170a:	9c 91       	ld	r25, X
    170c:	1c 97       	sbiw	r26, 0x0c	; 12
    170e:	9d 8b       	std	Y+21, r25	; 0x15
    1710:	1d 96       	adiw	r26, 0x0d	; 13
    1712:	ac 91       	ld	r26, X
    1714:	ae 8b       	std	Y+22, r26	; 0x16
    1716:	d4 01       	movw	r26, r8
    1718:	1e 96       	adiw	r26, 0x0e	; 14
    171a:	bc 91       	ld	r27, X
    171c:	bf 8b       	std	Y+23, r27	; 0x17
    171e:	d4 01       	movw	r26, r8
    1720:	1f 96       	adiw	r26, 0x0f	; 15
    1722:	bc 91       	ld	r27, X
    1724:	b8 8f       	std	Y+24, r27	; 0x18
    1726:	d4 01       	movw	r26, r8
    1728:	50 96       	adiw	r26, 0x10	; 16
    172a:	bc 91       	ld	r27, X
    172c:	b9 8f       	std	Y+25, r27	; 0x19
    172e:	d4 01       	movw	r26, r8
    1730:	51 96       	adiw	r26, 0x11	; 17
    1732:	bc 91       	ld	r27, X
    1734:	ba 8f       	std	Y+26, r27	; 0x1a
    1736:	d4 01       	movw	r26, r8
    1738:	9e 96       	adiw	r26, 0x2e	; 46
    173a:	4d 90       	ld	r4, X+
    173c:	5d 90       	ld	r5, X+
    173e:	6d 90       	ld	r6, X+
    1740:	7c 90       	ld	r7, X
    1742:	d1 97       	sbiw	r26, 0x31	; 49
    1744:	b1 e0       	ldi	r27, 0x01	; 1
    1746:	bb a3       	std	Y+35, r27	; 0x23
    1748:	20 85       	ldd	r18, Z+8	; 0x08
    174a:	f4 01       	movw	r30, r8
    174c:	82 89       	ldd	r24, Z+18	; 0x12
    174e:	93 89       	ldd	r25, Z+19	; 0x13
    1750:	a4 89       	ldd	r26, Z+20	; 0x14
    1752:	b5 89       	ldd	r27, Z+21	; 0x15
    1754:	2b 30       	cpi	r18, 0x0B	; 11
    1756:	41 f0       	breq	.+16     	; 0x1768 <fat_append_clusters+0xd4>
    1758:	1b a2       	std	Y+35, r1	; 0x23
    175a:	9c 01       	movw	r18, r24
    175c:	ad 01       	movw	r20, r26
    175e:	56 95       	lsr	r21
    1760:	47 95       	ror	r20
    1762:	37 95       	ror	r19
    1764:	27 95       	ror	r18
    1766:	09 c0       	rjmp	.+18     	; 0x177a <fat_append_clusters+0xe6>
    1768:	9c 01       	movw	r18, r24
    176a:	ad 01       	movw	r20, r26
    176c:	92 e0       	ldi	r25, 0x02	; 2
    176e:	56 95       	lsr	r21
    1770:	47 95       	ror	r20
    1772:	37 95       	ror	r19
    1774:	27 95       	ror	r18
    1776:	9a 95       	dec	r25
    1778:	d1 f7       	brne	.-12     	; 0x176e <fat_append_clusters+0xda>
    177a:	2b 8f       	std	Y+27, r18	; 0x1b
    177c:	3c 8f       	std	Y+28, r19	; 0x1c
    177e:	4d 8f       	std	Y+29, r20	; 0x1d
    1780:	5e 8f       	std	Y+30, r21	; 0x1e
    1782:	d4 01       	movw	r26, r8
    1784:	9e 96       	adiw	r26, 0x2e	; 46
    1786:	1d 92       	st	X+, r1
    1788:	1d 92       	st	X+, r1
    178a:	1d 92       	st	X+, r1
    178c:	1c 92       	st	X, r1
    178e:	d1 97       	sbiw	r26, 0x31	; 49
    1790:	2b 8d       	ldd	r18, Y+27	; 0x1b
    1792:	3c 8d       	ldd	r19, Y+28	; 0x1c
    1794:	4d 8d       	ldd	r20, Y+29	; 0x1d
    1796:	5e 8d       	ldd	r21, Y+30	; 0x1e
    1798:	2f 8f       	std	Y+31, r18	; 0x1f
    179a:	38 a3       	std	Y+32, r19	; 0x20
    179c:	49 a3       	std	Y+33, r20	; 0x21
    179e:	5a a3       	std	Y+34, r21	; 0x22
    17a0:	1f 82       	std	Y+7, r1	; 0x07
    17a2:	18 86       	std	Y+8, r1	; 0x08
    17a4:	19 86       	std	Y+9, r1	; 0x09
    17a6:	1a 86       	std	Y+10, r1	; 0x0a
    17a8:	8f 8d       	ldd	r24, Y+31	; 0x1f
    17aa:	98 a1       	ldd	r25, Y+32	; 0x20
    17ac:	a9 a1       	ldd	r26, Y+33	; 0x21
    17ae:	ba a1       	ldd	r27, Y+34	; 0x22
    17b0:	89 2b       	or	r24, r25
    17b2:	8a 2b       	or	r24, r26
    17b4:	8b 2b       	or	r24, r27
    17b6:	09 f4       	brne	.+2      	; 0x17ba <fat_append_clusters+0x126>
    17b8:	63 c0       	rjmp	.+198    	; 0x1880 <fat_append_clusters+0x1ec>
    17ba:	32 e0       	ldi	r19, 0x02	; 2
    17bc:	43 16       	cp	r4, r19
    17be:	51 04       	cpc	r5, r1
    17c0:	61 04       	cpc	r6, r1
    17c2:	71 04       	cpc	r7, r1
    17c4:	48 f0       	brcs	.+18     	; 0x17d8 <fat_append_clusters+0x144>
    17c6:	8b 8d       	ldd	r24, Y+27	; 0x1b
    17c8:	9c 8d       	ldd	r25, Y+28	; 0x1c
    17ca:	ad 8d       	ldd	r26, Y+29	; 0x1d
    17cc:	be 8d       	ldd	r27, Y+30	; 0x1e
    17ce:	48 16       	cp	r4, r24
    17d0:	59 06       	cpc	r5, r25
    17d2:	6a 06       	cpc	r6, r26
    17d4:	7b 06       	cpc	r7, r27
    17d6:	28 f0       	brcs	.+10     	; 0x17e2 <fat_append_clusters+0x14e>
    17d8:	82 e0       	ldi	r24, 0x02	; 2
    17da:	48 2e       	mov	r4, r24
    17dc:	51 2c       	mov	r5, r1
    17de:	61 2c       	mov	r6, r1
    17e0:	71 2c       	mov	r7, r1
    17e2:	9b a1       	ldd	r25, Y+35	; 0x23
    17e4:	99 23       	and	r25, r25
    17e6:	31 f1       	breq	.+76     	; 0x1834 <fat_append_clusters+0x1a0>
    17e8:	c3 01       	movw	r24, r6
    17ea:	b2 01       	movw	r22, r4
    17ec:	24 e0       	ldi	r18, 0x04	; 4
    17ee:	30 e0       	ldi	r19, 0x00	; 0
    17f0:	40 e0       	ldi	r20, 0x00	; 0
    17f2:	50 e0       	ldi	r21, 0x00	; 0
    17f4:	0e 94 f7 37 	call	0x6fee	; 0x6fee <__umulsidi3>
    17f8:	ab 88       	ldd	r10, Y+19	; 0x13
    17fa:	bc 88       	ldd	r11, Y+20	; 0x14
    17fc:	cd 88       	ldd	r12, Y+21	; 0x15
    17fe:	de 88       	ldd	r13, Y+22	; 0x16
    1800:	ef 88       	ldd	r14, Y+23	; 0x17
    1802:	f8 8c       	ldd	r15, Y+24	; 0x18
    1804:	09 8d       	ldd	r16, Y+25	; 0x19
    1806:	1a 8d       	ldd	r17, Y+26	; 0x1a
    1808:	0e 94 40 38 	call	0x7080	; 0x7080 <__adddi3>
    180c:	d2 2e       	mov	r13, r18
    180e:	c3 2e       	mov	r12, r19
    1810:	b4 2e       	mov	r11, r20
    1812:	a5 2e       	mov	r10, r21
    1814:	6f 87       	std	Y+15, r22	; 0x0f
    1816:	78 8b       	std	Y+16, r23	; 0x10
    1818:	38 2e       	mov	r3, r24
    181a:	29 2e       	mov	r2, r25
    181c:	04 e0       	ldi	r16, 0x04	; 4
    181e:	e0 2e       	mov	r14, r16
    1820:	f1 2c       	mov	r15, r1
    1822:	8e 01       	movw	r16, r28
    1824:	0f 5f       	subi	r16, 0xFF	; 255
    1826:	1f 4f       	sbci	r17, 0xFF	; 255
    1828:	e8 a5       	ldd	r30, Y+40	; 0x28
    182a:	f9 a5       	ldd	r31, Y+41	; 0x29
    182c:	09 95       	icall
    182e:	81 11       	cpse	r24, r1
    1830:	92 c0       	rjmp	.+292    	; 0x1956 <fat_append_clusters+0x2c2>
    1832:	8c c0       	rjmp	.+280    	; 0x194c <fat_append_clusters+0x2b8>
    1834:	c3 01       	movw	r24, r6
    1836:	b2 01       	movw	r22, r4
    1838:	22 e0       	ldi	r18, 0x02	; 2
    183a:	30 e0       	ldi	r19, 0x00	; 0
    183c:	40 e0       	ldi	r20, 0x00	; 0
    183e:	50 e0       	ldi	r21, 0x00	; 0
    1840:	0e 94 f7 37 	call	0x6fee	; 0x6fee <__umulsidi3>
    1844:	ab 88       	ldd	r10, Y+19	; 0x13
    1846:	bc 88       	ldd	r11, Y+20	; 0x14
    1848:	cd 88       	ldd	r12, Y+21	; 0x15
    184a:	de 88       	ldd	r13, Y+22	; 0x16
    184c:	ef 88       	ldd	r14, Y+23	; 0x17
    184e:	f8 8c       	ldd	r15, Y+24	; 0x18
    1850:	09 8d       	ldd	r16, Y+25	; 0x19
    1852:	1a 8d       	ldd	r17, Y+26	; 0x1a
    1854:	0e 94 40 38 	call	0x7080	; 0x7080 <__adddi3>
    1858:	d2 2e       	mov	r13, r18
    185a:	c3 2e       	mov	r12, r19
    185c:	b4 2e       	mov	r11, r20
    185e:	a5 2e       	mov	r10, r21
    1860:	6f 87       	std	Y+15, r22	; 0x0f
    1862:	78 8b       	std	Y+16, r23	; 0x10
    1864:	38 2e       	mov	r3, r24
    1866:	29 2e       	mov	r2, r25
    1868:	12 e0       	ldi	r17, 0x02	; 2
    186a:	e1 2e       	mov	r14, r17
    186c:	f1 2c       	mov	r15, r1
    186e:	8e 01       	movw	r16, r28
    1870:	0b 5f       	subi	r16, 0xFB	; 251
    1872:	1f 4f       	sbci	r17, 0xFF	; 255
    1874:	e8 a5       	ldd	r30, Y+40	; 0x28
    1876:	f9 a5       	ldd	r31, Y+41	; 0x29
    1878:	09 95       	icall
    187a:	81 11       	cpse	r24, r1
    187c:	bc c0       	rjmp	.+376    	; 0x19f6 <fat_append_clusters+0x362>
    187e:	66 c0       	rjmp	.+204    	; 0x194c <fat_append_clusters+0x2b8>
    1880:	2b 85       	ldd	r18, Y+11	; 0x0b
    1882:	3c 85       	ldd	r19, Y+12	; 0x0c
    1884:	4d 85       	ldd	r20, Y+13	; 0x0d
    1886:	5e 85       	ldd	r21, Y+14	; 0x0e
    1888:	23 2b       	or	r18, r19
    188a:	24 2b       	or	r18, r20
    188c:	25 2b       	or	r18, r21
    188e:	09 f0       	breq	.+2      	; 0x1892 <fat_append_clusters+0x1fe>
    1890:	56 c0       	rjmp	.+172    	; 0x193e <fat_append_clusters+0x2aa>
    1892:	8c a1       	ldd	r24, Y+36	; 0x24
    1894:	9d a1       	ldd	r25, Y+37	; 0x25
    1896:	ae a1       	ldd	r26, Y+38	; 0x26
    1898:	bf a1       	ldd	r27, Y+39	; 0x27
    189a:	02 97       	sbiw	r24, 0x02	; 2
    189c:	a1 05       	cpc	r26, r1
    189e:	b1 05       	cpc	r27, r1
    18a0:	28 f4       	brcc	.+10     	; 0x18ac <fat_append_clusters+0x218>
    18a2:	6f 81       	ldd	r22, Y+7	; 0x07
    18a4:	78 85       	ldd	r23, Y+8	; 0x08
    18a6:	89 85       	ldd	r24, Y+9	; 0x09
    18a8:	9a 85       	ldd	r25, Y+10	; 0x0a
    18aa:	e3 c0       	rjmp	.+454    	; 0x1a72 <fat_append_clusters+0x3de>
    18ac:	9b a1       	ldd	r25, Y+35	; 0x23
    18ae:	99 23       	and	r25, r25
    18b0:	19 f1       	breq	.+70     	; 0x18f8 <fat_append_clusters+0x264>
    18b2:	2f 81       	ldd	r18, Y+7	; 0x07
    18b4:	38 85       	ldd	r19, Y+8	; 0x08
    18b6:	49 85       	ldd	r20, Y+9	; 0x09
    18b8:	5a 85       	ldd	r21, Y+10	; 0x0a
    18ba:	29 83       	std	Y+1, r18	; 0x01
    18bc:	3a 83       	std	Y+2, r19	; 0x02
    18be:	4b 83       	std	Y+3, r20	; 0x03
    18c0:	5c 83       	std	Y+4, r21	; 0x04
    18c2:	6c a1       	ldd	r22, Y+36	; 0x24
    18c4:	7d a1       	ldd	r23, Y+37	; 0x25
    18c6:	8e a1       	ldd	r24, Y+38	; 0x26
    18c8:	9f a1       	ldd	r25, Y+39	; 0x27
    18ca:	24 e0       	ldi	r18, 0x04	; 4
    18cc:	30 e0       	ldi	r19, 0x00	; 0
    18ce:	40 e0       	ldi	r20, 0x00	; 0
    18d0:	50 e0       	ldi	r21, 0x00	; 0
    18d2:	0e 94 f7 37 	call	0x6fee	; 0x6fee <__umulsidi3>
    18d6:	ab 88       	ldd	r10, Y+19	; 0x13
    18d8:	bc 88       	ldd	r11, Y+20	; 0x14
    18da:	cd 88       	ldd	r12, Y+21	; 0x15
    18dc:	de 88       	ldd	r13, Y+22	; 0x16
    18de:	ef 88       	ldd	r14, Y+23	; 0x17
    18e0:	f8 8c       	ldd	r15, Y+24	; 0x18
    18e2:	09 8d       	ldd	r16, Y+25	; 0x19
    18e4:	1a 8d       	ldd	r17, Y+26	; 0x1a
    18e6:	0e 94 40 38 	call	0x7080	; 0x7080 <__adddi3>
    18ea:	f4 e0       	ldi	r31, 0x04	; 4
    18ec:	ef 2e       	mov	r14, r31
    18ee:	f1 2c       	mov	r15, r1
    18f0:	8e 01       	movw	r16, r28
    18f2:	0f 5f       	subi	r16, 0xFF	; 255
    18f4:	1f 4f       	sbci	r17, 0xFF	; 255
    18f6:	1e c0       	rjmp	.+60     	; 0x1934 <fat_append_clusters+0x2a0>
    18f8:	2f 81       	ldd	r18, Y+7	; 0x07
    18fa:	38 85       	ldd	r19, Y+8	; 0x08
    18fc:	3e 83       	std	Y+6, r19	; 0x06
    18fe:	2d 83       	std	Y+5, r18	; 0x05
    1900:	6c a1       	ldd	r22, Y+36	; 0x24
    1902:	7d a1       	ldd	r23, Y+37	; 0x25
    1904:	8e a1       	ldd	r24, Y+38	; 0x26
    1906:	9f a1       	ldd	r25, Y+39	; 0x27
    1908:	22 e0       	ldi	r18, 0x02	; 2
    190a:	30 e0       	ldi	r19, 0x00	; 0
    190c:	40 e0       	ldi	r20, 0x00	; 0
    190e:	50 e0       	ldi	r21, 0x00	; 0
    1910:	0e 94 f7 37 	call	0x6fee	; 0x6fee <__umulsidi3>
    1914:	ab 88       	ldd	r10, Y+19	; 0x13
    1916:	bc 88       	ldd	r11, Y+20	; 0x14
    1918:	cd 88       	ldd	r12, Y+21	; 0x15
    191a:	de 88       	ldd	r13, Y+22	; 0x16
    191c:	ef 88       	ldd	r14, Y+23	; 0x17
    191e:	f8 8c       	ldd	r15, Y+24	; 0x18
    1920:	09 8d       	ldd	r16, Y+25	; 0x19
    1922:	1a 8d       	ldd	r17, Y+26	; 0x1a
    1924:	0e 94 40 38 	call	0x7080	; 0x7080 <__adddi3>
    1928:	e2 e0       	ldi	r30, 0x02	; 2
    192a:	ee 2e       	mov	r14, r30
    192c:	f1 2c       	mov	r15, r1
    192e:	8e 01       	movw	r16, r28
    1930:	0b 5f       	subi	r16, 0xFB	; 251
    1932:	1f 4f       	sbci	r17, 0xFF	; 255
    1934:	e9 89       	ldd	r30, Y+17	; 0x11
    1936:	fa 89       	ldd	r31, Y+18	; 0x12
    1938:	09 95       	icall
    193a:	81 11       	cpse	r24, r1
    193c:	b2 cf       	rjmp	.-156    	; 0x18a2 <fat_append_clusters+0x20e>
    193e:	4f 81       	ldd	r20, Y+7	; 0x07
    1940:	58 85       	ldd	r21, Y+8	; 0x08
    1942:	69 85       	ldd	r22, Y+9	; 0x09
    1944:	7a 85       	ldd	r23, Y+10	; 0x0a
    1946:	c4 01       	movw	r24, r8
    1948:	0e 94 17 0a 	call	0x142e	; 0x142e <fat_free_clusters>
    194c:	60 e0       	ldi	r22, 0x00	; 0
    194e:	70 e0       	ldi	r23, 0x00	; 0
    1950:	80 e0       	ldi	r24, 0x00	; 0
    1952:	90 e0       	ldi	r25, 0x00	; 0
    1954:	8e c0       	rjmp	.+284    	; 0x1a72 <fat_append_clusters+0x3de>
    1956:	89 81       	ldd	r24, Y+1	; 0x01
    1958:	9a 81       	ldd	r25, Y+2	; 0x02
    195a:	ab 81       	ldd	r26, Y+3	; 0x03
    195c:	bc 81       	ldd	r27, Y+4	; 0x04
    195e:	89 2b       	or	r24, r25
    1960:	8a 2b       	or	r24, r26
    1962:	8b 2b       	or	r24, r27
    1964:	09 f0       	breq	.+2      	; 0x1968 <fat_append_clusters+0x2d4>
    1966:	5b c0       	rjmp	.+182    	; 0x1a1e <fat_append_clusters+0x38a>
    1968:	2b 85       	ldd	r18, Y+11	; 0x0b
    196a:	3c 85       	ldd	r19, Y+12	; 0x0c
    196c:	4d 85       	ldd	r20, Y+13	; 0x0d
    196e:	5e 85       	ldd	r21, Y+14	; 0x0e
    1970:	23 2b       	or	r18, r19
    1972:	24 2b       	or	r18, r20
    1974:	25 2b       	or	r18, r21
    1976:	09 f4       	brne	.+2      	; 0x197a <fat_append_clusters+0x2e6>
    1978:	4a c0       	rjmp	.+148    	; 0x1a0e <fat_append_clusters+0x37a>
    197a:	2f 81       	ldd	r18, Y+7	; 0x07
    197c:	38 85       	ldd	r19, Y+8	; 0x08
    197e:	49 85       	ldd	r20, Y+9	; 0x09
    1980:	5a 85       	ldd	r21, Y+10	; 0x0a
    1982:	23 2b       	or	r18, r19
    1984:	24 2b       	or	r18, r20
    1986:	25 2b       	or	r18, r21
    1988:	49 f4       	brne	.+18     	; 0x199c <fat_append_clusters+0x308>
    198a:	8f ef       	ldi	r24, 0xFF	; 255
    198c:	9f ef       	ldi	r25, 0xFF	; 255
    198e:	af ef       	ldi	r26, 0xFF	; 255
    1990:	bf e0       	ldi	r27, 0x0F	; 15
    1992:	89 83       	std	Y+1, r24	; 0x01
    1994:	9a 83       	std	Y+2, r25	; 0x02
    1996:	ab 83       	std	Y+3, r26	; 0x03
    1998:	bc 83       	std	Y+4, r27	; 0x04
    199a:	08 c0       	rjmp	.+16     	; 0x19ac <fat_append_clusters+0x318>
    199c:	2f 81       	ldd	r18, Y+7	; 0x07
    199e:	38 85       	ldd	r19, Y+8	; 0x08
    19a0:	49 85       	ldd	r20, Y+9	; 0x09
    19a2:	5a 85       	ldd	r21, Y+10	; 0x0a
    19a4:	29 83       	std	Y+1, r18	; 0x01
    19a6:	3a 83       	std	Y+2, r19	; 0x02
    19a8:	4b 83       	std	Y+3, r20	; 0x03
    19aa:	5c 83       	std	Y+4, r21	; 0x04
    19ac:	b4 e0       	ldi	r27, 0x04	; 4
    19ae:	eb 2e       	mov	r14, r27
    19b0:	f1 2c       	mov	r15, r1
    19b2:	8e 01       	movw	r16, r28
    19b4:	0f 5f       	subi	r16, 0xFF	; 255
    19b6:	1f 4f       	sbci	r17, 0xFF	; 255
    19b8:	2d 2d       	mov	r18, r13
    19ba:	3c 2d       	mov	r19, r12
    19bc:	4b 2d       	mov	r20, r11
    19be:	5a 2d       	mov	r21, r10
    19c0:	6f 85       	ldd	r22, Y+15	; 0x0f
    19c2:	78 89       	ldd	r23, Y+16	; 0x10
    19c4:	83 2d       	mov	r24, r3
    19c6:	92 2d       	mov	r25, r2
    19c8:	e9 89       	ldd	r30, Y+17	; 0x11
    19ca:	fa 89       	ldd	r31, Y+18	; 0x12
    19cc:	09 95       	icall
    19ce:	88 23       	and	r24, r24
    19d0:	09 f4       	brne	.+2      	; 0x19d4 <fat_append_clusters+0x340>
    19d2:	b5 cf       	rjmp	.-150    	; 0x193e <fat_append_clusters+0x2aa>
    19d4:	2b 85       	ldd	r18, Y+11	; 0x0b
    19d6:	3c 85       	ldd	r19, Y+12	; 0x0c
    19d8:	4d 85       	ldd	r20, Y+13	; 0x0d
    19da:	5e 85       	ldd	r21, Y+14	; 0x0e
    19dc:	21 50       	subi	r18, 0x01	; 1
    19de:	31 09       	sbc	r19, r1
    19e0:	41 09       	sbc	r20, r1
    19e2:	51 09       	sbc	r21, r1
    19e4:	2b 87       	std	Y+11, r18	; 0x0b
    19e6:	3c 87       	std	Y+12, r19	; 0x0c
    19e8:	4d 87       	std	Y+13, r20	; 0x0d
    19ea:	5e 87       	std	Y+14, r21	; 0x0e
    19ec:	4f 82       	std	Y+7, r4	; 0x07
    19ee:	58 86       	std	Y+8, r5	; 0x08
    19f0:	69 86       	std	Y+9, r6	; 0x09
    19f2:	7a 86       	std	Y+10, r7	; 0x0a
    19f4:	14 c0       	rjmp	.+40     	; 0x1a1e <fat_append_clusters+0x38a>
    19f6:	8d 81       	ldd	r24, Y+5	; 0x05
    19f8:	9e 81       	ldd	r25, Y+6	; 0x06
    19fa:	89 2b       	or	r24, r25
    19fc:	81 f4       	brne	.+32     	; 0x1a1e <fat_append_clusters+0x38a>
    19fe:	8b 85       	ldd	r24, Y+11	; 0x0b
    1a00:	9c 85       	ldd	r25, Y+12	; 0x0c
    1a02:	ad 85       	ldd	r26, Y+13	; 0x0d
    1a04:	be 85       	ldd	r27, Y+14	; 0x0e
    1a06:	89 2b       	or	r24, r25
    1a08:	8a 2b       	or	r24, r26
    1a0a:	8b 2b       	or	r24, r27
    1a0c:	d1 f4       	brne	.+52     	; 0x1a42 <fat_append_clusters+0x3ae>
    1a0e:	d4 01       	movw	r26, r8
    1a10:	9e 96       	adiw	r26, 0x2e	; 46
    1a12:	4d 92       	st	X+, r4
    1a14:	5d 92       	st	X+, r5
    1a16:	6d 92       	st	X+, r6
    1a18:	7c 92       	st	X, r7
    1a1a:	d1 97       	sbiw	r26, 0x31	; 49
    1a1c:	3a cf       	rjmp	.-396    	; 0x1892 <fat_append_clusters+0x1fe>
    1a1e:	2f 8d       	ldd	r18, Y+31	; 0x1f
    1a20:	38 a1       	ldd	r19, Y+32	; 0x20
    1a22:	49 a1       	ldd	r20, Y+33	; 0x21
    1a24:	5a a1       	ldd	r21, Y+34	; 0x22
    1a26:	21 50       	subi	r18, 0x01	; 1
    1a28:	31 09       	sbc	r19, r1
    1a2a:	41 09       	sbc	r20, r1
    1a2c:	51 09       	sbc	r21, r1
    1a2e:	2f 8f       	std	Y+31, r18	; 0x1f
    1a30:	38 a3       	std	Y+32, r19	; 0x20
    1a32:	49 a3       	std	Y+33, r20	; 0x21
    1a34:	5a a3       	std	Y+34, r21	; 0x22
    1a36:	3f ef       	ldi	r19, 0xFF	; 255
    1a38:	43 1a       	sub	r4, r19
    1a3a:	53 0a       	sbc	r5, r19
    1a3c:	63 0a       	sbc	r6, r19
    1a3e:	73 0a       	sbc	r7, r19
    1a40:	b3 ce       	rjmp	.-666    	; 0x17a8 <fat_append_clusters+0x114>
    1a42:	2f 81       	ldd	r18, Y+7	; 0x07
    1a44:	38 85       	ldd	r19, Y+8	; 0x08
    1a46:	49 85       	ldd	r20, Y+9	; 0x09
    1a48:	5a 85       	ldd	r21, Y+10	; 0x0a
    1a4a:	23 2b       	or	r18, r19
    1a4c:	24 2b       	or	r18, r20
    1a4e:	25 2b       	or	r18, r21
    1a50:	29 f4       	brne	.+10     	; 0x1a5c <fat_append_clusters+0x3c8>
    1a52:	4f ef       	ldi	r20, 0xFF	; 255
    1a54:	5f ef       	ldi	r21, 0xFF	; 255
    1a56:	5e 83       	std	Y+6, r21	; 0x06
    1a58:	4d 83       	std	Y+5, r20	; 0x05
    1a5a:	04 c0       	rjmp	.+8      	; 0x1a64 <fat_append_clusters+0x3d0>
    1a5c:	8f 81       	ldd	r24, Y+7	; 0x07
    1a5e:	98 85       	ldd	r25, Y+8	; 0x08
    1a60:	9e 83       	std	Y+6, r25	; 0x06
    1a62:	8d 83       	std	Y+5, r24	; 0x05
    1a64:	a2 e0       	ldi	r26, 0x02	; 2
    1a66:	ea 2e       	mov	r14, r26
    1a68:	f1 2c       	mov	r15, r1
    1a6a:	8e 01       	movw	r16, r28
    1a6c:	0b 5f       	subi	r16, 0xFB	; 251
    1a6e:	1f 4f       	sbci	r17, 0xFF	; 255
    1a70:	a3 cf       	rjmp	.-186    	; 0x19b8 <fat_append_clusters+0x324>
    1a72:	a9 96       	adiw	r28, 0x29	; 41
    1a74:	0f b6       	in	r0, 0x3f	; 63
    1a76:	f8 94       	cli
    1a78:	de bf       	out	0x3e, r29	; 62
    1a7a:	0f be       	out	0x3f, r0	; 63
    1a7c:	cd bf       	out	0x3d, r28	; 61
    1a7e:	df 91       	pop	r29
    1a80:	cf 91       	pop	r28
    1a82:	1f 91       	pop	r17
    1a84:	0f 91       	pop	r16
    1a86:	ff 90       	pop	r15
    1a88:	ef 90       	pop	r14
    1a8a:	df 90       	pop	r13
    1a8c:	cf 90       	pop	r12
    1a8e:	bf 90       	pop	r11
    1a90:	af 90       	pop	r10
    1a92:	9f 90       	pop	r9
    1a94:	8f 90       	pop	r8
    1a96:	7f 90       	pop	r7
    1a98:	6f 90       	pop	r6
    1a9a:	5f 90       	pop	r5
    1a9c:	4f 90       	pop	r4
    1a9e:	3f 90       	pop	r3
    1aa0:	2f 90       	pop	r2
    1aa2:	08 95       	ret

00001aa4 <fat_clear_cluster_callback>:
    1aa4:	80 e1       	ldi	r24, 0x10	; 16
    1aa6:	90 e0       	ldi	r25, 0x00	; 0
    1aa8:	08 95       	ret

00001aaa <fat_cluster_offset>:
    1aaa:	af 92       	push	r10
    1aac:	bf 92       	push	r11
    1aae:	cf 92       	push	r12
    1ab0:	df 92       	push	r13
    1ab2:	ef 92       	push	r14
    1ab4:	ff 92       	push	r15
    1ab6:	0f 93       	push	r16
    1ab8:	1f 93       	push	r17
    1aba:	cf 93       	push	r28
    1abc:	df 93       	push	r29
    1abe:	ec 01       	movw	r28, r24
    1ac0:	89 2b       	or	r24, r25
    1ac2:	e1 f0       	breq	.+56     	; 0x1afc <fat_cluster_offset+0x52>
    1ac4:	42 30       	cpi	r20, 0x02	; 2
    1ac6:	51 05       	cpc	r21, r1
    1ac8:	61 05       	cpc	r22, r1
    1aca:	71 05       	cpc	r23, r1
    1acc:	b8 f0       	brcs	.+46     	; 0x1afc <fat_cluster_offset+0x52>
    1ace:	cb 01       	movw	r24, r22
    1ad0:	ba 01       	movw	r22, r20
    1ad2:	62 50       	subi	r22, 0x02	; 2
    1ad4:	71 09       	sbc	r23, r1
    1ad6:	81 09       	sbc	r24, r1
    1ad8:	91 09       	sbc	r25, r1
    1ada:	28 8d       	ldd	r18, Y+24	; 0x18
    1adc:	39 8d       	ldd	r19, Y+25	; 0x19
    1ade:	40 e0       	ldi	r20, 0x00	; 0
    1ae0:	50 e0       	ldi	r21, 0x00	; 0
    1ae2:	0e 94 f7 37 	call	0x6fee	; 0x6fee <__umulsidi3>
    1ae6:	aa 8c       	ldd	r10, Y+26	; 0x1a
    1ae8:	bb 8c       	ldd	r11, Y+27	; 0x1b
    1aea:	cc 8c       	ldd	r12, Y+28	; 0x1c
    1aec:	dd 8c       	ldd	r13, Y+29	; 0x1d
    1aee:	ee 8c       	ldd	r14, Y+30	; 0x1e
    1af0:	ff 8c       	ldd	r15, Y+31	; 0x1f
    1af2:	08 a1       	ldd	r16, Y+32	; 0x20
    1af4:	19 a1       	ldd	r17, Y+33	; 0x21
    1af6:	0e 94 40 38 	call	0x7080	; 0x7080 <__adddi3>
    1afa:	08 c0       	rjmp	.+16     	; 0x1b0c <fat_cluster_offset+0x62>
    1afc:	20 e0       	ldi	r18, 0x00	; 0
    1afe:	30 e0       	ldi	r19, 0x00	; 0
    1b00:	40 e0       	ldi	r20, 0x00	; 0
    1b02:	50 e0       	ldi	r21, 0x00	; 0
    1b04:	60 e0       	ldi	r22, 0x00	; 0
    1b06:	70 e0       	ldi	r23, 0x00	; 0
    1b08:	80 e0       	ldi	r24, 0x00	; 0
    1b0a:	90 e0       	ldi	r25, 0x00	; 0
    1b0c:	df 91       	pop	r29
    1b0e:	cf 91       	pop	r28
    1b10:	1f 91       	pop	r17
    1b12:	0f 91       	pop	r16
    1b14:	ff 90       	pop	r15
    1b16:	ef 90       	pop	r14
    1b18:	df 90       	pop	r13
    1b1a:	cf 90       	pop	r12
    1b1c:	bf 90       	pop	r11
    1b1e:	af 90       	pop	r10
    1b20:	08 95       	ret

00001b22 <fat_calc_83_checksum>:
    1b22:	9c 01       	movw	r18, r24
    1b24:	fc 01       	movw	r30, r24
    1b26:	81 91       	ld	r24, Z+
    1b28:	a9 01       	movw	r20, r18
    1b2a:	45 5f       	subi	r20, 0xF5	; 245
    1b2c:	5f 4f       	sbci	r21, 0xFF	; 255
    1b2e:	90 e8       	ldi	r25, 0x80	; 128
    1b30:	89 9f       	mul	r24, r25
    1b32:	90 01       	movw	r18, r0
    1b34:	11 24       	eor	r1, r1
    1b36:	98 2f       	mov	r25, r24
    1b38:	96 95       	lsr	r25
    1b3a:	92 2b       	or	r25, r18
    1b3c:	21 91       	ld	r18, Z+
    1b3e:	89 2f       	mov	r24, r25
    1b40:	82 0f       	add	r24, r18
    1b42:	e4 17       	cp	r30, r20
    1b44:	f5 07       	cpc	r31, r21
    1b46:	99 f7       	brne	.-26     	; 0x1b2e <fat_calc_83_checksum+0xc>
    1b48:	08 95       	ret

00001b4a <fat_dir_entry_read_callback>:
    1b4a:	4f 92       	push	r4
    1b4c:	5f 92       	push	r5
    1b4e:	6f 92       	push	r6
    1b50:	7f 92       	push	r7
    1b52:	8f 92       	push	r8
    1b54:	9f 92       	push	r9
    1b56:	af 92       	push	r10
    1b58:	bf 92       	push	r11
    1b5a:	cf 92       	push	r12
    1b5c:	df 92       	push	r13
    1b5e:	ef 92       	push	r14
    1b60:	ff 92       	push	r15
    1b62:	0f 93       	push	r16
    1b64:	1f 93       	push	r17
    1b66:	cf 93       	push	r28
    1b68:	df 93       	push	r29
    1b6a:	cd b7       	in	r28, 0x3d	; 61
    1b6c:	de b7       	in	r29, 0x3e	; 62
    1b6e:	2d 97       	sbiw	r28, 0x0d	; 13
    1b70:	0f b6       	in	r0, 0x3f	; 63
    1b72:	f8 94       	cli
    1b74:	de bf       	out	0x3e, r29	; 62
    1b76:	0f be       	out	0x3f, r0	; 63
    1b78:	cd bf       	out	0x3d, r28	; 61
    1b7a:	f7 01       	movw	r30, r14
    1b7c:	c0 80       	ld	r12, Z
    1b7e:	d1 80       	ldd	r13, Z+1	; 0x01
    1b80:	a2 81       	ldd	r26, Z+2	; 0x02
    1b82:	b3 81       	ldd	r27, Z+3	; 0x03
    1b84:	90 96       	adiw	r26, 0x20	; 32
    1b86:	b3 83       	std	Z+3, r27	; 0x03
    1b88:	a2 83       	std	Z+2, r26	; 0x02
    1b8a:	dc 01       	movw	r26, r24
    1b8c:	fc 90       	ld	r15, X
    1b8e:	b5 ee       	ldi	r27, 0xE5	; 229
    1b90:	fb 16       	cp	r15, r27
    1b92:	11 f0       	breq	.+4      	; 0x1b98 <fat_dir_entry_read_callback+0x4e>
    1b94:	f1 10       	cpse	r15, r1
    1b96:	02 c0       	rjmp	.+4      	; 0x1b9c <fat_dir_entry_read_callback+0x52>
    1b98:	14 82       	std	Z+4, r1	; 0x04
    1b9a:	4e c0       	rjmp	.+156    	; 0x1c38 <fat_dir_entry_read_callback+0xee>
    1b9c:	dc 01       	movw	r26, r24
    1b9e:	1b 96       	adiw	r26, 0x0b	; 11
    1ba0:	fc 90       	ld	r15, X
    1ba2:	bf e0       	ldi	r27, 0x0F	; 15
    1ba4:	fb 12       	cpse	r15, r27
    1ba6:	4a c0       	rjmp	.+148    	; 0x1c3c <fat_dir_entry_read_callback+0xf2>
    1ba8:	f4 80       	ldd	r15, Z+4	; 0x04
    1baa:	ff 20       	and	r15, r15
    1bac:	29 f0       	breq	.+10     	; 0x1bb8 <fat_dir_entry_read_callback+0x6e>
    1bae:	dc 01       	movw	r26, r24
    1bb0:	1d 96       	adiw	r26, 0x0d	; 13
    1bb2:	ec 90       	ld	r14, X
    1bb4:	fe 14       	cp	r15, r14
    1bb6:	99 f0       	breq	.+38     	; 0x1bde <fat_dir_entry_read_callback+0x94>
    1bb8:	a1 e3       	ldi	r26, 0x31	; 49
    1bba:	fa 2e       	mov	r15, r26
    1bbc:	d6 01       	movw	r26, r12
    1bbe:	1d 92       	st	X+, r1
    1bc0:	fa 94       	dec	r15
    1bc2:	e9 f7       	brne	.-6      	; 0x1bbe <fat_dir_entry_read_callback+0x74>
    1bc4:	dc 01       	movw	r26, r24
    1bc6:	1d 96       	adiw	r26, 0x0d	; 13
    1bc8:	fc 90       	ld	r15, X
    1bca:	f4 82       	std	Z+4, r15	; 0x04
    1bcc:	f6 01       	movw	r30, r12
    1bce:	01 a7       	std	Z+41, r16	; 0x29
    1bd0:	12 a7       	std	Z+42, r17	; 0x2a
    1bd2:	23 a7       	std	Z+43, r18	; 0x2b
    1bd4:	34 a7       	std	Z+44, r19	; 0x2c
    1bd6:	45 a7       	std	Z+45, r20	; 0x2d
    1bd8:	56 a7       	std	Z+46, r21	; 0x2e
    1bda:	67 a7       	std	Z+47, r22	; 0x2f
    1bdc:	70 ab       	std	Z+48, r23	; 0x30
    1bde:	dc 01       	movw	r26, r24
    1be0:	2c 91       	ld	r18, X
    1be2:	2f 73       	andi	r18, 0x3F	; 63
    1be4:	30 e0       	ldi	r19, 0x00	; 0
    1be6:	21 50       	subi	r18, 0x01	; 1
    1be8:	31 09       	sbc	r19, r1
    1bea:	6d e0       	ldi	r22, 0x0D	; 13
    1bec:	62 9f       	mul	r22, r18
    1bee:	a0 01       	movw	r20, r0
    1bf0:	63 9f       	mul	r22, r19
    1bf2:	50 0d       	add	r21, r0
    1bf4:	11 24       	eor	r1, r1
    1bf6:	e7 e1       	ldi	r30, 0x17	; 23
    1bf8:	f1 e0       	ldi	r31, 0x01	; 1
    1bfa:	de 01       	movw	r26, r28
    1bfc:	11 96       	adiw	r26, 0x01	; 1
    1bfe:	01 90       	ld	r0, Z+
    1c00:	0d 92       	st	X+, r0
    1c02:	6a 95       	dec	r22
    1c04:	e1 f7       	brne	.-8      	; 0x1bfe <fat_dir_entry_read_callback+0xb4>
    1c06:	c4 0e       	add	r12, r20
    1c08:	d5 1e       	adc	r13, r21
    1c0a:	fe 01       	movw	r30, r28
    1c0c:	31 96       	adiw	r30, 0x01	; 1
    1c0e:	4e 1b       	sub	r20, r30
    1c10:	5f 0b       	sbc	r21, r31
    1c12:	6d e0       	ldi	r22, 0x0D	; 13
    1c14:	6e 0f       	add	r22, r30
    1c16:	9a 01       	movw	r18, r20
    1c18:	2e 0f       	add	r18, r30
    1c1a:	3f 1f       	adc	r19, r31
    1c1c:	2f 31       	cpi	r18, 0x1F	; 31
    1c1e:	31 05       	cpc	r19, r1
    1c20:	58 f4       	brcc	.+22     	; 0x1c38 <fat_dir_entry_read_callback+0xee>
    1c22:	21 91       	ld	r18, Z+
    1c24:	8c 01       	movw	r16, r24
    1c26:	02 0f       	add	r16, r18
    1c28:	11 1d       	adc	r17, r1
    1c2a:	d8 01       	movw	r26, r16
    1c2c:	2c 91       	ld	r18, X
    1c2e:	d6 01       	movw	r26, r12
    1c30:	2d 93       	st	X+, r18
    1c32:	6d 01       	movw	r12, r26
    1c34:	6e 13       	cpse	r22, r30
    1c36:	ef cf       	rjmp	.-34     	; 0x1c16 <fat_dir_entry_read_callback+0xcc>
    1c38:	81 e0       	ldi	r24, 0x01	; 1
    1c3a:	b1 c0       	rjmp	.+354    	; 0x1d9e <fat_dir_entry_read_callback+0x254>
    1c3c:	7f 01       	movw	r14, r30
    1c3e:	57 2e       	mov	r5, r23
    1c40:	66 2e       	mov	r6, r22
    1c42:	75 2e       	mov	r7, r21
    1c44:	44 2e       	mov	r4, r20
    1c46:	49 01       	movw	r8, r18
    1c48:	5c 01       	movw	r10, r24
    1c4a:	f6 01       	movw	r30, r12
    1c4c:	80 81       	ld	r24, Z
    1c4e:	88 23       	and	r24, r24
    1c50:	49 f0       	breq	.+18     	; 0x1c64 <fat_dir_entry_read_callback+0x11a>
    1c52:	c5 01       	movw	r24, r10
    1c54:	0e 94 91 0d 	call	0x1b22	; 0x1b22 <fat_calc_83_checksum>
    1c58:	d7 01       	movw	r26, r14
    1c5a:	14 96       	adiw	r26, 0x04	; 4
    1c5c:	9c 91       	ld	r25, X
    1c5e:	98 17       	cp	r25, r24
    1c60:	09 f4       	brne	.+2      	; 0x1c64 <fat_dir_entry_read_callback+0x11a>
    1c62:	68 c0       	rjmp	.+208    	; 0x1d34 <fat_dir_entry_read_callback+0x1ea>
    1c64:	81 e3       	ldi	r24, 0x31	; 49
    1c66:	f6 01       	movw	r30, r12
    1c68:	11 92       	st	Z+, r1
    1c6a:	8a 95       	dec	r24
    1c6c:	e9 f7       	brne	.-6      	; 0x1c68 <fat_dir_entry_read_callback+0x11e>
    1c6e:	d6 01       	movw	r26, r12
    1c70:	99 96       	adiw	r26, 0x29	; 41
    1c72:	0c 93       	st	X, r16
    1c74:	99 97       	sbiw	r26, 0x29	; 41
    1c76:	9a 96       	adiw	r26, 0x2a	; 42
    1c78:	1c 93       	st	X, r17
    1c7a:	9a 97       	sbiw	r26, 0x2a	; 42
    1c7c:	9b 96       	adiw	r26, 0x2b	; 43
    1c7e:	8c 92       	st	X, r8
    1c80:	9b 97       	sbiw	r26, 0x2b	; 43
    1c82:	9c 96       	adiw	r26, 0x2c	; 44
    1c84:	9c 92       	st	X, r9
    1c86:	9c 97       	sbiw	r26, 0x2c	; 44
    1c88:	9d 96       	adiw	r26, 0x2d	; 45
    1c8a:	4c 92       	st	X, r4
    1c8c:	9d 97       	sbiw	r26, 0x2d	; 45
    1c8e:	9e 96       	adiw	r26, 0x2e	; 46
    1c90:	7c 92       	st	X, r7
    1c92:	9e 97       	sbiw	r26, 0x2e	; 46
    1c94:	9f 96       	adiw	r26, 0x2f	; 47
    1c96:	6c 92       	st	X, r6
    1c98:	9f 97       	sbiw	r26, 0x2f	; 47
    1c9a:	d0 96       	adiw	r26, 0x30	; 48
    1c9c:	5c 92       	st	X, r5
    1c9e:	d5 01       	movw	r26, r10
    1ca0:	a6 01       	movw	r20, r12
    1ca2:	80 e0       	ldi	r24, 0x00	; 0
    1ca4:	9c 91       	ld	r25, X
    1ca6:	90 32       	cpi	r25, 0x20	; 32
    1ca8:	99 f0       	breq	.+38     	; 0x1cd0 <fat_dir_entry_read_callback+0x186>
    1caa:	fa 01       	movw	r30, r20
    1cac:	90 83       	st	Z, r25
    1cae:	f5 01       	movw	r30, r10
    1cb0:	24 85       	ldd	r18, Z+12	; 0x0c
    1cb2:	23 ff       	sbrs	r18, 3
    1cb4:	07 c0       	rjmp	.+14     	; 0x1cc4 <fat_dir_entry_read_callback+0x17a>
    1cb6:	2c 91       	ld	r18, X
    1cb8:	21 54       	subi	r18, 0x41	; 65
    1cba:	2a 31       	cpi	r18, 0x1A	; 26
    1cbc:	18 f4       	brcc	.+6      	; 0x1cc4 <fat_dir_entry_read_callback+0x17a>
    1cbe:	90 5e       	subi	r25, 0xE0	; 224
    1cc0:	fa 01       	movw	r30, r20
    1cc2:	90 83       	st	Z, r25
    1cc4:	8f 5f       	subi	r24, 0xFF	; 255
    1cc6:	11 96       	adiw	r26, 0x01	; 1
    1cc8:	4f 5f       	subi	r20, 0xFF	; 255
    1cca:	5f 4f       	sbci	r21, 0xFF	; 255
    1ccc:	88 30       	cpi	r24, 0x08	; 8
    1cce:	51 f7       	brne	.-44     	; 0x1ca4 <fat_dir_entry_read_callback+0x15a>
    1cd0:	d6 01       	movw	r26, r12
    1cd2:	9c 91       	ld	r25, X
    1cd4:	95 30       	cpi	r25, 0x05	; 5
    1cd6:	11 f4       	brne	.+4      	; 0x1cdc <fat_dir_entry_read_callback+0x192>
    1cd8:	95 ee       	ldi	r25, 0xE5	; 229
    1cda:	9c 93       	st	X, r25
    1cdc:	f5 01       	movw	r30, r10
    1cde:	90 85       	ldd	r25, Z+8	; 0x08
    1ce0:	90 32       	cpi	r25, 0x20	; 32
    1ce2:	21 f1       	breq	.+72     	; 0x1d2c <fat_dir_entry_read_callback+0x1e2>
    1ce4:	91 e0       	ldi	r25, 0x01	; 1
    1ce6:	98 0f       	add	r25, r24
    1ce8:	f6 01       	movw	r30, r12
    1cea:	e8 0f       	add	r30, r24
    1cec:	f1 1d       	adc	r31, r1
    1cee:	2e e2       	ldi	r18, 0x2E	; 46
    1cf0:	20 83       	st	Z, r18
    1cf2:	f5 01       	movw	r30, r10
    1cf4:	38 96       	adiw	r30, 0x08	; 8
    1cf6:	8c 5f       	subi	r24, 0xFC	; 252
    1cf8:	20 81       	ld	r18, Z
    1cfa:	20 32       	cpi	r18, 0x20	; 32
    1cfc:	b1 f0       	breq	.+44     	; 0x1d2a <fat_dir_entry_read_callback+0x1e0>
    1cfe:	a6 01       	movw	r20, r12
    1d00:	49 0f       	add	r20, r25
    1d02:	51 1d       	adc	r21, r1
    1d04:	da 01       	movw	r26, r20
    1d06:	2c 93       	st	X, r18
    1d08:	d5 01       	movw	r26, r10
    1d0a:	1c 96       	adiw	r26, 0x0c	; 12
    1d0c:	3c 91       	ld	r19, X
    1d0e:	34 ff       	sbrs	r19, 4
    1d10:	07 c0       	rjmp	.+14     	; 0x1d20 <fat_dir_entry_read_callback+0x1d6>
    1d12:	30 81       	ld	r19, Z
    1d14:	31 54       	subi	r19, 0x41	; 65
    1d16:	3a 31       	cpi	r19, 0x1A	; 26
    1d18:	18 f4       	brcc	.+6      	; 0x1d20 <fat_dir_entry_read_callback+0x1d6>
    1d1a:	20 5e       	subi	r18, 0xE0	; 224
    1d1c:	da 01       	movw	r26, r20
    1d1e:	2c 93       	st	X, r18
    1d20:	9f 5f       	subi	r25, 0xFF	; 255
    1d22:	31 96       	adiw	r30, 0x01	; 1
    1d24:	98 13       	cpse	r25, r24
    1d26:	e8 cf       	rjmp	.-48     	; 0x1cf8 <fat_dir_entry_read_callback+0x1ae>
    1d28:	01 c0       	rjmp	.+2      	; 0x1d2c <fat_dir_entry_read_callback+0x1e2>
    1d2a:	89 2f       	mov	r24, r25
    1d2c:	f6 01       	movw	r30, r12
    1d2e:	e8 0f       	add	r30, r24
    1d30:	f1 1d       	adc	r31, r1
    1d32:	10 82       	st	Z, r1
    1d34:	f5 01       	movw	r30, r10
    1d36:	83 85       	ldd	r24, Z+11	; 0x0b
    1d38:	d6 01       	movw	r26, r12
    1d3a:	90 96       	adiw	r26, 0x20	; 32
    1d3c:	8c 93       	st	X, r24
    1d3e:	c5 01       	movw	r24, r10
    1d40:	4a 96       	adiw	r24, 0x1a	; 26
    1d42:	0e 94 ad 05 	call	0xb5a	; 0xb5a <read16>
    1d46:	a0 e0       	ldi	r26, 0x00	; 0
    1d48:	b0 e0       	ldi	r27, 0x00	; 0
    1d4a:	f6 01       	movw	r30, r12
    1d4c:	81 a3       	std	Z+33, r24	; 0x21
    1d4e:	92 a3       	std	Z+34, r25	; 0x22
    1d50:	a3 a3       	std	Z+35, r26	; 0x23
    1d52:	b4 a3       	std	Z+36, r27	; 0x24
    1d54:	c5 01       	movw	r24, r10
    1d56:	44 96       	adiw	r24, 0x14	; 20
    1d58:	0e 94 ad 05 	call	0xb5a	; 0xb5a <read16>
    1d5c:	a0 e0       	ldi	r26, 0x00	; 0
    1d5e:	b0 e0       	ldi	r27, 0x00	; 0
    1d60:	dc 01       	movw	r26, r24
    1d62:	99 27       	eor	r25, r25
    1d64:	88 27       	eor	r24, r24
    1d66:	f6 01       	movw	r30, r12
    1d68:	41 a1       	ldd	r20, Z+33	; 0x21
    1d6a:	52 a1       	ldd	r21, Z+34	; 0x22
    1d6c:	63 a1       	ldd	r22, Z+35	; 0x23
    1d6e:	74 a1       	ldd	r23, Z+36	; 0x24
    1d70:	84 2b       	or	r24, r20
    1d72:	95 2b       	or	r25, r21
    1d74:	a6 2b       	or	r26, r22
    1d76:	b7 2b       	or	r27, r23
    1d78:	81 a3       	std	Z+33, r24	; 0x21
    1d7a:	92 a3       	std	Z+34, r25	; 0x22
    1d7c:	a3 a3       	std	Z+35, r26	; 0x23
    1d7e:	b4 a3       	std	Z+36, r27	; 0x24
    1d80:	c5 01       	movw	r24, r10
    1d82:	4c 96       	adiw	r24, 0x1c	; 28
    1d84:	0e 94 b7 05 	call	0xb6e	; 0xb6e <read32>
    1d88:	d6 01       	movw	r26, r12
    1d8a:	95 96       	adiw	r26, 0x25	; 37
    1d8c:	6d 93       	st	X+, r22
    1d8e:	7d 93       	st	X+, r23
    1d90:	8d 93       	st	X+, r24
    1d92:	9c 93       	st	X, r25
    1d94:	98 97       	sbiw	r26, 0x28	; 40
    1d96:	81 e0       	ldi	r24, 0x01	; 1
    1d98:	f7 01       	movw	r30, r14
    1d9a:	85 83       	std	Z+5, r24	; 0x05
    1d9c:	80 e0       	ldi	r24, 0x00	; 0
    1d9e:	2d 96       	adiw	r28, 0x0d	; 13
    1da0:	0f b6       	in	r0, 0x3f	; 63
    1da2:	f8 94       	cli
    1da4:	de bf       	out	0x3e, r29	; 62
    1da6:	0f be       	out	0x3f, r0	; 63
    1da8:	cd bf       	out	0x3d, r28	; 61
    1daa:	df 91       	pop	r29
    1dac:	cf 91       	pop	r28
    1dae:	1f 91       	pop	r17
    1db0:	0f 91       	pop	r16
    1db2:	ff 90       	pop	r15
    1db4:	ef 90       	pop	r14
    1db6:	df 90       	pop	r13
    1db8:	cf 90       	pop	r12
    1dba:	bf 90       	pop	r11
    1dbc:	af 90       	pop	r10
    1dbe:	9f 90       	pop	r9
    1dc0:	8f 90       	pop	r8
    1dc2:	7f 90       	pop	r7
    1dc4:	6f 90       	pop	r6
    1dc6:	5f 90       	pop	r5
    1dc8:	4f 90       	pop	r4
    1dca:	08 95       	ret

00001dcc <fat_write_dir_entry>:
    1dcc:	2f 92       	push	r2
    1dce:	3f 92       	push	r3
    1dd0:	4f 92       	push	r4
    1dd2:	5f 92       	push	r5
    1dd4:	6f 92       	push	r6
    1dd6:	7f 92       	push	r7
    1dd8:	8f 92       	push	r8
    1dda:	9f 92       	push	r9
    1ddc:	af 92       	push	r10
    1dde:	bf 92       	push	r11
    1de0:	cf 92       	push	r12
    1de2:	df 92       	push	r13
    1de4:	ef 92       	push	r14
    1de6:	ff 92       	push	r15
    1de8:	0f 93       	push	r16
    1dea:	1f 93       	push	r17
    1dec:	cf 93       	push	r28
    1dee:	df 93       	push	r29
    1df0:	cd b7       	in	r28, 0x3d	; 61
    1df2:	de b7       	in	r29, 0x3e	; 62
    1df4:	a5 97       	sbiw	r28, 0x25	; 37
    1df6:	0f b6       	in	r0, 0x3f	; 63
    1df8:	f8 94       	cli
    1dfa:	de bf       	out	0x3e, r29	; 62
    1dfc:	0f be       	out	0x3f, r0	; 63
    1dfe:	cd bf       	out	0x3d, r28	; 61
    1e00:	00 97       	sbiw	r24, 0x00	; 0
    1e02:	11 f4       	brne	.+4      	; 0x1e08 <fat_write_dir_entry+0x3c>
    1e04:	80 e0       	ldi	r24, 0x00	; 0
    1e06:	49 c1       	rjmp	.+658    	; 0x209a <fat_write_dir_entry+0x2ce>
    1e08:	61 15       	cp	r22, r1
    1e0a:	71 05       	cpc	r23, r1
    1e0c:	d9 f3       	breq	.-10     	; 0x1e04 <fat_write_dir_entry+0x38>
    1e0e:	4b 01       	movw	r8, r22
    1e10:	fc 01       	movw	r30, r24
    1e12:	01 90       	ld	r0, Z+
    1e14:	f0 81       	ld	r31, Z
    1e16:	e0 2d       	mov	r30, r0
    1e18:	84 81       	ldd	r24, Z+4	; 0x04
    1e1a:	95 81       	ldd	r25, Z+5	; 0x05
    1e1c:	9d a3       	std	Y+37, r25	; 0x25
    1e1e:	8c a3       	std	Y+36, r24	; 0x24
    1e20:	db 01       	movw	r26, r22
    1e22:	99 96       	adiw	r26, 0x29	; 41
    1e24:	bc 91       	ld	r27, X
    1e26:	b9 a3       	std	Y+33, r27	; 0x21
    1e28:	fb 01       	movw	r30, r22
    1e2a:	f2 a5       	ldd	r31, Z+42	; 0x2a
    1e2c:	fa a3       	std	Y+34, r31	; 0x22
    1e2e:	db 01       	movw	r26, r22
    1e30:	9b 96       	adiw	r26, 0x2b	; 43
    1e32:	bc 91       	ld	r27, X
    1e34:	bb a3       	std	Y+35, r27	; 0x23
    1e36:	fb 01       	movw	r30, r22
    1e38:	64 a4       	ldd	r6, Z+44	; 0x2c
    1e3a:	55 a4       	ldd	r5, Z+45	; 0x2d
    1e3c:	46 a4       	ldd	r4, Z+46	; 0x2e
    1e3e:	37 a4       	ldd	r3, Z+47	; 0x2f
    1e40:	20 a8       	ldd	r2, Z+48	; 0x30
    1e42:	01 90       	ld	r0, Z+
    1e44:	00 20       	and	r0, r0
    1e46:	e9 f7       	brne	.-6      	; 0x1e42 <fat_write_dir_entry+0x76>
    1e48:	31 97       	sbiw	r30, 0x01	; 1
    1e4a:	6f 01       	movw	r12, r30
    1e4c:	c6 1a       	sub	r12, r22
    1e4e:	d7 0a       	sbc	r13, r23
    1e50:	1c 2d       	mov	r17, r12
    1e52:	c6 01       	movw	r24, r12
    1e54:	99 27       	eor	r25, r25
    1e56:	0c 96       	adiw	r24, 0x0c	; 12
    1e58:	6d e0       	ldi	r22, 0x0D	; 13
    1e5a:	70 e0       	ldi	r23, 0x00	; 0
    1e5c:	0e 94 57 37 	call	0x6eae	; 0x6eae <__divmodhi4>
    1e60:	76 2e       	mov	r7, r22
    1e62:	4b e0       	ldi	r20, 0x0B	; 11
    1e64:	50 e0       	ldi	r21, 0x00	; 0
    1e66:	60 e2       	ldi	r22, 0x20	; 32
    1e68:	70 e0       	ldi	r23, 0x00	; 0
    1e6a:	ce 01       	movw	r24, r28
    1e6c:	01 96       	adiw	r24, 0x01	; 1
    1e6e:	0e 94 e7 38 	call	0x71ce	; 0x71ce <memset>
    1e72:	6e e2       	ldi	r22, 0x2E	; 46
    1e74:	70 e0       	ldi	r23, 0x00	; 0
    1e76:	c4 01       	movw	r24, r8
    1e78:	0e 94 1f 39 	call	0x723e	; 0x723e <strrchr>
    1e7c:	00 97       	sbiw	r24, 0x00	; 0
    1e7e:	e1 f0       	breq	.+56     	; 0x1eb8 <fat_write_dir_entry+0xec>
    1e80:	dc 01       	movw	r26, r24
    1e82:	11 96       	adiw	r26, 0x01	; 1
    1e84:	2c 91       	ld	r18, X
    1e86:	22 23       	and	r18, r18
    1e88:	b9 f0       	breq	.+46     	; 0x1eb8 <fat_write_dir_entry+0xec>
    1e8a:	bc 01       	movw	r22, r24
    1e8c:	6f 5f       	subi	r22, 0xFF	; 255
    1e8e:	7f 4f       	sbci	r23, 0xFF	; 255
    1e90:	fb 01       	movw	r30, r22
    1e92:	01 90       	ld	r0, Z+
    1e94:	00 20       	and	r0, r0
    1e96:	e9 f7       	brne	.-6      	; 0x1e92 <fat_write_dir_entry+0xc6>
    1e98:	31 97       	sbiw	r30, 0x01	; 1
    1e9a:	e6 1b       	sub	r30, r22
    1e9c:	f7 0b       	sbc	r31, r23
    1e9e:	4f ef       	ldi	r20, 0xFF	; 255
    1ea0:	4c 0d       	add	r20, r12
    1ea2:	14 2f       	mov	r17, r20
    1ea4:	1e 1b       	sub	r17, r30
    1ea6:	e4 30       	cpi	r30, 0x04	; 4
    1ea8:	08 f0       	brcs	.+2      	; 0x1eac <fat_write_dir_entry+0xe0>
    1eaa:	e3 e0       	ldi	r30, 0x03	; 3
    1eac:	4e 2f       	mov	r20, r30
    1eae:	50 e0       	ldi	r21, 0x00	; 0
    1eb0:	ce 01       	movw	r24, r28
    1eb2:	09 96       	adiw	r24, 0x09	; 9
    1eb4:	0e 94 de 38 	call	0x71bc	; 0x71bc <memcpy>
    1eb8:	19 30       	cpi	r17, 0x09	; 9
    1eba:	98 f4       	brcc	.+38     	; 0x1ee2 <fat_write_dir_entry+0x116>
    1ebc:	41 2f       	mov	r20, r17
    1ebe:	50 e0       	ldi	r21, 0x00	; 0
    1ec0:	b4 01       	movw	r22, r8
    1ec2:	ce 01       	movw	r24, r28
    1ec4:	01 96       	adiw	r24, 0x01	; 1
    1ec6:	0e 94 de 38 	call	0x71bc	; 0x71bc <memcpy>
    1eca:	f4 01       	movw	r30, r8
    1ecc:	80 81       	ld	r24, Z
    1ece:	8e 32       	cpi	r24, 0x2E	; 46
    1ed0:	19 f5       	brne	.+70     	; 0x1f18 <fat_write_dir_entry+0x14c>
    1ed2:	81 81       	ldd	r24, Z+1	; 0x01
    1ed4:	8e 32       	cpi	r24, 0x2E	; 46
    1ed6:	09 f4       	brne	.+2      	; 0x1eda <fat_write_dir_entry+0x10e>
    1ed8:	82 81       	ldd	r24, Z+2	; 0x02
    1eda:	81 11       	cpse	r24, r1
    1edc:	1d c0       	rjmp	.+58     	; 0x1f18 <fat_write_dir_entry+0x14c>
    1ede:	71 2c       	mov	r7, r1
    1ee0:	1b c0       	rjmp	.+54     	; 0x1f18 <fat_write_dir_entry+0x14c>
    1ee2:	88 e0       	ldi	r24, 0x08	; 8
    1ee4:	f4 01       	movw	r30, r8
    1ee6:	de 01       	movw	r26, r28
    1ee8:	11 96       	adiw	r26, 0x01	; 1
    1eea:	01 90       	ld	r0, Z+
    1eec:	0d 92       	st	X+, r0
    1eee:	8a 95       	dec	r24
    1ef0:	e1 f7       	brne	.-8      	; 0x1eea <fat_write_dir_entry+0x11e>
    1ef2:	d4 01       	movw	r26, r8
    1ef4:	91 96       	adiw	r26, 0x21	; 33
    1ef6:	8c 91       	ld	r24, X
    1ef8:	98 2f       	mov	r25, r24
    1efa:	92 95       	swap	r25
    1efc:	9f 70       	andi	r25, 0x0F	; 15
    1efe:	80 3a       	cpi	r24, 0xA0	; 160
    1f00:	10 f4       	brcc	.+4      	; 0x1f06 <fat_write_dir_entry+0x13a>
    1f02:	90 5d       	subi	r25, 0xD0	; 208
    1f04:	01 c0       	rjmp	.+2      	; 0x1f08 <fat_write_dir_entry+0x13c>
    1f06:	9f 59       	subi	r25, 0x9F	; 159
    1f08:	9f 83       	std	Y+7, r25	; 0x07
    1f0a:	8f 70       	andi	r24, 0x0F	; 15
    1f0c:	8a 30       	cpi	r24, 0x0A	; 10
    1f0e:	10 f4       	brcc	.+4      	; 0x1f14 <fat_write_dir_entry+0x148>
    1f10:	80 5d       	subi	r24, 0xD0	; 208
    1f12:	01 c0       	rjmp	.+2      	; 0x1f16 <fat_write_dir_entry+0x14a>
    1f14:	8f 59       	subi	r24, 0x9F	; 159
    1f16:	88 87       	std	Y+8, r24	; 0x08
    1f18:	89 81       	ldd	r24, Y+1	; 0x01
    1f1a:	85 3e       	cpi	r24, 0xE5	; 229
    1f1c:	11 f4       	brne	.+4      	; 0x1f22 <fat_write_dir_entry+0x156>
    1f1e:	85 e0       	ldi	r24, 0x05	; 5
    1f20:	89 83       	std	Y+1, r24	; 0x01
    1f22:	fe 01       	movw	r30, r28
    1f24:	3c 96       	adiw	r30, 0x0c	; 12
    1f26:	85 e1       	ldi	r24, 0x15	; 21
    1f28:	df 01       	movw	r26, r30
    1f2a:	1d 92       	st	X+, r1
    1f2c:	8a 95       	dec	r24
    1f2e:	e9 f7       	brne	.-6      	; 0x1f2a <fat_write_dir_entry+0x15e>
    1f30:	f4 01       	movw	r30, r8
    1f32:	80 a1       	ldd	r24, Z+32	; 0x20
    1f34:	8c 87       	std	Y+12, r24	; 0x0c
    1f36:	81 a1       	ldd	r24, Z+33	; 0x21
    1f38:	92 a1       	ldd	r25, Z+34	; 0x22
    1f3a:	a3 a1       	ldd	r26, Z+35	; 0x23
    1f3c:	b4 a1       	ldd	r27, Z+36	; 0x24
    1f3e:	bd 01       	movw	r22, r26
    1f40:	88 27       	eor	r24, r24
    1f42:	99 27       	eor	r25, r25
    1f44:	ce 01       	movw	r24, r28
    1f46:	45 96       	adiw	r24, 0x15	; 21
    1f48:	0e 94 c9 05 	call	0xb92	; 0xb92 <write16>
    1f4c:	d4 01       	movw	r26, r8
    1f4e:	91 96       	adiw	r26, 0x21	; 33
    1f50:	6d 91       	ld	r22, X+
    1f52:	7c 91       	ld	r23, X
    1f54:	92 97       	sbiw	r26, 0x22	; 34
    1f56:	ce 01       	movw	r24, r28
    1f58:	4b 96       	adiw	r24, 0x1b	; 27
    1f5a:	0e 94 c9 05 	call	0xb92	; 0xb92 <write16>
    1f5e:	f4 01       	movw	r30, r8
    1f60:	45 a1       	ldd	r20, Z+37	; 0x25
    1f62:	56 a1       	ldd	r21, Z+38	; 0x26
    1f64:	67 a1       	ldd	r22, Z+39	; 0x27
    1f66:	70 a5       	ldd	r23, Z+40	; 0x28
    1f68:	ce 01       	movw	r24, r28
    1f6a:	4d 96       	adiw	r24, 0x1d	; 29
    1f6c:	0e 94 cd 05 	call	0xb9a	; 0xb9a <write32>
    1f70:	f0 e2       	ldi	r31, 0x20	; 32
    1f72:	7f 9e       	mul	r7, r31
    1f74:	a0 01       	movw	r20, r0
    1f76:	11 24       	eor	r1, r1
    1f78:	9a 01       	movw	r18, r20
    1f7a:	40 e0       	ldi	r20, 0x00	; 0
    1f7c:	50 e0       	ldi	r21, 0x00	; 0
    1f7e:	60 e0       	ldi	r22, 0x00	; 0
    1f80:	70 e0       	ldi	r23, 0x00	; 0
    1f82:	80 e0       	ldi	r24, 0x00	; 0
    1f84:	90 e0       	ldi	r25, 0x00	; 0
    1f86:	a9 a0       	ldd	r10, Y+33	; 0x21
    1f88:	ba a0       	ldd	r11, Y+34	; 0x22
    1f8a:	cb a0       	ldd	r12, Y+35	; 0x23
    1f8c:	d6 2c       	mov	r13, r6
    1f8e:	e5 2c       	mov	r14, r5
    1f90:	f4 2c       	mov	r15, r4
    1f92:	03 2d       	mov	r16, r3
    1f94:	12 2d       	mov	r17, r2
    1f96:	0e 94 40 38 	call	0x7080	; 0x7080 <__adddi3>
    1f9a:	e0 e2       	ldi	r30, 0x20	; 32
    1f9c:	ee 2e       	mov	r14, r30
    1f9e:	f1 2c       	mov	r15, r1
    1fa0:	8e 01       	movw	r16, r28
    1fa2:	0f 5f       	subi	r16, 0xFF	; 255
    1fa4:	1f 4f       	sbci	r17, 0xFF	; 255
    1fa6:	ec a1       	ldd	r30, Y+36	; 0x24
    1fa8:	fd a1       	ldd	r31, Y+37	; 0x25
    1faa:	09 95       	icall
    1fac:	88 23       	and	r24, r24
    1fae:	09 f4       	brne	.+2      	; 0x1fb2 <fat_write_dir_entry+0x1e6>
    1fb0:	29 cf       	rjmp	.-430    	; 0x1e04 <fat_write_dir_entry+0x38>
    1fb2:	c8 01       	movw	r24, r16
    1fb4:	0e 94 91 0d 	call	0x1b22	; 0x1b22 <fat_calc_83_checksum>
    1fb8:	c8 2e       	mov	r12, r24
    1fba:	d7 2c       	mov	r13, r7
    1fbc:	9d e0       	ldi	r25, 0x0D	; 13
    1fbe:	b9 2e       	mov	r11, r25
    1fc0:	2f e0       	ldi	r18, 0x0F	; 15
    1fc2:	a2 2e       	mov	r10, r18
    1fc4:	dd 20       	and	r13, r13
    1fc6:	09 f4       	brne	.+2      	; 0x1fca <fat_write_dir_entry+0x1fe>
    1fc8:	67 c0       	rjmp	.+206    	; 0x2098 <fat_write_dir_entry+0x2cc>
    1fca:	40 e2       	ldi	r20, 0x20	; 32
    1fcc:	50 e0       	ldi	r21, 0x00	; 0
    1fce:	6f ef       	ldi	r22, 0xFF	; 255
    1fd0:	70 e0       	ldi	r23, 0x00	; 0
    1fd2:	ce 01       	movw	r24, r28
    1fd4:	01 96       	adiw	r24, 0x01	; 1
    1fd6:	0e 94 e7 38 	call	0x71ce	; 0x71ce <memset>
    1fda:	8d 2d       	mov	r24, r13
    1fdc:	90 e0       	ldi	r25, 0x00	; 0
    1fde:	01 97       	sbiw	r24, 0x01	; 1
    1fe0:	b8 9e       	mul	r11, r24
    1fe2:	f0 01       	movw	r30, r0
    1fe4:	b9 9e       	mul	r11, r25
    1fe6:	f0 0d       	add	r31, r0
    1fe8:	11 24       	eor	r1, r1
    1fea:	e8 0d       	add	r30, r8
    1fec:	f9 1d       	adc	r31, r9
    1fee:	81 e0       	ldi	r24, 0x01	; 1
    1ff0:	91 e0       	ldi	r25, 0x01	; 1
    1ff2:	98 0f       	add	r25, r24
    1ff4:	bf 01       	movw	r22, r30
    1ff6:	40 81       	ld	r20, Z
    1ff8:	21 e0       	ldi	r18, 0x01	; 1
    1ffa:	30 e0       	ldi	r19, 0x00	; 0
    1ffc:	2c 0f       	add	r18, r28
    1ffe:	3d 1f       	adc	r19, r29
    2000:	28 0f       	add	r18, r24
    2002:	31 1d       	adc	r19, r1
    2004:	d9 01       	movw	r26, r18
    2006:	4c 93       	st	X, r20
    2008:	8e 5f       	subi	r24, 0xFE	; 254
    200a:	21 e0       	ldi	r18, 0x01	; 1
    200c:	30 e0       	ldi	r19, 0x00	; 0
    200e:	2c 0f       	add	r18, r28
    2010:	3d 1f       	adc	r19, r29
    2012:	29 0f       	add	r18, r25
    2014:	31 1d       	adc	r19, r1
    2016:	d9 01       	movw	r26, r18
    2018:	1c 92       	st	X, r1
    201a:	8b 30       	cpi	r24, 0x0B	; 11
    201c:	21 f0       	breq	.+8      	; 0x2026 <fat_write_dir_entry+0x25a>
    201e:	8a 31       	cpi	r24, 0x1A	; 26
    2020:	19 f4       	brne	.+6      	; 0x2028 <fat_write_dir_entry+0x25c>
    2022:	8c e1       	ldi	r24, 0x1C	; 28
    2024:	01 c0       	rjmp	.+2      	; 0x2028 <fat_write_dir_entry+0x25c>
    2026:	8e e0       	ldi	r24, 0x0E	; 14
    2028:	31 96       	adiw	r30, 0x01	; 1
    202a:	db 01       	movw	r26, r22
    202c:	9c 91       	ld	r25, X
    202e:	99 23       	and	r25, r25
    2030:	11 f0       	breq	.+4      	; 0x2036 <fat_write_dir_entry+0x26a>
    2032:	8f 31       	cpi	r24, 0x1F	; 31
    2034:	e8 f2       	brcs	.-70     	; 0x1ff0 <fat_write_dir_entry+0x224>
    2036:	d9 82       	std	Y+1, r13	; 0x01
    2038:	d7 10       	cpse	r13, r7
    203a:	03 c0       	rjmp	.+6      	; 0x2042 <fat_write_dir_entry+0x276>
    203c:	8d 2d       	mov	r24, r13
    203e:	80 64       	ori	r24, 0x40	; 64
    2040:	89 83       	std	Y+1, r24	; 0x01
    2042:	ac 86       	std	Y+12, r10	; 0x0c
    2044:	ce 86       	std	Y+14, r12	; 0x0e
    2046:	1d 86       	std	Y+13, r1	; 0x0d
    2048:	1b 8e       	std	Y+27, r1	; 0x1b
    204a:	1c 8e       	std	Y+28, r1	; 0x1c
    204c:	80 e2       	ldi	r24, 0x20	; 32
    204e:	e8 2e       	mov	r14, r24
    2050:	f1 2c       	mov	r15, r1
    2052:	8e 01       	movw	r16, r28
    2054:	0f 5f       	subi	r16, 0xFF	; 255
    2056:	1f 4f       	sbci	r17, 0xFF	; 255
    2058:	29 a1       	ldd	r18, Y+33	; 0x21
    205a:	3a a1       	ldd	r19, Y+34	; 0x22
    205c:	4b a1       	ldd	r20, Y+35	; 0x23
    205e:	56 2d       	mov	r21, r6
    2060:	65 2d       	mov	r22, r5
    2062:	74 2d       	mov	r23, r4
    2064:	83 2d       	mov	r24, r3
    2066:	92 2d       	mov	r25, r2
    2068:	ec a1       	ldd	r30, Y+36	; 0x24
    206a:	fd a1       	ldd	r31, Y+37	; 0x25
    206c:	09 95       	icall
    206e:	29 a1       	ldd	r18, Y+33	; 0x21
    2070:	3a a1       	ldd	r19, Y+34	; 0x22
    2072:	4b a1       	ldd	r20, Y+35	; 0x23
    2074:	56 2d       	mov	r21, r6
    2076:	65 2d       	mov	r22, r5
    2078:	74 2d       	mov	r23, r4
    207a:	83 2d       	mov	r24, r3
    207c:	92 2d       	mov	r25, r2
    207e:	a0 e2       	ldi	r26, 0x20	; 32
    2080:	0e 94 49 38 	call	0x7092	; 0x7092 <__adddi3_s8>
    2084:	29 a3       	std	Y+33, r18	; 0x21
    2086:	3a a3       	std	Y+34, r19	; 0x22
    2088:	4b a3       	std	Y+35, r20	; 0x23
    208a:	65 2e       	mov	r6, r21
    208c:	56 2e       	mov	r5, r22
    208e:	47 2e       	mov	r4, r23
    2090:	38 2e       	mov	r3, r24
    2092:	29 2e       	mov	r2, r25
    2094:	da 94       	dec	r13
    2096:	96 cf       	rjmp	.-212    	; 0x1fc4 <fat_write_dir_entry+0x1f8>
    2098:	81 e0       	ldi	r24, 0x01	; 1
    209a:	a5 96       	adiw	r28, 0x25	; 37
    209c:	0f b6       	in	r0, 0x3f	; 63
    209e:	f8 94       	cli
    20a0:	de bf       	out	0x3e, r29	; 62
    20a2:	0f be       	out	0x3f, r0	; 63
    20a4:	cd bf       	out	0x3d, r28	; 61
    20a6:	df 91       	pop	r29
    20a8:	cf 91       	pop	r28
    20aa:	1f 91       	pop	r17
    20ac:	0f 91       	pop	r16
    20ae:	ff 90       	pop	r15
    20b0:	ef 90       	pop	r14
    20b2:	df 90       	pop	r13
    20b4:	cf 90       	pop	r12
    20b6:	bf 90       	pop	r11
    20b8:	af 90       	pop	r10
    20ba:	9f 90       	pop	r9
    20bc:	8f 90       	pop	r8
    20be:	7f 90       	pop	r7
    20c0:	6f 90       	pop	r6
    20c2:	5f 90       	pop	r5
    20c4:	4f 90       	pop	r4
    20c6:	3f 90       	pop	r3
    20c8:	2f 90       	pop	r2
    20ca:	08 95       	ret

000020cc <fat_clear_cluster>:
    20cc:	af 92       	push	r10
    20ce:	bf 92       	push	r11
    20d0:	cf 92       	push	r12
    20d2:	df 92       	push	r13
    20d4:	ef 92       	push	r14
    20d6:	ff 92       	push	r15
    20d8:	0f 93       	push	r16
    20da:	1f 93       	push	r17
    20dc:	cf 93       	push	r28
    20de:	df 93       	push	r29
    20e0:	cd b7       	in	r28, 0x3d	; 61
    20e2:	de b7       	in	r29, 0x3e	; 62
    20e4:	60 97       	sbiw	r28, 0x10	; 16
    20e6:	0f b6       	in	r0, 0x3f	; 63
    20e8:	f8 94       	cli
    20ea:	de bf       	out	0x3e, r29	; 62
    20ec:	0f be       	out	0x3f, r0	; 63
    20ee:	cd bf       	out	0x3d, r28	; 61
    20f0:	42 30       	cpi	r20, 0x02	; 2
    20f2:	51 05       	cpc	r21, r1
    20f4:	61 05       	cpc	r22, r1
    20f6:	71 05       	cpc	r23, r1
    20f8:	f0 f0       	brcs	.+60     	; 0x2136 <fat_clear_cluster+0x6a>
    20fa:	7c 01       	movw	r14, r24
    20fc:	0e 94 55 0d 	call	0x1aaa	; 0x1aaa <fat_cluster_offset>
    2100:	8e 01       	movw	r16, r28
    2102:	0f 5f       	subi	r16, 0xFF	; 255
    2104:	1f 4f       	sbci	r17, 0xFF	; 255
    2106:	e0 e1       	ldi	r30, 0x10	; 16
    2108:	d8 01       	movw	r26, r16
    210a:	1d 92       	st	X+, r1
    210c:	ea 95       	dec	r30
    210e:	e9 f7       	brne	.-6      	; 0x210a <fat_clear_cluster+0x3e>
    2110:	d7 01       	movw	r26, r14
    2112:	ed 91       	ld	r30, X+
    2114:	fc 91       	ld	r31, X
    2116:	11 97       	sbiw	r26, 0x01	; 1
    2118:	58 96       	adiw	r26, 0x18	; 24
    211a:	ed 90       	ld	r14, X+
    211c:	fc 90       	ld	r15, X
    211e:	59 97       	sbiw	r26, 0x19	; 25
    2120:	06 80       	ldd	r0, Z+6	; 0x06
    2122:	f7 81       	ldd	r31, Z+7	; 0x07
    2124:	e0 2d       	mov	r30, r0
    2126:	a1 2c       	mov	r10, r1
    2128:	b1 2c       	mov	r11, r1
    212a:	a2 e5       	ldi	r26, 0x52	; 82
    212c:	ca 2e       	mov	r12, r26
    212e:	ad e0       	ldi	r26, 0x0D	; 13
    2130:	da 2e       	mov	r13, r26
    2132:	09 95       	icall
    2134:	01 c0       	rjmp	.+2      	; 0x2138 <fat_clear_cluster+0x6c>
    2136:	80 e0       	ldi	r24, 0x00	; 0
    2138:	60 96       	adiw	r28, 0x10	; 16
    213a:	0f b6       	in	r0, 0x3f	; 63
    213c:	f8 94       	cli
    213e:	de bf       	out	0x3e, r29	; 62
    2140:	0f be       	out	0x3f, r0	; 63
    2142:	cd bf       	out	0x3d, r28	; 61
    2144:	df 91       	pop	r29
    2146:	cf 91       	pop	r28
    2148:	1f 91       	pop	r17
    214a:	0f 91       	pop	r16
    214c:	ff 90       	pop	r15
    214e:	ef 90       	pop	r14
    2150:	df 90       	pop	r13
    2152:	cf 90       	pop	r12
    2154:	bf 90       	pop	r11
    2156:	af 90       	pop	r10
    2158:	08 95       	ret

0000215a <fat_find_offset_for_dir_entry.isra.1>:
    215a:	2f 92       	push	r2
    215c:	3f 92       	push	r3
    215e:	4f 92       	push	r4
    2160:	5f 92       	push	r5
    2162:	6f 92       	push	r6
    2164:	7f 92       	push	r7
    2166:	8f 92       	push	r8
    2168:	9f 92       	push	r9
    216a:	af 92       	push	r10
    216c:	bf 92       	push	r11
    216e:	cf 92       	push	r12
    2170:	df 92       	push	r13
    2172:	ef 92       	push	r14
    2174:	ff 92       	push	r15
    2176:	0f 93       	push	r16
    2178:	1f 93       	push	r17
    217a:	cf 93       	push	r28
    217c:	df 93       	push	r29
    217e:	cd b7       	in	r28, 0x3d	; 61
    2180:	de b7       	in	r29, 0x3e	; 62
    2182:	a0 97       	sbiw	r28, 0x20	; 32
    2184:	0f b6       	in	r0, 0x3f	; 63
    2186:	f8 94       	cli
    2188:	de bf       	out	0x3e, r29	; 62
    218a:	0f be       	out	0x3f, r0	; 63
    218c:	cd bf       	out	0x3d, r28	; 61
    218e:	fc 01       	movw	r30, r24
    2190:	9b 01       	movw	r18, r22
    2192:	89 2b       	or	r24, r25
    2194:	09 f4       	brne	.+2      	; 0x2198 <fat_find_offset_for_dir_entry.isra.1+0x3e>
    2196:	53 c1       	rjmp	.+678    	; 0x243e <fat_find_offset_for_dir_entry.isra.1+0x2e4>
    2198:	41 15       	cp	r20, r1
    219a:	51 05       	cpc	r21, r1
    219c:	09 f4       	brne	.+2      	; 0x21a0 <fat_find_offset_for_dir_entry.isra.1+0x46>
    219e:	4f c1       	rjmp	.+670    	; 0x243e <fat_find_offset_for_dir_entry.isra.1+0x2e4>
    21a0:	da 01       	movw	r26, r20
    21a2:	0d 90       	ld	r0, X+
    21a4:	00 20       	and	r0, r0
    21a6:	e9 f7       	brne	.-6      	; 0x21a2 <fat_find_offset_for_dir_entry.isra.1+0x48>
    21a8:	cd 01       	movw	r24, r26
    21aa:	84 1b       	sub	r24, r20
    21ac:	95 0b       	sbc	r25, r21
    21ae:	0b 96       	adiw	r24, 0x0b	; 11
    21b0:	6d e0       	ldi	r22, 0x0D	; 13
    21b2:	70 e0       	ldi	r23, 0x00	; 0
    21b4:	0e 94 43 37 	call	0x6e86	; 0x6e86 <__udivmodhi4>
    21b8:	6f 5f       	subi	r22, 0xFF	; 255
    21ba:	68 a3       	std	Y+32, r22	; 0x20
    21bc:	d9 01       	movw	r26, r18
    21be:	4d 91       	ld	r20, X+
    21c0:	5d 91       	ld	r21, X+
    21c2:	6d 91       	ld	r22, X+
    21c4:	7c 91       	ld	r23, X
    21c6:	4c 87       	std	Y+12, r20	; 0x0c
    21c8:	5d 87       	std	Y+13, r21	; 0x0d
    21ca:	6e 87       	std	Y+14, r22	; 0x0e
    21cc:	7f 87       	std	Y+15, r23	; 0x0f
    21ce:	a0 81       	ld	r26, Z
    21d0:	b1 81       	ldd	r27, Z+1	; 0x01
    21d2:	18 96       	adiw	r26, 0x08	; 8
    21d4:	8c 91       	ld	r24, X
    21d6:	45 2b       	or	r20, r21
    21d8:	46 2b       	or	r20, r22
    21da:	47 2b       	or	r20, r23
    21dc:	21 f5       	brne	.+72     	; 0x2226 <fat_find_offset_for_dir_entry.isra.1+0xcc>
    21de:	8b 30       	cpi	r24, 0x0B	; 11
    21e0:	49 f4       	brne	.+18     	; 0x21f4 <fat_find_offset_for_dir_entry.isra.1+0x9a>
    21e2:	02 a5       	ldd	r16, Z+42	; 0x2a
    21e4:	13 a5       	ldd	r17, Z+43	; 0x2b
    21e6:	24 a5       	ldd	r18, Z+44	; 0x2c
    21e8:	35 a5       	ldd	r19, Z+45	; 0x2d
    21ea:	0c 87       	std	Y+12, r16	; 0x0c
    21ec:	1d 87       	std	Y+13, r17	; 0x0d
    21ee:	2e 87       	std	Y+14, r18	; 0x0e
    21f0:	3f 87       	std	Y+15, r19	; 0x0f
    21f2:	19 c0       	rjmp	.+50     	; 0x2226 <fat_find_offset_for_dir_entry.isra.1+0xcc>
    21f4:	42 a0       	ldd	r4, Z+34	; 0x22
    21f6:	53 a0       	ldd	r5, Z+35	; 0x23
    21f8:	64 a0       	ldd	r6, Z+36	; 0x24
    21fa:	75 a0       	ldd	r7, Z+37	; 0x25
    21fc:	86 a0       	ldd	r8, Z+38	; 0x26
    21fe:	97 a0       	ldd	r9, Z+39	; 0x27
    2200:	20 a4       	ldd	r2, Z+40	; 0x28
    2202:	31 a4       	ldd	r3, Z+41	; 0x29
    2204:	12 8d       	ldd	r17, Z+26	; 0x1a
    2206:	18 8f       	std	Y+24, r17	; 0x18
    2208:	23 8d       	ldd	r18, Z+27	; 0x1b
    220a:	29 8f       	std	Y+25, r18	; 0x19
    220c:	34 8d       	ldd	r19, Z+28	; 0x1c
    220e:	3a 8f       	std	Y+26, r19	; 0x1a
    2210:	45 8d       	ldd	r20, Z+29	; 0x1d
    2212:	4b 8f       	std	Y+27, r20	; 0x1b
    2214:	56 8d       	ldd	r21, Z+30	; 0x1e
    2216:	5c 8f       	std	Y+28, r21	; 0x1c
    2218:	67 8d       	ldd	r22, Z+31	; 0x1f
    221a:	6d 8f       	std	Y+29, r22	; 0x1d
    221c:	70 a1       	ldd	r23, Z+32	; 0x20
    221e:	7e 8f       	std	Y+30, r23	; 0x1e
    2220:	81 a1       	ldd	r24, Z+33	; 0x21
    2222:	8f 8f       	std	Y+31, r24	; 0x1f
    2224:	10 c0       	rjmp	.+32     	; 0x2246 <fat_find_offset_for_dir_entry.isra.1+0xec>
    2226:	18 8e       	std	Y+24, r1	; 0x18
    2228:	19 8e       	std	Y+25, r1	; 0x19
    222a:	1a 8e       	std	Y+26, r1	; 0x1a
    222c:	1b 8e       	std	Y+27, r1	; 0x1b
    222e:	1c 8e       	std	Y+28, r1	; 0x1c
    2230:	1d 8e       	std	Y+29, r1	; 0x1d
    2232:	1e 8e       	std	Y+30, r1	; 0x1e
    2234:	1f 8e       	std	Y+31, r1	; 0x1f
    2236:	41 2c       	mov	r4, r1
    2238:	51 2c       	mov	r5, r1
    223a:	61 2c       	mov	r6, r1
    223c:	71 2c       	mov	r7, r1
    223e:	81 2c       	mov	r8, r1
    2240:	91 2c       	mov	r9, r1
    2242:	21 2c       	mov	r2, r1
    2244:	31 2c       	mov	r3, r1
    2246:	fb 83       	std	Y+3, r31	; 0x03
    2248:	ea 83       	std	Y+2, r30	; 0x02
    224a:	48 8a       	std	Y+16, r4	; 0x10
    224c:	59 8a       	std	Y+17, r5	; 0x11
    224e:	6a 8a       	std	Y+18, r6	; 0x12
    2250:	7b 8a       	std	Y+19, r7	; 0x13
    2252:	8c 8a       	std	Y+20, r8	; 0x14
    2254:	9d 8a       	std	Y+21, r9	; 0x15
    2256:	2e 8a       	std	Y+22, r2	; 0x16
    2258:	3f 8a       	std	Y+23, r3	; 0x17
    225a:	1c 82       	std	Y+4, r1	; 0x04
    225c:	92 01       	movw	r18, r4
    225e:	a3 01       	movw	r20, r6
    2260:	b4 01       	movw	r22, r8
    2262:	c1 01       	movw	r24, r2
    2264:	a8 8c       	ldd	r10, Y+24	; 0x18
    2266:	b9 8c       	ldd	r11, Y+25	; 0x19
    2268:	ca 8c       	ldd	r12, Y+26	; 0x1a
    226a:	db 8c       	ldd	r13, Y+27	; 0x1b
    226c:	ec 8c       	ldd	r14, Y+28	; 0x1c
    226e:	fd 8c       	ldd	r15, Y+29	; 0x1d
    2270:	0e 8d       	ldd	r16, Y+30	; 0x1e
    2272:	1f 8d       	ldd	r17, Y+31	; 0x1f
    2274:	0e 94 5e 38 	call	0x70bc	; 0x70bc <__cmpdi2>
    2278:	09 f0       	breq	.+2      	; 0x227c <fat_find_offset_for_dir_entry.isra.1+0x122>
    227a:	99 c0       	rjmp	.+306    	; 0x23ae <fat_find_offset_for_dir_entry.isra.1+0x254>
    227c:	0c 85       	ldd	r16, Y+12	; 0x0c
    227e:	1d 85       	ldd	r17, Y+13	; 0x0d
    2280:	2e 85       	ldd	r18, Y+14	; 0x0e
    2282:	3f 85       	ldd	r19, Y+15	; 0x0f
    2284:	01 2b       	or	r16, r17
    2286:	02 2b       	or	r16, r18
    2288:	03 2b       	or	r16, r19
    228a:	09 f4       	brne	.+2      	; 0x228e <fat_find_offset_for_dir_entry.isra.1+0x134>
    228c:	d8 c0       	rjmp	.+432    	; 0x243e <fat_find_offset_for_dir_entry.isra.1+0x2e4>
    228e:	92 01       	movw	r18, r4
    2290:	a0 e0       	ldi	r26, 0x00	; 0
    2292:	0e 94 67 38 	call	0x70ce	; 0x70ce <__cmpdi2_s8>
    2296:	09 f4       	brne	.+2      	; 0x229a <fat_find_offset_for_dir_entry.isra.1+0x140>
    2298:	4d c0       	rjmp	.+154    	; 0x2334 <fat_find_offset_for_dir_entry.isra.1+0x1da>
    229a:	4c 85       	ldd	r20, Y+12	; 0x0c
    229c:	5d 85       	ldd	r21, Y+13	; 0x0d
    229e:	6e 85       	ldd	r22, Y+14	; 0x0e
    22a0:	7f 85       	ldd	r23, Y+15	; 0x0f
    22a2:	8a 81       	ldd	r24, Y+2	; 0x02
    22a4:	9b 81       	ldd	r25, Y+3	; 0x03
    22a6:	0e 94 73 09 	call	0x12e6	; 0x12e6 <fat_get_next_cluster>
    22aa:	61 15       	cp	r22, r1
    22ac:	71 05       	cpc	r23, r1
    22ae:	81 05       	cpc	r24, r1
    22b0:	91 05       	cpc	r25, r1
    22b2:	e1 f5       	brne	.+120    	; 0x232c <fat_find_offset_for_dir_entry.isra.1+0x1d2>
    22b4:	01 e0       	ldi	r16, 0x01	; 1
    22b6:	10 e0       	ldi	r17, 0x00	; 0
    22b8:	20 e0       	ldi	r18, 0x00	; 0
    22ba:	30 e0       	ldi	r19, 0x00	; 0
    22bc:	4c 85       	ldd	r20, Y+12	; 0x0c
    22be:	5d 85       	ldd	r21, Y+13	; 0x0d
    22c0:	6e 85       	ldd	r22, Y+14	; 0x0e
    22c2:	7f 85       	ldd	r23, Y+15	; 0x0f
    22c4:	8a 81       	ldd	r24, Y+2	; 0x02
    22c6:	9b 81       	ldd	r25, Y+3	; 0x03
    22c8:	0e 94 4a 0b 	call	0x1694	; 0x1694 <fat_append_clusters>
    22cc:	2b 01       	movw	r4, r22
    22ce:	3c 01       	movw	r6, r24
    22d0:	61 15       	cp	r22, r1
    22d2:	71 05       	cpc	r23, r1
    22d4:	81 05       	cpc	r24, r1
    22d6:	91 05       	cpc	r25, r1
    22d8:	09 f4       	brne	.+2      	; 0x22dc <fat_find_offset_for_dir_entry.isra.1+0x182>
    22da:	b1 c0       	rjmp	.+354    	; 0x243e <fat_find_offset_for_dir_entry.isra.1+0x2e4>
    22dc:	62 50       	subi	r22, 0x02	; 2
    22de:	71 09       	sbc	r23, r1
    22e0:	81 09       	sbc	r24, r1
    22e2:	91 09       	sbc	r25, r1
    22e4:	aa 81       	ldd	r26, Y+2	; 0x02
    22e6:	bb 81       	ldd	r27, Y+3	; 0x03
    22e8:	58 96       	adiw	r26, 0x18	; 24
    22ea:	2d 91       	ld	r18, X+
    22ec:	3c 91       	ld	r19, X
    22ee:	59 97       	sbiw	r26, 0x19	; 25
    22f0:	40 e0       	ldi	r20, 0x00	; 0
    22f2:	50 e0       	ldi	r21, 0x00	; 0
    22f4:	0e 94 f7 37 	call	0x6fee	; 0x6fee <__umulsidi3>
    22f8:	ea 81       	ldd	r30, Y+2	; 0x02
    22fa:	fb 81       	ldd	r31, Y+3	; 0x03
    22fc:	a2 8c       	ldd	r10, Z+26	; 0x1a
    22fe:	b3 8c       	ldd	r11, Z+27	; 0x1b
    2300:	c4 8c       	ldd	r12, Z+28	; 0x1c
    2302:	d5 8c       	ldd	r13, Z+29	; 0x1d
    2304:	e6 8c       	ldd	r14, Z+30	; 0x1e
    2306:	f7 8c       	ldd	r15, Z+31	; 0x1f
    2308:	00 a1       	ldd	r16, Z+32	; 0x20
    230a:	11 a1       	ldd	r17, Z+33	; 0x21
    230c:	0e 94 40 38 	call	0x7080	; 0x7080 <__adddi3>
    2310:	28 8b       	std	Y+16, r18	; 0x10
    2312:	39 8b       	std	Y+17, r19	; 0x11
    2314:	4a 8b       	std	Y+18, r20	; 0x12
    2316:	5b 8b       	std	Y+19, r21	; 0x13
    2318:	6c 8b       	std	Y+20, r22	; 0x14
    231a:	7d 8b       	std	Y+21, r23	; 0x15
    231c:	8e 8b       	std	Y+22, r24	; 0x16
    231e:	9f 8b       	std	Y+23, r25	; 0x17
    2320:	b3 01       	movw	r22, r6
    2322:	a2 01       	movw	r20, r4
    2324:	cf 01       	movw	r24, r30
    2326:	0e 94 66 10 	call	0x20cc	; 0x20cc <fat_clear_cluster>
    232a:	80 c0       	rjmp	.+256    	; 0x242c <fat_find_offset_for_dir_entry.isra.1+0x2d2>
    232c:	6c 87       	std	Y+12, r22	; 0x0c
    232e:	7d 87       	std	Y+13, r23	; 0x0d
    2330:	8e 87       	std	Y+14, r24	; 0x0e
    2332:	9f 87       	std	Y+15, r25	; 0x0f
    2334:	4c 85       	ldd	r20, Y+12	; 0x0c
    2336:	5d 85       	ldd	r21, Y+13	; 0x0d
    2338:	6e 85       	ldd	r22, Y+14	; 0x0e
    233a:	7f 85       	ldd	r23, Y+15	; 0x0f
    233c:	8a 81       	ldd	r24, Y+2	; 0x02
    233e:	9b 81       	ldd	r25, Y+3	; 0x03
    2340:	0e 94 55 0d 	call	0x1aaa	; 0x1aaa <fat_cluster_offset>
    2344:	29 01       	movw	r4, r18
    2346:	3a 01       	movw	r6, r20
    2348:	4b 01       	movw	r8, r22
    234a:	1c 01       	movw	r2, r24
    234c:	aa 81       	ldd	r26, Y+2	; 0x02
    234e:	bb 81       	ldd	r27, Y+3	; 0x03
    2350:	58 96       	adiw	r26, 0x18	; 24
    2352:	8d 91       	ld	r24, X+
    2354:	9c 91       	ld	r25, X
    2356:	59 97       	sbiw	r26, 0x19	; 25
    2358:	8c 01       	movw	r16, r24
    235a:	20 e0       	ldi	r18, 0x00	; 0
    235c:	30 e0       	ldi	r19, 0x00	; 0
    235e:	40 e0       	ldi	r20, 0x00	; 0
    2360:	50 e0       	ldi	r21, 0x00	; 0
    2362:	ba 01       	movw	r22, r20
    2364:	1d 83       	std	Y+5, r17	; 0x05
    2366:	2e 83       	std	Y+6, r18	; 0x06
    2368:	3f 83       	std	Y+7, r19	; 0x07
    236a:	48 87       	std	Y+8, r20	; 0x08
    236c:	59 87       	std	Y+9, r21	; 0x09
    236e:	6a 87       	std	Y+10, r22	; 0x0a
    2370:	7b 87       	std	Y+11, r23	; 0x0b
    2372:	92 01       	movw	r18, r4
    2374:	a3 01       	movw	r20, r6
    2376:	b4 01       	movw	r22, r8
    2378:	c1 01       	movw	r24, r2
    237a:	58 01       	movw	r10, r16
    237c:	c1 2c       	mov	r12, r1
    237e:	d1 2c       	mov	r13, r1
    2380:	e1 2c       	mov	r14, r1
    2382:	f1 2c       	mov	r15, r1
    2384:	00 e0       	ldi	r16, 0x00	; 0
    2386:	10 e0       	ldi	r17, 0x00	; 0
    2388:	0e 94 40 38 	call	0x7080	; 0x7080 <__adddi3>
    238c:	28 8f       	std	Y+24, r18	; 0x18
    238e:	39 8f       	std	Y+25, r19	; 0x19
    2390:	4a 8f       	std	Y+26, r20	; 0x1a
    2392:	5b 8f       	std	Y+27, r21	; 0x1b
    2394:	6c 8f       	std	Y+28, r22	; 0x1c
    2396:	7d 8f       	std	Y+29, r23	; 0x1d
    2398:	8e 8f       	std	Y+30, r24	; 0x1e
    239a:	9f 8f       	std	Y+31, r25	; 0x1f
    239c:	48 8a       	std	Y+16, r4	; 0x10
    239e:	59 8a       	std	Y+17, r5	; 0x11
    23a0:	6a 8a       	std	Y+18, r6	; 0x12
    23a2:	7b 8a       	std	Y+19, r7	; 0x13
    23a4:	8c 8a       	std	Y+20, r8	; 0x14
    23a6:	9d 8a       	std	Y+21, r9	; 0x15
    23a8:	2e 8a       	std	Y+22, r2	; 0x16
    23aa:	3f 8a       	std	Y+23, r3	; 0x17
    23ac:	1c 82       	std	Y+4, r1	; 0x04
    23ae:	aa 81       	ldd	r26, Y+2	; 0x02
    23b0:	bb 81       	ldd	r27, Y+3	; 0x03
    23b2:	ed 91       	ld	r30, X+
    23b4:	fc 91       	ld	r31, X
    23b6:	01 90       	ld	r0, Z+
    23b8:	f0 81       	ld	r31, Z
    23ba:	e0 2d       	mov	r30, r0
    23bc:	ee 24       	eor	r14, r14
    23be:	e3 94       	inc	r14
    23c0:	f1 2c       	mov	r15, r1
    23c2:	8e 01       	movw	r16, r28
    23c4:	0f 5f       	subi	r16, 0xFF	; 255
    23c6:	1f 4f       	sbci	r17, 0xFF	; 255
    23c8:	92 01       	movw	r18, r4
    23ca:	a3 01       	movw	r20, r6
    23cc:	b4 01       	movw	r22, r8
    23ce:	c1 01       	movw	r24, r2
    23d0:	09 95       	icall
    23d2:	88 23       	and	r24, r24
    23d4:	a1 f1       	breq	.+104    	; 0x243e <fat_find_offset_for_dir_entry.isra.1+0x2e4>
    23d6:	89 81       	ldd	r24, Y+1	; 0x01
    23d8:	85 3e       	cpi	r24, 0xE5	; 229
    23da:	11 f0       	breq	.+4      	; 0x23e0 <fat_find_offset_for_dir_entry.isra.1+0x286>
    23dc:	81 11       	cpse	r24, r1
    23de:	12 c0       	rjmp	.+36     	; 0x2404 <fat_find_offset_for_dir_entry.isra.1+0x2aa>
    23e0:	bc 81       	ldd	r27, Y+4	; 0x04
    23e2:	bf 5f       	subi	r27, 0xFF	; 255
    23e4:	bc 83       	std	Y+4, r27	; 0x04
    23e6:	e8 a1       	ldd	r30, Y+32	; 0x20
    23e8:	be 17       	cp	r27, r30
    23ea:	00 f5       	brcc	.+64     	; 0x242c <fat_find_offset_for_dir_entry.isra.1+0x2d2>
    23ec:	92 01       	movw	r18, r4
    23ee:	a3 01       	movw	r20, r6
    23f0:	b4 01       	movw	r22, r8
    23f2:	c1 01       	movw	r24, r2
    23f4:	a0 e2       	ldi	r26, 0x20	; 32
    23f6:	0e 94 49 38 	call	0x7092	; 0x7092 <__adddi3_s8>
    23fa:	29 01       	movw	r4, r18
    23fc:	3a 01       	movw	r6, r20
    23fe:	4b 01       	movw	r8, r22
    2400:	1c 01       	movw	r2, r24
    2402:	2c cf       	rjmp	.-424    	; 0x225c <fat_find_offset_for_dir_entry.isra.1+0x102>
    2404:	92 01       	movw	r18, r4
    2406:	a3 01       	movw	r20, r6
    2408:	b4 01       	movw	r22, r8
    240a:	c1 01       	movw	r24, r2
    240c:	a0 e2       	ldi	r26, 0x20	; 32
    240e:	0e 94 49 38 	call	0x7092	; 0x7092 <__adddi3_s8>
    2412:	28 8b       	std	Y+16, r18	; 0x10
    2414:	39 8b       	std	Y+17, r19	; 0x11
    2416:	4a 8b       	std	Y+18, r20	; 0x12
    2418:	5b 8b       	std	Y+19, r21	; 0x13
    241a:	6c 8b       	std	Y+20, r22	; 0x14
    241c:	7d 8b       	std	Y+21, r23	; 0x15
    241e:	8e 8b       	std	Y+22, r24	; 0x16
    2420:	9f 8b       	std	Y+23, r25	; 0x17
    2422:	29 01       	movw	r4, r18
    2424:	3a 01       	movw	r6, r20
    2426:	4b 01       	movw	r8, r22
    2428:	1c 01       	movw	r2, r24
    242a:	17 cf       	rjmp	.-466    	; 0x225a <fat_find_offset_for_dir_entry.isra.1+0x100>
    242c:	28 89       	ldd	r18, Y+16	; 0x10
    242e:	39 89       	ldd	r19, Y+17	; 0x11
    2430:	4a 89       	ldd	r20, Y+18	; 0x12
    2432:	5b 89       	ldd	r21, Y+19	; 0x13
    2434:	6c 89       	ldd	r22, Y+20	; 0x14
    2436:	7d 89       	ldd	r23, Y+21	; 0x15
    2438:	8e 89       	ldd	r24, Y+22	; 0x16
    243a:	9f 89       	ldd	r25, Y+23	; 0x17
    243c:	08 c0       	rjmp	.+16     	; 0x244e <fat_find_offset_for_dir_entry.isra.1+0x2f4>
    243e:	20 e0       	ldi	r18, 0x00	; 0
    2440:	30 e0       	ldi	r19, 0x00	; 0
    2442:	40 e0       	ldi	r20, 0x00	; 0
    2444:	50 e0       	ldi	r21, 0x00	; 0
    2446:	60 e0       	ldi	r22, 0x00	; 0
    2448:	70 e0       	ldi	r23, 0x00	; 0
    244a:	80 e0       	ldi	r24, 0x00	; 0
    244c:	90 e0       	ldi	r25, 0x00	; 0
    244e:	a0 96       	adiw	r28, 0x20	; 32
    2450:	0f b6       	in	r0, 0x3f	; 63
    2452:	f8 94       	cli
    2454:	de bf       	out	0x3e, r29	; 62
    2456:	0f be       	out	0x3f, r0	; 63
    2458:	cd bf       	out	0x3d, r28	; 61
    245a:	df 91       	pop	r29
    245c:	cf 91       	pop	r28
    245e:	1f 91       	pop	r17
    2460:	0f 91       	pop	r16
    2462:	ff 90       	pop	r15
    2464:	ef 90       	pop	r14
    2466:	df 90       	pop	r13
    2468:	cf 90       	pop	r12
    246a:	bf 90       	pop	r11
    246c:	af 90       	pop	r10
    246e:	9f 90       	pop	r9
    2470:	8f 90       	pop	r8
    2472:	7f 90       	pop	r7
    2474:	6f 90       	pop	r6
    2476:	5f 90       	pop	r5
    2478:	4f 90       	pop	r4
    247a:	3f 90       	pop	r3
    247c:	2f 90       	pop	r2
    247e:	08 95       	ret

00002480 <fat_open>:
    2480:	2f 92       	push	r2
    2482:	3f 92       	push	r3
    2484:	4f 92       	push	r4
    2486:	5f 92       	push	r5
    2488:	6f 92       	push	r6
    248a:	7f 92       	push	r7
    248c:	8f 92       	push	r8
    248e:	9f 92       	push	r9
    2490:	af 92       	push	r10
    2492:	bf 92       	push	r11
    2494:	cf 92       	push	r12
    2496:	df 92       	push	r13
    2498:	ef 92       	push	r14
    249a:	ff 92       	push	r15
    249c:	0f 93       	push	r16
    249e:	1f 93       	push	r17
    24a0:	cf 93       	push	r28
    24a2:	df 93       	push	r29
    24a4:	cd b7       	in	r28, 0x3d	; 61
    24a6:	de b7       	in	r29, 0x3e	; 62
    24a8:	c9 54       	subi	r28, 0x49	; 73
    24aa:	d1 09       	sbc	r29, r1
    24ac:	0f b6       	in	r0, 0x3f	; 63
    24ae:	f8 94       	cli
    24b0:	de bf       	out	0x3e, r29	; 62
    24b2:	0f be       	out	0x3f, r0	; 63
    24b4:	cd bf       	out	0x3d, r28	; 61
    24b6:	00 97       	sbiw	r24, 0x00	; 0
    24b8:	09 f4       	brne	.+2      	; 0x24bc <fat_open+0x3c>
    24ba:	2e c2       	rjmp	.+1116   	; 0x2918 <fat_open+0x498>
    24bc:	dc 01       	movw	r26, r24
    24be:	14 96       	adiw	r26, 0x04	; 4
    24c0:	2d 91       	ld	r18, X+
    24c2:	3c 91       	ld	r19, X
    24c4:	15 97       	sbiw	r26, 0x05	; 5
    24c6:	23 2b       	or	r18, r19
    24c8:	09 f4       	brne	.+2      	; 0x24cc <fat_open+0x4c>
    24ca:	26 c2       	rjmp	.+1100   	; 0x2918 <fat_open+0x498>
    24cc:	16 96       	adiw	r26, 0x06	; 6
    24ce:	2d 91       	ld	r18, X+
    24d0:	3c 91       	ld	r19, X
    24d2:	17 97       	sbiw	r26, 0x07	; 7
    24d4:	23 2b       	or	r18, r19
    24d6:	09 f4       	brne	.+2      	; 0x24da <fat_open+0x5a>
    24d8:	1f c2       	rjmp	.+1086   	; 0x2918 <fat_open+0x498>
    24da:	20 91 d7 01 	lds	r18, 0x01D7
    24de:	30 91 d8 01 	lds	r19, 0x01D8
    24e2:	23 2b       	or	r18, r19
    24e4:	09 f0       	breq	.+2      	; 0x24e8 <fat_open+0x68>
    24e6:	18 c2       	rjmp	.+1072   	; 0x2918 <fat_open+0x498>
    24e8:	9f a3       	std	Y+39, r25	; 0x27
    24ea:	8e a3       	std	Y+38, r24	; 0x26
    24ec:	e7 ed       	ldi	r30, 0xD7	; 215
    24ee:	f1 e0       	ldi	r31, 0x01	; 1
    24f0:	82 e3       	ldi	r24, 0x32	; 50
    24f2:	df 01       	movw	r26, r30
    24f4:	1d 92       	st	X+, r1
    24f6:	8a 95       	dec	r24
    24f8:	e9 f7       	brne	.-6      	; 0x24f4 <fat_open+0x74>
    24fa:	ee a1       	ldd	r30, Y+38	; 0x26
    24fc:	ff a1       	ldd	r31, Y+39	; 0x27
    24fe:	f0 93 d8 01 	sts	0x01D8, r31
    2502:	e0 93 d7 01 	sts	0x01D7, r30
    2506:	61 85       	ldd	r22, Z+9	; 0x09
    2508:	72 85       	ldd	r23, Z+10	; 0x0a
    250a:	83 85       	ldd	r24, Z+11	; 0x0b
    250c:	94 85       	ldd	r25, Z+12	; 0x0c
    250e:	20 e0       	ldi	r18, 0x00	; 0
    2510:	32 e0       	ldi	r19, 0x02	; 2
    2512:	40 e0       	ldi	r20, 0x00	; 0
    2514:	50 e0       	ldi	r21, 0x00	; 0
    2516:	0e 94 f7 37 	call	0x6fee	; 0x6fee <__umulsidi3>
    251a:	59 01       	movw	r10, r18
    251c:	6a 01       	movw	r12, r20
    251e:	96 2e       	mov	r9, r22
    2520:	87 2e       	mov	r8, r23
    2522:	38 2e       	mov	r3, r24
    2524:	29 2e       	mov	r2, r25
    2526:	ab e0       	ldi	r26, 0x0B	; 11
    2528:	0e 94 49 38 	call	0x7092	; 0x7092 <__adddi3_s8>
    252c:	ae a1       	ldd	r26, Y+38	; 0x26
    252e:	bf a1       	ldd	r27, Y+39	; 0x27
    2530:	ed 91       	ld	r30, X+
    2532:	fc 91       	ld	r31, X
    2534:	a5 e2       	ldi	r26, 0x25	; 37
    2536:	ea 2e       	mov	r14, r26
    2538:	f1 2c       	mov	r15, r1
    253a:	8e 01       	movw	r16, r28
    253c:	0f 5f       	subi	r16, 0xFF	; 255
    253e:	1f 4f       	sbci	r17, 0xFF	; 255
    2540:	09 95       	icall
    2542:	81 11       	cpse	r24, r1
    2544:	05 c0       	rjmp	.+10     	; 0x2550 <fat_open+0xd0>
    2546:	10 92 d8 01 	sts	0x01D8, r1
    254a:	10 92 d7 01 	sts	0x01D7, r1
    254e:	e4 c1       	rjmp	.+968    	; 0x2918 <fat_open+0x498>
    2550:	ce 01       	movw	r24, r28
    2552:	01 96       	adiw	r24, 0x01	; 1
    2554:	0e 94 ad 05 	call	0xb5a	; 0xb5a <read16>
    2558:	9b ab       	std	Y+51, r25	; 0x33
    255a:	8a ab       	std	Y+50, r24	; 0x32
    255c:	ce 01       	movw	r24, r28
    255e:	04 96       	adiw	r24, 0x04	; 4
    2560:	0e 94 ad 05 	call	0xb5a	; 0xb5a <read16>
    2564:	7c 01       	movw	r14, r24
    2566:	bb 81       	ldd	r27, Y+3	; 0x03
    2568:	be af       	std	Y+62, r27	; 0x3e
    256a:	ee 81       	ldd	r30, Y+6	; 0x06
    256c:	ef af       	std	Y+63, r30	; 0x3f
    256e:	ce 01       	movw	r24, r28
    2570:	07 96       	adiw	r24, 0x07	; 7
    2572:	0e 94 ad 05 	call	0xb5a	; 0xb5a <read16>
    2576:	22 96       	adiw	r28, 0x02	; 2
    2578:	9f af       	std	Y+63, r25	; 0x3f
    257a:	8e af       	std	Y+62, r24	; 0x3e
    257c:	22 97       	sbiw	r28, 0x02	; 2
    257e:	ce 01       	movw	r24, r28
    2580:	09 96       	adiw	r24, 0x09	; 9
    2582:	0e 94 ad 05 	call	0xb5a	; 0xb5a <read16>
    2586:	8c 01       	movw	r16, r24
    2588:	ce 01       	movw	r24, r28
    258a:	0c 96       	adiw	r24, 0x0c	; 12
    258c:	0e 94 ad 05 	call	0xb5a	; 0xb5a <read16>
    2590:	99 af       	std	Y+57, r25	; 0x39
    2592:	88 af       	std	Y+56, r24	; 0x38
    2594:	ce 01       	movw	r24, r28
    2596:	46 96       	adiw	r24, 0x16	; 22
    2598:	0e 94 b7 05 	call	0xb6e	; 0xb6e <read32>
    259c:	2b 01       	movw	r4, r22
    259e:	3c 01       	movw	r6, r24
    25a0:	ce 01       	movw	r24, r28
    25a2:	4a 96       	adiw	r24, 0x1a	; 26
    25a4:	0e 94 b7 05 	call	0xb6e	; 0xb6e <read32>
    25a8:	6c ab       	std	Y+52, r22	; 0x34
    25aa:	7d ab       	std	Y+53, r23	; 0x35
    25ac:	8e ab       	std	Y+54, r24	; 0x36
    25ae:	9f ab       	std	Y+55, r25	; 0x37
    25b0:	ce 01       	movw	r24, r28
    25b2:	82 96       	adiw	r24, 0x22	; 34
    25b4:	0e 94 b7 05 	call	0xb6e	; 0xb6e <read32>
    25b8:	2a 96       	adiw	r28, 0x0a	; 10
    25ba:	6c af       	std	Y+60, r22	; 0x3c
    25bc:	7d af       	std	Y+61, r23	; 0x3d
    25be:	8e af       	std	Y+62, r24	; 0x3e
    25c0:	9f af       	std	Y+63, r25	; 0x3f
    25c2:	2a 97       	sbiw	r28, 0x0a	; 10
    25c4:	41 14       	cp	r4, r1
    25c6:	51 04       	cpc	r5, r1
    25c8:	61 04       	cpc	r6, r1
    25ca:	71 04       	cpc	r7, r1
    25cc:	39 f4       	brne	.+14     	; 0x25dc <fat_open+0x15c>
    25ce:	01 15       	cp	r16, r1
    25d0:	11 05       	cpc	r17, r1
    25d2:	09 f4       	brne	.+2      	; 0x25d6 <fat_open+0x156>
    25d4:	b8 cf       	rjmp	.-144    	; 0x2546 <fat_open+0xc6>
    25d6:	28 01       	movw	r4, r16
    25d8:	61 2c       	mov	r6, r1
    25da:	71 2c       	mov	r7, r1
    25dc:	08 ad       	ldd	r16, Y+56	; 0x38
    25de:	19 ad       	ldd	r17, Y+57	; 0x39
    25e0:	01 15       	cp	r16, r1
    25e2:	11 05       	cpc	r17, r1
    25e4:	41 f0       	breq	.+16     	; 0x25f6 <fat_open+0x176>
    25e6:	98 01       	movw	r18, r16
    25e8:	40 e0       	ldi	r20, 0x00	; 0
    25ea:	50 e0       	ldi	r21, 0x00	; 0
    25ec:	2c ab       	std	Y+52, r18	; 0x34
    25ee:	3d ab       	std	Y+53, r19	; 0x35
    25f0:	4e ab       	std	Y+54, r20	; 0x36
    25f2:	5f ab       	std	Y+55, r21	; 0x37
    25f4:	09 c0       	rjmp	.+18     	; 0x2608 <fat_open+0x188>
    25f6:	8c a9       	ldd	r24, Y+52	; 0x34
    25f8:	9d a9       	ldd	r25, Y+53	; 0x35
    25fa:	ae a9       	ldd	r26, Y+54	; 0x36
    25fc:	bf a9       	ldd	r27, Y+55	; 0x37
    25fe:	89 2b       	or	r24, r25
    2600:	8a 2b       	or	r24, r26
    2602:	8b 2b       	or	r24, r27
    2604:	09 f4       	brne	.+2      	; 0x2608 <fat_open+0x188>
    2606:	9f cf       	rjmp	.-194    	; 0x2546 <fat_open+0xc6>
    2608:	1f ad       	ldd	r17, Y+63	; 0x3f
    260a:	01 2f       	mov	r16, r17
    260c:	10 e0       	ldi	r17, 0x00	; 0
    260e:	20 e0       	ldi	r18, 0x00	; 0
    2610:	30 e0       	ldi	r19, 0x00	; 0
    2612:	26 96       	adiw	r28, 0x06	; 6
    2614:	0c af       	std	Y+60, r16	; 0x3c
    2616:	1d af       	std	Y+61, r17	; 0x3d
    2618:	2e af       	std	Y+62, r18	; 0x3e
    261a:	3f af       	std	Y+63, r19	; 0x3f
    261c:	26 97       	sbiw	r28, 0x06	; 6
    261e:	2c a9       	ldd	r18, Y+52	; 0x34
    2620:	3d a9       	ldd	r19, Y+53	; 0x35
    2622:	4e a9       	ldd	r20, Y+54	; 0x36
    2624:	5f a9       	ldd	r21, Y+55	; 0x37
    2626:	26 96       	adiw	r28, 0x06	; 6
    2628:	6c ad       	ldd	r22, Y+60	; 0x3c
    262a:	7d ad       	ldd	r23, Y+61	; 0x3d
    262c:	8e ad       	ldd	r24, Y+62	; 0x3e
    262e:	9f ad       	ldd	r25, Y+63	; 0x3f
    2630:	26 97       	sbiw	r28, 0x06	; 6
    2632:	0e 94 27 37 	call	0x6e4e	; 0x6e4e <__mulsi3>
    2636:	a3 01       	movw	r20, r6
    2638:	92 01       	movw	r18, r4
    263a:	2e 19       	sub	r18, r14
    263c:	3f 09       	sbc	r19, r15
    263e:	41 09       	sbc	r20, r1
    2640:	51 09       	sbc	r21, r1
    2642:	26 1b       	sub	r18, r22
    2644:	37 0b       	sbc	r19, r23
    2646:	48 0b       	sbc	r20, r24
    2648:	59 0b       	sbc	r21, r25
    264a:	2e a7       	std	Y+46, r18	; 0x2e
    264c:	3f a7       	std	Y+47, r19	; 0x2f
    264e:	48 ab       	std	Y+48, r20	; 0x30
    2650:	59 ab       	std	Y+49, r21	; 0x31
    2652:	22 96       	adiw	r28, 0x02	; 2
    2654:	8e ad       	ldd	r24, Y+62	; 0x3e
    2656:	9f ad       	ldd	r25, Y+63	; 0x3f
    2658:	22 97       	sbiw	r28, 0x02	; 2
    265a:	b5 e0       	ldi	r27, 0x05	; 5
    265c:	88 0f       	add	r24, r24
    265e:	99 1f       	adc	r25, r25
    2660:	ba 95       	dec	r27
    2662:	e1 f7       	brne	.-8      	; 0x265c <fat_open+0x1dc>
    2664:	4a a9       	ldd	r20, Y+50	; 0x32
    2666:	5b a9       	ldd	r21, Y+51	; 0x33
    2668:	41 50       	subi	r20, 0x01	; 1
    266a:	51 09       	sbc	r21, r1
    266c:	84 0f       	add	r24, r20
    266e:	95 1f       	adc	r25, r21
    2670:	6a a9       	ldd	r22, Y+50	; 0x32
    2672:	7b a9       	ldd	r23, Y+51	; 0x33
    2674:	0e 94 43 37 	call	0x6e86	; 0x6e86 <__udivmodhi4>
    2678:	0e a5       	ldd	r16, Y+46	; 0x2e
    267a:	1f a5       	ldd	r17, Y+47	; 0x2f
    267c:	28 a9       	ldd	r18, Y+48	; 0x30
    267e:	39 a9       	ldd	r19, Y+49	; 0x31
    2680:	06 1b       	sub	r16, r22
    2682:	17 0b       	sbc	r17, r23
    2684:	21 09       	sbc	r18, r1
    2686:	31 09       	sbc	r19, r1
    2688:	c9 01       	movw	r24, r18
    268a:	b8 01       	movw	r22, r16
    268c:	4e ad       	ldd	r20, Y+62	; 0x3e
    268e:	04 2f       	mov	r16, r20
    2690:	10 e0       	ldi	r17, 0x00	; 0
    2692:	20 e0       	ldi	r18, 0x00	; 0
    2694:	30 e0       	ldi	r19, 0x00	; 0
    2696:	a9 01       	movw	r20, r18
    2698:	98 01       	movw	r18, r16
    269a:	0e 94 6b 37 	call	0x6ed6	; 0x6ed6 <__udivmodsi4>
    269e:	2e a7       	std	Y+46, r18	; 0x2e
    26a0:	3f a7       	std	Y+47, r19	; 0x2f
    26a2:	48 ab       	std	Y+48, r20	; 0x30
    26a4:	59 ab       	std	Y+49, r21	; 0x31
    26a6:	25 3f       	cpi	r18, 0xF5	; 245
    26a8:	8f e0       	ldi	r24, 0x0F	; 15
    26aa:	38 07       	cpc	r19, r24
    26ac:	41 05       	cpc	r20, r1
    26ae:	51 05       	cpc	r21, r1
    26b0:	08 f4       	brcc	.+2      	; 0x26b4 <fat_open+0x234>
    26b2:	49 cf       	rjmp	.-366    	; 0x2546 <fat_open+0xc6>
    26b4:	25 3f       	cpi	r18, 0xF5	; 245
    26b6:	3f 4f       	sbci	r19, 0xFF	; 255
    26b8:	41 05       	cpc	r20, r1
    26ba:	51 05       	cpc	r21, r1
    26bc:	30 f4       	brcc	.+12     	; 0x26ca <fat_open+0x24a>
    26be:	86 e0       	ldi	r24, 0x06	; 6
    26c0:	ae a1       	ldd	r26, Y+38	; 0x26
    26c2:	bf a1       	ldd	r27, Y+39	; 0x27
    26c4:	18 96       	adiw	r26, 0x08	; 8
    26c6:	8c 93       	st	X, r24
    26c8:	04 c0       	rjmp	.+8      	; 0x26d2 <fat_open+0x252>
    26ca:	8b e0       	ldi	r24, 0x0B	; 11
    26cc:	ee a1       	ldd	r30, Y+38	; 0x26
    26ce:	ff a1       	ldd	r31, Y+39	; 0x27
    26d0:	80 87       	std	Z+8, r24	; 0x08
    26d2:	8c e2       	ldi	r24, 0x2C	; 44
    26d4:	e9 ed       	ldi	r30, 0xD9	; 217
    26d6:	f1 e0       	ldi	r31, 0x01	; 1
    26d8:	df 01       	movw	r26, r30
    26da:	1d 92       	st	X+, r1
    26dc:	8a 95       	dec	r24
    26de:	e9 f7       	brne	.-6      	; 0x26da <fat_open+0x25a>
    26e0:	2a a9       	ldd	r18, Y+50	; 0x32
    26e2:	3b a9       	ldd	r19, Y+51	; 0x33
    26e4:	89 01       	movw	r16, r18
    26e6:	20 e0       	ldi	r18, 0x00	; 0
    26e8:	30 e0       	ldi	r19, 0x00	; 0
    26ea:	0a af       	std	Y+58, r16	; 0x3a
    26ec:	1b af       	std	Y+59, r17	; 0x3b
    26ee:	2c af       	std	Y+60, r18	; 0x3c
    26f0:	3d af       	std	Y+61, r19	; 0x3d
    26f2:	c3 01       	movw	r24, r6
    26f4:	b2 01       	movw	r22, r4
    26f6:	a9 01       	movw	r20, r18
    26f8:	98 01       	movw	r18, r16
    26fa:	0e 94 f7 37 	call	0x6fee	; 0x6fee <__umulsidi3>
    26fe:	20 93 d9 01 	sts	0x01D9, r18
    2702:	30 93 da 01 	sts	0x01DA, r19
    2706:	40 93 db 01 	sts	0x01DB, r20
    270a:	50 93 dc 01 	sts	0x01DC, r21
    270e:	60 93 dd 01 	sts	0x01DD, r22
    2712:	70 93 de 01 	sts	0x01DE, r23
    2716:	80 93 df 01 	sts	0x01DF, r24
    271a:	90 93 e0 01 	sts	0x01E0, r25
    271e:	b7 01       	movw	r22, r14
    2720:	80 e0       	ldi	r24, 0x00	; 0
    2722:	90 e0       	ldi	r25, 0x00	; 0
    2724:	2a ad       	ldd	r18, Y+58	; 0x3a
    2726:	3b ad       	ldd	r19, Y+59	; 0x3b
    2728:	4c ad       	ldd	r20, Y+60	; 0x3c
    272a:	5d ad       	ldd	r21, Y+61	; 0x3d
    272c:	0e 94 f7 37 	call	0x6fee	; 0x6fee <__umulsidi3>
    2730:	e9 2c       	mov	r14, r9
    2732:	f8 2c       	mov	r15, r8
    2734:	03 2d       	mov	r16, r3
    2736:	12 2d       	mov	r17, r2
    2738:	0e 94 40 38 	call	0x7080	; 0x7080 <__adddi3>
    273c:	19 01       	movw	r2, r18
    273e:	2a 01       	movw	r4, r20
    2740:	3b 01       	movw	r6, r22
    2742:	4c 01       	movw	r8, r24
    2744:	20 93 e1 01 	sts	0x01E1, r18
    2748:	30 92 e2 01 	sts	0x01E2, r3
    274c:	40 93 e3 01 	sts	0x01E3, r20
    2750:	50 92 e4 01 	sts	0x01E4, r5
    2754:	60 93 e5 01 	sts	0x01E5, r22
    2758:	70 92 e6 01 	sts	0x01E6, r7
    275c:	80 93 e7 01 	sts	0x01E7, r24
    2760:	90 92 e8 01 	sts	0x01E8, r9
    2764:	6e a5       	ldd	r22, Y+46	; 0x2e
    2766:	7f a5       	ldd	r23, Y+47	; 0x2f
    2768:	88 a9       	ldd	r24, Y+48	; 0x30
    276a:	99 a9       	ldd	r25, Y+49	; 0x31
    276c:	6e 5f       	subi	r22, 0xFE	; 254
    276e:	7f 4f       	sbci	r23, 0xFF	; 255
    2770:	8f 4f       	sbci	r24, 0xFF	; 255
    2772:	9f 4f       	sbci	r25, 0xFF	; 255
    2774:	ae a1       	ldd	r26, Y+38	; 0x26
    2776:	bf a1       	ldd	r27, Y+39	; 0x27
    2778:	18 96       	adiw	r26, 0x08	; 8
    277a:	2c 91       	ld	r18, X
    277c:	26 30       	cpi	r18, 0x06	; 6
    277e:	29 f0       	breq	.+10     	; 0x278a <fat_open+0x30a>
    2780:	24 e0       	ldi	r18, 0x04	; 4
    2782:	30 e0       	ldi	r19, 0x00	; 0
    2784:	40 e0       	ldi	r20, 0x00	; 0
    2786:	50 e0       	ldi	r21, 0x00	; 0
    2788:	04 c0       	rjmp	.+8      	; 0x2792 <fat_open+0x312>
    278a:	22 e0       	ldi	r18, 0x02	; 2
    278c:	30 e0       	ldi	r19, 0x00	; 0
    278e:	40 e0       	ldi	r20, 0x00	; 0
    2790:	50 e0       	ldi	r21, 0x00	; 0
    2792:	0e 94 27 37 	call	0x6e4e	; 0x6e4e <__mulsi3>
    2796:	60 93 e9 01 	sts	0x01E9, r22
    279a:	70 93 ea 01 	sts	0x01EA, r23
    279e:	80 93 eb 01 	sts	0x01EB, r24
    27a2:	90 93 ec 01 	sts	0x01EC, r25
    27a6:	ea a9       	ldd	r30, Y+50	; 0x32
    27a8:	fb a9       	ldd	r31, Y+51	; 0x33
    27aa:	f0 93 ee 01 	sts	0x01EE, r31
    27ae:	e0 93 ed 01 	sts	0x01ED, r30
    27b2:	ae ac       	ldd	r10, Y+62	; 0x3e
    27b4:	ae 9e       	mul	r10, r30
    27b6:	c0 01       	movw	r24, r0
    27b8:	af 9e       	mul	r10, r31
    27ba:	90 0d       	add	r25, r0
    27bc:	11 24       	eor	r1, r1
    27be:	90 93 f0 01 	sts	0x01F0, r25
    27c2:	80 93 ef 01 	sts	0x01EF, r24
    27c6:	ae a1       	ldd	r26, Y+38	; 0x26
    27c8:	bf a1       	ldd	r27, Y+39	; 0x27
    27ca:	18 96       	adiw	r26, 0x08	; 8
    27cc:	8c 91       	ld	r24, X
    27ce:	86 30       	cpi	r24, 0x06	; 6
    27d0:	09 f0       	breq	.+2      	; 0x27d4 <fat_open+0x354>
    27d2:	57 c0       	rjmp	.+174    	; 0x2882 <fat_open+0x402>
    27d4:	e8 ad       	ldd	r30, Y+56	; 0x38
    27d6:	f9 ad       	ldd	r31, Y+57	; 0x39
    27d8:	9f 01       	movw	r18, r30
    27da:	40 e0       	ldi	r20, 0x00	; 0
    27dc:	50 e0       	ldi	r21, 0x00	; 0
    27de:	6a ad       	ldd	r22, Y+58	; 0x3a
    27e0:	7b ad       	ldd	r23, Y+59	; 0x3b
    27e2:	8c ad       	ldd	r24, Y+60	; 0x3c
    27e4:	9d ad       	ldd	r25, Y+61	; 0x3d
    27e6:	0e 94 f7 37 	call	0x6fee	; 0x6fee <__umulsidi3>
    27ea:	af ac       	ldd	r10, Y+63	; 0x3f
    27ec:	b1 2c       	mov	r11, r1
    27ee:	c1 2c       	mov	r12, r1
    27f0:	d1 2c       	mov	r13, r1
    27f2:	e1 2c       	mov	r14, r1
    27f4:	f1 2c       	mov	r15, r1
    27f6:	00 e0       	ldi	r16, 0x00	; 0
    27f8:	10 e0       	ldi	r17, 0x00	; 0
    27fa:	0e 94 9e 37 	call	0x6f3c	; 0x6f3c <__muldi3>
    27fe:	51 01       	movw	r10, r2
    2800:	62 01       	movw	r12, r4
    2802:	73 01       	movw	r14, r6
    2804:	84 01       	movw	r16, r8
    2806:	0e 94 40 38 	call	0x7080	; 0x7080 <__adddi3>
    280a:	19 01       	movw	r2, r18
    280c:	2a 01       	movw	r4, r20
    280e:	3b 01       	movw	r6, r22
    2810:	4c 01       	movw	r8, r24
    2812:	20 93 f9 01 	sts	0x01F9, r18
    2816:	30 92 fa 01 	sts	0x01FA, r3
    281a:	40 93 fb 01 	sts	0x01FB, r20
    281e:	50 92 fc 01 	sts	0x01FC, r5
    2822:	60 93 fd 01 	sts	0x01FD, r22
    2826:	70 92 fe 01 	sts	0x01FE, r7
    282a:	80 93 ff 01 	sts	0x01FF, r24
    282e:	90 92 00 02 	sts	0x0200, r9
    2832:	22 96       	adiw	r28, 0x02	; 2
    2834:	ae ac       	ldd	r10, Y+62	; 0x3e
    2836:	bf ac       	ldd	r11, Y+63	; 0x3f
    2838:	22 97       	sbiw	r28, 0x02	; 2
    283a:	b5 01       	movw	r22, r10
    283c:	80 e0       	ldi	r24, 0x00	; 0
    283e:	90 e0       	ldi	r25, 0x00	; 0
    2840:	20 e2       	ldi	r18, 0x20	; 32
    2842:	30 e0       	ldi	r19, 0x00	; 0
    2844:	40 e0       	ldi	r20, 0x00	; 0
    2846:	50 e0       	ldi	r21, 0x00	; 0
    2848:	0e 94 f7 37 	call	0x6fee	; 0x6fee <__umulsidi3>
    284c:	59 01       	movw	r10, r18
    284e:	6a 01       	movw	r12, r20
    2850:	7b 01       	movw	r14, r22
    2852:	8c 01       	movw	r16, r24
    2854:	91 01       	movw	r18, r2
    2856:	a2 01       	movw	r20, r4
    2858:	b3 01       	movw	r22, r6
    285a:	c4 01       	movw	r24, r8
    285c:	0e 94 40 38 	call	0x7080	; 0x7080 <__adddi3>
    2860:	20 93 f1 01 	sts	0x01F1, r18
    2864:	30 93 f2 01 	sts	0x01F2, r19
    2868:	40 93 f3 01 	sts	0x01F3, r20
    286c:	50 93 f4 01 	sts	0x01F4, r21
    2870:	60 93 f5 01 	sts	0x01F5, r22
    2874:	70 93 f6 01 	sts	0x01F6, r23
    2878:	80 93 f7 01 	sts	0x01F7, r24
    287c:	90 93 f8 01 	sts	0x01F8, r25
    2880:	48 c0       	rjmp	.+144    	; 0x2912 <fat_open+0x492>
    2882:	ca a8       	ldd	r12, Y+50	; 0x32
    2884:	db a8       	ldd	r13, Y+51	; 0x33
    2886:	b6 01       	movw	r22, r12
    2888:	80 e0       	ldi	r24, 0x00	; 0
    288a:	90 e0       	ldi	r25, 0x00	; 0
    288c:	26 96       	adiw	r28, 0x06	; 6
    288e:	2c ad       	ldd	r18, Y+60	; 0x3c
    2890:	3d ad       	ldd	r19, Y+61	; 0x3d
    2892:	4e ad       	ldd	r20, Y+62	; 0x3e
    2894:	5f ad       	ldd	r21, Y+63	; 0x3f
    2896:	26 97       	sbiw	r28, 0x06	; 6
    2898:	0e 94 f7 37 	call	0x6fee	; 0x6fee <__umulsidi3>
    289c:	cc a8       	ldd	r12, Y+52	; 0x34
    289e:	dd a8       	ldd	r13, Y+53	; 0x35
    28a0:	ee a8       	ldd	r14, Y+54	; 0x36
    28a2:	ff a8       	ldd	r15, Y+55	; 0x37
    28a4:	56 01       	movw	r10, r12
    28a6:	67 01       	movw	r12, r14
    28a8:	e1 2c       	mov	r14, r1
    28aa:	f1 2c       	mov	r15, r1
    28ac:	87 01       	movw	r16, r14
    28ae:	ae a2       	std	Y+38, r10	; 0x26
    28b0:	bf a2       	std	Y+39, r11	; 0x27
    28b2:	c8 a6       	std	Y+40, r12	; 0x28
    28b4:	d9 a6       	std	Y+41, r13	; 0x29
    28b6:	ea a6       	std	Y+42, r14	; 0x2a
    28b8:	fb a6       	std	Y+43, r15	; 0x2b
    28ba:	0c a7       	std	Y+44, r16	; 0x2c
    28bc:	1d a7       	std	Y+45, r17	; 0x2d
    28be:	e1 2c       	mov	r14, r1
    28c0:	f1 2c       	mov	r15, r1
    28c2:	00 e0       	ldi	r16, 0x00	; 0
    28c4:	10 e0       	ldi	r17, 0x00	; 0
    28c6:	0e 94 9e 37 	call	0x6f3c	; 0x6f3c <__muldi3>
    28ca:	51 01       	movw	r10, r2
    28cc:	62 01       	movw	r12, r4
    28ce:	73 01       	movw	r14, r6
    28d0:	84 01       	movw	r16, r8
    28d2:	0e 94 40 38 	call	0x7080	; 0x7080 <__adddi3>
    28d6:	20 93 f1 01 	sts	0x01F1, r18
    28da:	30 93 f2 01 	sts	0x01F2, r19
    28de:	40 93 f3 01 	sts	0x01F3, r20
    28e2:	50 93 f4 01 	sts	0x01F4, r21
    28e6:	60 93 f5 01 	sts	0x01F5, r22
    28ea:	70 93 f6 01 	sts	0x01F6, r23
    28ee:	80 93 f7 01 	sts	0x01F7, r24
    28f2:	90 93 f8 01 	sts	0x01F8, r25
    28f6:	2a 96       	adiw	r28, 0x0a	; 10
    28f8:	ec ac       	ldd	r14, Y+60	; 0x3c
    28fa:	fd ac       	ldd	r15, Y+61	; 0x3d
    28fc:	0e ad       	ldd	r16, Y+62	; 0x3e
    28fe:	1f ad       	ldd	r17, Y+63	; 0x3f
    2900:	2a 97       	sbiw	r28, 0x0a	; 10
    2902:	e0 92 01 02 	sts	0x0201, r14
    2906:	f0 92 02 02 	sts	0x0202, r15
    290a:	00 93 03 02 	sts	0x0203, r16
    290e:	10 93 04 02 	sts	0x0204, r17
    2912:	87 ed       	ldi	r24, 0xD7	; 215
    2914:	91 e0       	ldi	r25, 0x01	; 1
    2916:	02 c0       	rjmp	.+4      	; 0x291c <fat_open+0x49c>
    2918:	80 e0       	ldi	r24, 0x00	; 0
    291a:	90 e0       	ldi	r25, 0x00	; 0
    291c:	c7 5b       	subi	r28, 0xB7	; 183
    291e:	df 4f       	sbci	r29, 0xFF	; 255
    2920:	0f b6       	in	r0, 0x3f	; 63
    2922:	f8 94       	cli
    2924:	de bf       	out	0x3e, r29	; 62
    2926:	0f be       	out	0x3f, r0	; 63
    2928:	cd bf       	out	0x3d, r28	; 61
    292a:	df 91       	pop	r29
    292c:	cf 91       	pop	r28
    292e:	1f 91       	pop	r17
    2930:	0f 91       	pop	r16
    2932:	ff 90       	pop	r15
    2934:	ef 90       	pop	r14
    2936:	df 90       	pop	r13
    2938:	cf 90       	pop	r12
    293a:	bf 90       	pop	r11
    293c:	af 90       	pop	r10
    293e:	9f 90       	pop	r9
    2940:	8f 90       	pop	r8
    2942:	7f 90       	pop	r7
    2944:	6f 90       	pop	r6
    2946:	5f 90       	pop	r5
    2948:	4f 90       	pop	r4
    294a:	3f 90       	pop	r3
    294c:	2f 90       	pop	r2
    294e:	08 95       	ret

00002950 <fat_open_file>:
    2950:	00 97       	sbiw	r24, 0x00	; 0
    2952:	c9 f1       	breq	.+114    	; 0x29c6 <fat_open_file+0x76>
    2954:	61 15       	cp	r22, r1
    2956:	71 05       	cpc	r23, r1
    2958:	b1 f1       	breq	.+108    	; 0x29c6 <fat_open_file+0x76>
    295a:	fb 01       	movw	r30, r22
    295c:	20 a1       	ldd	r18, Z+32	; 0x20
    295e:	24 fd       	sbrc	r18, 4
    2960:	32 c0       	rjmp	.+100    	; 0x29c6 <fat_open_file+0x76>
    2962:	20 91 98 01 	lds	r18, 0x0198
    2966:	30 91 99 01 	lds	r19, 0x0199
    296a:	23 2b       	or	r18, r19
    296c:	61 f5       	brne	.+88     	; 0x29c6 <fat_open_file+0x76>
    296e:	21 e3       	ldi	r18, 0x31	; 49
    2970:	fb 01       	movw	r30, r22
    2972:	aa e9       	ldi	r26, 0x9A	; 154
    2974:	b1 e0       	ldi	r27, 0x01	; 1
    2976:	01 90       	ld	r0, Z+
    2978:	0d 92       	st	X+, r0
    297a:	2a 95       	dec	r18
    297c:	e1 f7       	brne	.-8      	; 0x2976 <fat_open_file+0x26>
    297e:	90 93 99 01 	sts	0x0199, r25
    2982:	80 93 98 01 	sts	0x0198, r24
    2986:	10 92 cb 01 	sts	0x01CB, r1
    298a:	10 92 cc 01 	sts	0x01CC, r1
    298e:	10 92 cd 01 	sts	0x01CD, r1
    2992:	10 92 ce 01 	sts	0x01CE, r1
    2996:	10 92 cf 01 	sts	0x01CF, r1
    299a:	10 92 d0 01 	sts	0x01D0, r1
    299e:	10 92 d1 01 	sts	0x01D1, r1
    29a2:	10 92 d2 01 	sts	0x01D2, r1
    29a6:	fb 01       	movw	r30, r22
    29a8:	81 a1       	ldd	r24, Z+33	; 0x21
    29aa:	92 a1       	ldd	r25, Z+34	; 0x22
    29ac:	a3 a1       	ldd	r26, Z+35	; 0x23
    29ae:	b4 a1       	ldd	r27, Z+36	; 0x24
    29b0:	80 93 d3 01 	sts	0x01D3, r24
    29b4:	90 93 d4 01 	sts	0x01D4, r25
    29b8:	a0 93 d5 01 	sts	0x01D5, r26
    29bc:	b0 93 d6 01 	sts	0x01D6, r27
    29c0:	88 e9       	ldi	r24, 0x98	; 152
    29c2:	91 e0       	ldi	r25, 0x01	; 1
    29c4:	08 95       	ret
    29c6:	80 e0       	ldi	r24, 0x00	; 0
    29c8:	90 e0       	ldi	r25, 0x00	; 0
    29ca:	08 95       	ret

000029cc <fat_close_file>:
    29cc:	00 97       	sbiw	r24, 0x00	; 0
    29ce:	19 f0       	breq	.+6      	; 0x29d6 <fat_close_file+0xa>
    29d0:	fc 01       	movw	r30, r24
    29d2:	11 82       	std	Z+1, r1	; 0x01
    29d4:	10 82       	st	Z, r1
    29d6:	08 95       	ret

000029d8 <fat_read_file>:
    29d8:	2f 92       	push	r2
    29da:	3f 92       	push	r3
    29dc:	4f 92       	push	r4
    29de:	5f 92       	push	r5
    29e0:	6f 92       	push	r6
    29e2:	7f 92       	push	r7
    29e4:	8f 92       	push	r8
    29e6:	9f 92       	push	r9
    29e8:	af 92       	push	r10
    29ea:	bf 92       	push	r11
    29ec:	cf 92       	push	r12
    29ee:	df 92       	push	r13
    29f0:	ef 92       	push	r14
    29f2:	ff 92       	push	r15
    29f4:	0f 93       	push	r16
    29f6:	1f 93       	push	r17
    29f8:	cf 93       	push	r28
    29fa:	df 93       	push	r29
    29fc:	cd b7       	in	r28, 0x3d	; 61
    29fe:	de b7       	in	r29, 0x3e	; 62
    2a00:	6a 97       	sbiw	r28, 0x1a	; 26
    2a02:	0f b6       	in	r0, 0x3f	; 63
    2a04:	f8 94       	cli
    2a06:	de bf       	out	0x3e, r29	; 62
    2a08:	0f be       	out	0x3f, r0	; 63
    2a0a:	cd bf       	out	0x3d, r28	; 61
    2a0c:	98 8f       	std	Y+24, r25	; 0x18
    2a0e:	8f 8b       	std	Y+23, r24	; 0x17
    2a10:	7c 8b       	std	Y+20, r23	; 0x14
    2a12:	6b 8b       	std	Y+19, r22	; 0x13
    2a14:	5a 8b       	std	Y+18, r21	; 0x12
    2a16:	49 8b       	std	Y+17, r20	; 0x11
    2a18:	89 2b       	or	r24, r25
    2a1a:	19 f4       	brne	.+6      	; 0x2a22 <fat_read_file+0x4a>
    2a1c:	8f ef       	ldi	r24, 0xFF	; 255
    2a1e:	9f ef       	ldi	r25, 0xFF	; 255
    2a20:	7e c1       	rjmp	.+764    	; 0x2d1e <fat_read_file+0x346>
    2a22:	ab 88       	ldd	r10, Y+19	; 0x13
    2a24:	bc 88       	ldd	r11, Y+20	; 0x14
    2a26:	ab 28       	or	r10, r11
    2a28:	c9 f3       	breq	.-14     	; 0x2a1c <fat_read_file+0x44>
    2a2a:	c9 88       	ldd	r12, Y+17	; 0x11
    2a2c:	da 88       	ldd	r13, Y+18	; 0x12
    2a2e:	c1 14       	cp	r12, r1
    2a30:	d1 04       	cpc	r13, r1
    2a32:	a1 f3       	breq	.-24     	; 0x2a1c <fat_read_file+0x44>
    2a34:	af 89       	ldd	r26, Y+23	; 0x17
    2a36:	b8 8d       	ldd	r27, Y+24	; 0x18
    2a38:	d3 96       	adiw	r26, 0x33	; 51
    2a3a:	bc 91       	ld	r27, X
    2a3c:	b9 83       	std	Y+1, r27	; 0x01
    2a3e:	ef 89       	ldd	r30, Y+23	; 0x17
    2a40:	f8 8d       	ldd	r31, Y+24	; 0x18
    2a42:	f4 a9       	ldd	r31, Z+52	; 0x34
    2a44:	fa 83       	std	Y+2, r31	; 0x02
    2a46:	af 89       	ldd	r26, Y+23	; 0x17
    2a48:	b8 8d       	ldd	r27, Y+24	; 0x18
    2a4a:	d5 96       	adiw	r26, 0x35	; 53
    2a4c:	bc 91       	ld	r27, X
    2a4e:	bb 83       	std	Y+3, r27	; 0x03
    2a50:	ef 89       	ldd	r30, Y+23	; 0x17
    2a52:	f8 8d       	ldd	r31, Y+24	; 0x18
    2a54:	f6 a9       	ldd	r31, Z+54	; 0x36
    2a56:	fc 83       	std	Y+4, r31	; 0x04
    2a58:	af 89       	ldd	r26, Y+23	; 0x17
    2a5a:	b8 8d       	ldd	r27, Y+24	; 0x18
    2a5c:	d7 96       	adiw	r26, 0x37	; 55
    2a5e:	bc 91       	ld	r27, X
    2a60:	bd 83       	std	Y+5, r27	; 0x05
    2a62:	ef 89       	ldd	r30, Y+23	; 0x17
    2a64:	f8 8d       	ldd	r31, Y+24	; 0x18
    2a66:	f0 ad       	ldd	r31, Z+56	; 0x38
    2a68:	fe 83       	std	Y+6, r31	; 0x06
    2a6a:	af 89       	ldd	r26, Y+23	; 0x17
    2a6c:	b8 8d       	ldd	r27, Y+24	; 0x18
    2a6e:	d9 96       	adiw	r26, 0x39	; 57
    2a70:	bc 91       	ld	r27, X
    2a72:	bf 83       	std	Y+7, r27	; 0x07
    2a74:	ef 89       	ldd	r30, Y+23	; 0x17
    2a76:	f8 8d       	ldd	r31, Y+24	; 0x18
    2a78:	f2 ad       	ldd	r31, Z+58	; 0x3a
    2a7a:	f8 87       	std	Y+8, r31	; 0x08
    2a7c:	af 89       	ldd	r26, Y+23	; 0x17
    2a7e:	b8 8d       	ldd	r27, Y+24	; 0x18
    2a80:	97 96       	adiw	r26, 0x27	; 39
    2a82:	4d 90       	ld	r4, X+
    2a84:	5d 90       	ld	r5, X+
    2a86:	6d 90       	ld	r6, X+
    2a88:	7c 90       	ld	r7, X
    2a8a:	9a 97       	sbiw	r26, 0x2a	; 42
    2a8c:	96 01       	movw	r18, r12
    2a8e:	40 e0       	ldi	r20, 0x00	; 0
    2a90:	50 e0       	ldi	r21, 0x00	; 0
    2a92:	60 e0       	ldi	r22, 0x00	; 0
    2a94:	70 e0       	ldi	r23, 0x00	; 0
    2a96:	80 e0       	ldi	r24, 0x00	; 0
    2a98:	90 e0       	ldi	r25, 0x00	; 0
    2a9a:	a9 80       	ldd	r10, Y+1	; 0x01
    2a9c:	ba 80       	ldd	r11, Y+2	; 0x02
    2a9e:	cb 80       	ldd	r12, Y+3	; 0x03
    2aa0:	dc 80       	ldd	r13, Y+4	; 0x04
    2aa2:	ed 80       	ldd	r14, Y+5	; 0x05
    2aa4:	fe 80       	ldd	r15, Y+6	; 0x06
    2aa6:	0f 81       	ldd	r16, Y+7	; 0x07
    2aa8:	18 85       	ldd	r17, Y+8	; 0x08
    2aaa:	0e 94 40 38 	call	0x7080	; 0x7080 <__adddi3>
    2aae:	63 01       	movw	r12, r6
    2ab0:	52 01       	movw	r10, r4
    2ab2:	e1 2c       	mov	r14, r1
    2ab4:	f1 2c       	mov	r15, r1
    2ab6:	87 01       	movw	r16, r14
    2ab8:	49 86       	std	Y+9, r4	; 0x09
    2aba:	ba 86       	std	Y+10, r11	; 0x0a
    2abc:	cb 86       	std	Y+11, r12	; 0x0b
    2abe:	dc 86       	std	Y+12, r13	; 0x0c
    2ac0:	ed 86       	std	Y+13, r14	; 0x0d
    2ac2:	fe 86       	std	Y+14, r15	; 0x0e
    2ac4:	0f 87       	std	Y+15, r16	; 0x0f
    2ac6:	18 8b       	std	Y+16, r17	; 0x10
    2ac8:	e1 2c       	mov	r14, r1
    2aca:	f1 2c       	mov	r15, r1
    2acc:	00 e0       	ldi	r16, 0x00	; 0
    2ace:	10 e0       	ldi	r17, 0x00	; 0
    2ad0:	0e 94 5e 38 	call	0x70bc	; 0x70bc <__cmpdi2>
    2ad4:	59 f0       	breq	.+22     	; 0x2aec <fat_read_file+0x114>
    2ad6:	50 f0       	brcs	.+20     	; 0x2aec <fat_read_file+0x114>
    2ad8:	62 01       	movw	r12, r4
    2ada:	e9 80       	ldd	r14, Y+1	; 0x01
    2adc:	fa 80       	ldd	r15, Y+2	; 0x02
    2ade:	ce 18       	sub	r12, r14
    2ae0:	df 08       	sbc	r13, r15
    2ae2:	da 8a       	std	Y+18, r13	; 0x12
    2ae4:	c9 8a       	std	Y+17, r12	; 0x11
    2ae6:	cd 28       	or	r12, r13
    2ae8:	09 f4       	brne	.+2      	; 0x2aec <fat_read_file+0x114>
    2aea:	17 c1       	rjmp	.+558    	; 0x2d1a <fat_read_file+0x342>
    2aec:	af 89       	ldd	r26, Y+23	; 0x17
    2aee:	b8 8d       	ldd	r27, Y+24	; 0x18
    2af0:	ed 91       	ld	r30, X+
    2af2:	fc 91       	ld	r31, X
    2af4:	11 97       	sbiw	r26, 0x01	; 1
    2af6:	a0 8c       	ldd	r10, Z+24	; 0x18
    2af8:	b1 8c       	ldd	r11, Z+25	; 0x19
    2afa:	ba 86       	std	Y+10, r11	; 0x0a
    2afc:	a9 86       	std	Y+9, r10	; 0x09
    2afe:	db 96       	adiw	r26, 0x3b	; 59
    2b00:	4d 90       	ld	r4, X+
    2b02:	5d 90       	ld	r5, X+
    2b04:	6d 90       	ld	r6, X+
    2b06:	7c 90       	ld	r7, X
    2b08:	de 97       	sbiw	r26, 0x3e	; 62
    2b0a:	41 14       	cp	r4, r1
    2b0c:	51 04       	cpc	r5, r1
    2b0e:	61 04       	cpc	r6, r1
    2b10:	71 04       	cpc	r7, r1
    2b12:	09 f0       	breq	.+2      	; 0x2b16 <fat_read_file+0x13e>
    2b14:	4d c0       	rjmp	.+154    	; 0x2bb0 <fat_read_file+0x1d8>
    2b16:	93 96       	adiw	r26, 0x23	; 35
    2b18:	4d 90       	ld	r4, X+
    2b1a:	5d 90       	ld	r5, X+
    2b1c:	6d 90       	ld	r6, X+
    2b1e:	7c 90       	ld	r7, X
    2b20:	96 97       	sbiw	r26, 0x26	; 38
    2b22:	41 14       	cp	r4, r1
    2b24:	51 04       	cpc	r5, r1
    2b26:	61 04       	cpc	r6, r1
    2b28:	71 04       	cpc	r7, r1
    2b2a:	a9 f4       	brne	.+42     	; 0x2b56 <fat_read_file+0x17e>
    2b2c:	e1 e0       	ldi	r30, 0x01	; 1
    2b2e:	f0 e0       	ldi	r31, 0x00	; 0
    2b30:	29 81       	ldd	r18, Y+1	; 0x01
    2b32:	3a 81       	ldd	r19, Y+2	; 0x02
    2b34:	4b 81       	ldd	r20, Y+3	; 0x03
    2b36:	5c 81       	ldd	r21, Y+4	; 0x04
    2b38:	6d 81       	ldd	r22, Y+5	; 0x05
    2b3a:	7e 81       	ldd	r23, Y+6	; 0x06
    2b3c:	8f 81       	ldd	r24, Y+7	; 0x07
    2b3e:	98 85       	ldd	r25, Y+8	; 0x08
    2b40:	a0 e0       	ldi	r26, 0x00	; 0
    2b42:	0e 94 67 38 	call	0x70ce	; 0x70ce <__cmpdi2_s8>
    2b46:	11 f4       	brne	.+4      	; 0x2b4c <fat_read_file+0x174>
    2b48:	e0 e0       	ldi	r30, 0x00	; 0
    2b4a:	f0 e0       	ldi	r31, 0x00	; 0
    2b4c:	88 27       	eor	r24, r24
    2b4e:	99 27       	eor	r25, r25
    2b50:	8e 1b       	sub	r24, r30
    2b52:	9f 0b       	sbc	r25, r31
    2b54:	e4 c0       	rjmp	.+456    	; 0x2d1e <fat_read_file+0x346>
    2b56:	29 81       	ldd	r18, Y+1	; 0x01
    2b58:	3a 81       	ldd	r19, Y+2	; 0x02
    2b5a:	4b 81       	ldd	r20, Y+3	; 0x03
    2b5c:	5c 81       	ldd	r21, Y+4	; 0x04
    2b5e:	6d 81       	ldd	r22, Y+5	; 0x05
    2b60:	7e 81       	ldd	r23, Y+6	; 0x06
    2b62:	8f 81       	ldd	r24, Y+7	; 0x07
    2b64:	98 85       	ldd	r25, Y+8	; 0x08
    2b66:	a0 e0       	ldi	r26, 0x00	; 0
    2b68:	0e 94 67 38 	call	0x70ce	; 0x70ce <__cmpdi2_s8>
    2b6c:	09 f1       	breq	.+66     	; 0x2bb0 <fat_read_file+0x1d8>
    2b6e:	89 80       	ldd	r8, Y+1	; 0x01
    2b70:	9a 80       	ldd	r9, Y+2	; 0x02
    2b72:	ab 80       	ldd	r10, Y+3	; 0x03
    2b74:	bc 80       	ldd	r11, Y+4	; 0x04
    2b76:	09 85       	ldd	r16, Y+9	; 0x09
    2b78:	1a 85       	ldd	r17, Y+10	; 0x0a
    2b7a:	68 01       	movw	r12, r16
    2b7c:	e1 2c       	mov	r14, r1
    2b7e:	f1 2c       	mov	r15, r1
    2b80:	8c 14       	cp	r8, r12
    2b82:	9d 04       	cpc	r9, r13
    2b84:	ae 04       	cpc	r10, r14
    2b86:	bf 04       	cpc	r11, r15
    2b88:	98 f0       	brcs	.+38     	; 0x2bb0 <fat_read_file+0x1d8>
    2b8a:	8c 18       	sub	r8, r12
    2b8c:	9d 08       	sbc	r9, r13
    2b8e:	ae 08       	sbc	r10, r14
    2b90:	bf 08       	sbc	r11, r15
    2b92:	b3 01       	movw	r22, r6
    2b94:	a2 01       	movw	r20, r4
    2b96:	af 89       	ldd	r26, Y+23	; 0x17
    2b98:	b8 8d       	ldd	r27, Y+24	; 0x18
    2b9a:	8d 91       	ld	r24, X+
    2b9c:	9c 91       	ld	r25, X
    2b9e:	0e 94 73 09 	call	0x12e6	; 0x12e6 <fat_get_next_cluster>
    2ba2:	2b 01       	movw	r4, r22
    2ba4:	3c 01       	movw	r6, r24
    2ba6:	67 2b       	or	r22, r23
    2ba8:	68 2b       	or	r22, r24
    2baa:	69 2b       	or	r22, r25
    2bac:	49 f7       	brne	.-46     	; 0x2b80 <fat_read_file+0x1a8>
    2bae:	36 cf       	rjmp	.-404    	; 0x2a1c <fat_read_file+0x44>
    2bb0:	89 85       	ldd	r24, Y+9	; 0x09
    2bb2:	9a 85       	ldd	r25, Y+10	; 0x0a
    2bb4:	01 97       	sbiw	r24, 0x01	; 1
    2bb6:	e9 81       	ldd	r30, Y+1	; 0x01
    2bb8:	fa 81       	ldd	r31, Y+2	; 0x02
    2bba:	e8 23       	and	r30, r24
    2bbc:	f9 23       	and	r31, r25
    2bbe:	fa 83       	std	Y+2, r31	; 0x02
    2bc0:	e9 83       	std	Y+1, r30	; 0x01
    2bc2:	29 88       	ldd	r2, Y+17	; 0x11
    2bc4:	3a 88       	ldd	r3, Y+18	; 0x12
    2bc6:	af 89       	ldd	r26, Y+23	; 0x17
    2bc8:	b8 8d       	ldd	r27, Y+24	; 0x18
    2bca:	ad 90       	ld	r10, X+
    2bcc:	bc 90       	ld	r11, X
    2bce:	b3 01       	movw	r22, r6
    2bd0:	a2 01       	movw	r20, r4
    2bd2:	c5 01       	movw	r24, r10
    2bd4:	0e 94 55 0d 	call	0x1aaa	; 0x1aaa <fat_cluster_offset>
    2bd8:	2d 8b       	std	Y+21, r18	; 0x15
    2bda:	3e 8b       	std	Y+22, r19	; 0x16
    2bdc:	6a 01       	movw	r12, r20
    2bde:	7b 01       	movw	r14, r22
    2be0:	8c 01       	movw	r16, r24
    2be2:	89 84       	ldd	r8, Y+9	; 0x09
    2be4:	9a 84       	ldd	r9, Y+10	; 0x0a
    2be6:	e9 81       	ldd	r30, Y+1	; 0x01
    2be8:	fa 81       	ldd	r31, Y+2	; 0x02
    2bea:	8e 1a       	sub	r8, r30
    2bec:	9f 0a       	sbc	r9, r31
    2bee:	28 14       	cp	r2, r8
    2bf0:	39 04       	cpc	r3, r9
    2bf2:	08 f4       	brcc	.+2      	; 0x2bf6 <fat_read_file+0x21e>
    2bf4:	41 01       	movw	r8, r2
    2bf6:	d5 01       	movw	r26, r10
    2bf8:	0d 90       	ld	r0, X+
    2bfa:	bc 91       	ld	r27, X
    2bfc:	a0 2d       	mov	r26, r0
    2bfe:	ba 8f       	std	Y+26, r27	; 0x1a
    2c00:	a9 8f       	std	Y+25, r26	; 0x19
    2c02:	e9 81       	ldd	r30, Y+1	; 0x01
    2c04:	fa 81       	ldd	r31, Y+2	; 0x02
    2c06:	9f 01       	movw	r18, r30
    2c08:	40 e0       	ldi	r20, 0x00	; 0
    2c0a:	50 e0       	ldi	r21, 0x00	; 0
    2c0c:	60 e0       	ldi	r22, 0x00	; 0
    2c0e:	70 e0       	ldi	r23, 0x00	; 0
    2c10:	80 e0       	ldi	r24, 0x00	; 0
    2c12:	90 e0       	ldi	r25, 0x00	; 0
    2c14:	ad 88       	ldd	r10, Y+21	; 0x15
    2c16:	be 88       	ldd	r11, Y+22	; 0x16
    2c18:	0e 94 40 38 	call	0x7080	; 0x7080 <__adddi3>
    2c1c:	a9 8d       	ldd	r26, Y+25	; 0x19
    2c1e:	ba 8d       	ldd	r27, Y+26	; 0x1a
    2c20:	ed 91       	ld	r30, X+
    2c22:	fc 91       	ld	r31, X
    2c24:	74 01       	movw	r14, r8
    2c26:	0b 89       	ldd	r16, Y+19	; 0x13
    2c28:	1c 89       	ldd	r17, Y+20	; 0x14
    2c2a:	09 95       	icall
    2c2c:	88 23       	and	r24, r24
    2c2e:	09 f4       	brne	.+2      	; 0x2c32 <fat_read_file+0x25a>
    2c30:	60 c0       	rjmp	.+192    	; 0x2cf2 <fat_read_file+0x31a>
    2c32:	eb 89       	ldd	r30, Y+19	; 0x13
    2c34:	fc 89       	ldd	r31, Y+20	; 0x14
    2c36:	e8 0d       	add	r30, r8
    2c38:	f9 1d       	adc	r31, r9
    2c3a:	fc 8b       	std	Y+20, r31	; 0x14
    2c3c:	eb 8b       	std	Y+19, r30	; 0x13
    2c3e:	28 18       	sub	r2, r8
    2c40:	39 08       	sbc	r3, r9
    2c42:	94 01       	movw	r18, r8
    2c44:	40 e0       	ldi	r20, 0x00	; 0
    2c46:	50 e0       	ldi	r21, 0x00	; 0
    2c48:	60 e0       	ldi	r22, 0x00	; 0
    2c4a:	70 e0       	ldi	r23, 0x00	; 0
    2c4c:	80 e0       	ldi	r24, 0x00	; 0
    2c4e:	90 e0       	ldi	r25, 0x00	; 0
    2c50:	af 89       	ldd	r26, Y+23	; 0x17
    2c52:	b8 8d       	ldd	r27, Y+24	; 0x18
    2c54:	d3 96       	adiw	r26, 0x33	; 51
    2c56:	ac 90       	ld	r10, X
    2c58:	d3 97       	sbiw	r26, 0x33	; 51
    2c5a:	d4 96       	adiw	r26, 0x34	; 52
    2c5c:	bc 90       	ld	r11, X
    2c5e:	d4 97       	sbiw	r26, 0x34	; 52
    2c60:	d5 96       	adiw	r26, 0x35	; 53
    2c62:	cc 90       	ld	r12, X
    2c64:	d5 97       	sbiw	r26, 0x35	; 53
    2c66:	d6 96       	adiw	r26, 0x36	; 54
    2c68:	dc 90       	ld	r13, X
    2c6a:	d6 97       	sbiw	r26, 0x36	; 54
    2c6c:	d7 96       	adiw	r26, 0x37	; 55
    2c6e:	ec 90       	ld	r14, X
    2c70:	d7 97       	sbiw	r26, 0x37	; 55
    2c72:	d8 96       	adiw	r26, 0x38	; 56
    2c74:	fc 90       	ld	r15, X
    2c76:	d8 97       	sbiw	r26, 0x38	; 56
    2c78:	d9 96       	adiw	r26, 0x39	; 57
    2c7a:	0c 91       	ld	r16, X
    2c7c:	d9 97       	sbiw	r26, 0x39	; 57
    2c7e:	da 96       	adiw	r26, 0x3a	; 58
    2c80:	1c 91       	ld	r17, X
    2c82:	da 97       	sbiw	r26, 0x3a	; 58
    2c84:	0e 94 40 38 	call	0x7080	; 0x7080 <__adddi3>
    2c88:	d3 96       	adiw	r26, 0x33	; 51
    2c8a:	2c 93       	st	X, r18
    2c8c:	d3 97       	sbiw	r26, 0x33	; 51
    2c8e:	d4 96       	adiw	r26, 0x34	; 52
    2c90:	3c 93       	st	X, r19
    2c92:	d4 97       	sbiw	r26, 0x34	; 52
    2c94:	d5 96       	adiw	r26, 0x35	; 53
    2c96:	4c 93       	st	X, r20
    2c98:	d5 97       	sbiw	r26, 0x35	; 53
    2c9a:	d6 96       	adiw	r26, 0x36	; 54
    2c9c:	5c 93       	st	X, r21
    2c9e:	d6 97       	sbiw	r26, 0x36	; 54
    2ca0:	d7 96       	adiw	r26, 0x37	; 55
    2ca2:	6c 93       	st	X, r22
    2ca4:	d7 97       	sbiw	r26, 0x37	; 55
    2ca6:	d8 96       	adiw	r26, 0x38	; 56
    2ca8:	7c 93       	st	X, r23
    2caa:	d8 97       	sbiw	r26, 0x38	; 56
    2cac:	d9 96       	adiw	r26, 0x39	; 57
    2cae:	8c 93       	st	X, r24
    2cb0:	d9 97       	sbiw	r26, 0x39	; 57
    2cb2:	da 96       	adiw	r26, 0x3a	; 58
    2cb4:	9c 93       	st	X, r25
    2cb6:	da 97       	sbiw	r26, 0x3a	; 58
    2cb8:	e9 81       	ldd	r30, Y+1	; 0x01
    2cba:	fa 81       	ldd	r31, Y+2	; 0x02
    2cbc:	8e 0e       	add	r8, r30
    2cbe:	9f 1e       	adc	r9, r31
    2cc0:	a9 84       	ldd	r10, Y+9	; 0x09
    2cc2:	ba 84       	ldd	r11, Y+10	; 0x0a
    2cc4:	8a 14       	cp	r8, r10
    2cc6:	9b 04       	cpc	r9, r11
    2cc8:	d8 f0       	brcs	.+54     	; 0x2d00 <fat_read_file+0x328>
    2cca:	b3 01       	movw	r22, r6
    2ccc:	a2 01       	movw	r20, r4
    2cce:	8d 91       	ld	r24, X+
    2cd0:	9c 91       	ld	r25, X
    2cd2:	0e 94 73 09 	call	0x12e6	; 0x12e6 <fat_get_next_cluster>
    2cd6:	2b 01       	movw	r4, r22
    2cd8:	3c 01       	movw	r6, r24
    2cda:	67 2b       	or	r22, r23
    2cdc:	68 2b       	or	r22, r24
    2cde:	69 2b       	or	r22, r25
    2ce0:	69 f4       	brne	.+26     	; 0x2cfc <fat_read_file+0x324>
    2ce2:	af 89       	ldd	r26, Y+23	; 0x17
    2ce4:	b8 8d       	ldd	r27, Y+24	; 0x18
    2ce6:	db 96       	adiw	r26, 0x3b	; 59
    2ce8:	1d 92       	st	X+, r1
    2cea:	1d 92       	st	X+, r1
    2cec:	1d 92       	st	X+, r1
    2cee:	1c 92       	st	X, r1
    2cf0:	de 97       	sbiw	r26, 0x3e	; 62
    2cf2:	89 89       	ldd	r24, Y+17	; 0x11
    2cf4:	9a 89       	ldd	r25, Y+18	; 0x12
    2cf6:	82 19       	sub	r24, r2
    2cf8:	93 09       	sbc	r25, r3
    2cfa:	11 c0       	rjmp	.+34     	; 0x2d1e <fat_read_file+0x346>
    2cfc:	1a 82       	std	Y+2, r1	; 0x02
    2cfe:	19 82       	std	Y+1, r1	; 0x01
    2d00:	ef 89       	ldd	r30, Y+23	; 0x17
    2d02:	f8 8d       	ldd	r31, Y+24	; 0x18
    2d04:	43 ae       	std	Z+59, r4	; 0x3b
    2d06:	54 ae       	std	Z+60, r5	; 0x3c
    2d08:	65 ae       	std	Z+61, r6	; 0x3d
    2d0a:	76 ae       	std	Z+62, r7	; 0x3e
    2d0c:	21 14       	cp	r2, r1
    2d0e:	31 04       	cpc	r3, r1
    2d10:	09 f0       	breq	.+2      	; 0x2d14 <fat_read_file+0x33c>
    2d12:	59 cf       	rjmp	.-334    	; 0x2bc6 <fat_read_file+0x1ee>
    2d14:	89 89       	ldd	r24, Y+17	; 0x11
    2d16:	9a 89       	ldd	r25, Y+18	; 0x12
    2d18:	02 c0       	rjmp	.+4      	; 0x2d1e <fat_read_file+0x346>
    2d1a:	80 e0       	ldi	r24, 0x00	; 0
    2d1c:	90 e0       	ldi	r25, 0x00	; 0
    2d1e:	6a 96       	adiw	r28, 0x1a	; 26
    2d20:	0f b6       	in	r0, 0x3f	; 63
    2d22:	f8 94       	cli
    2d24:	de bf       	out	0x3e, r29	; 62
    2d26:	0f be       	out	0x3f, r0	; 63
    2d28:	cd bf       	out	0x3d, r28	; 61
    2d2a:	df 91       	pop	r29
    2d2c:	cf 91       	pop	r28
    2d2e:	1f 91       	pop	r17
    2d30:	0f 91       	pop	r16
    2d32:	ff 90       	pop	r15
    2d34:	ef 90       	pop	r14
    2d36:	df 90       	pop	r13
    2d38:	cf 90       	pop	r12
    2d3a:	bf 90       	pop	r11
    2d3c:	af 90       	pop	r10
    2d3e:	9f 90       	pop	r9
    2d40:	8f 90       	pop	r8
    2d42:	7f 90       	pop	r7
    2d44:	6f 90       	pop	r6
    2d46:	5f 90       	pop	r5
    2d48:	4f 90       	pop	r4
    2d4a:	3f 90       	pop	r3
    2d4c:	2f 90       	pop	r2
    2d4e:	08 95       	ret

00002d50 <fat_write_file>:
    2d50:	2f 92       	push	r2
    2d52:	3f 92       	push	r3
    2d54:	4f 92       	push	r4
    2d56:	5f 92       	push	r5
    2d58:	6f 92       	push	r6
    2d5a:	7f 92       	push	r7
    2d5c:	8f 92       	push	r8
    2d5e:	9f 92       	push	r9
    2d60:	af 92       	push	r10
    2d62:	bf 92       	push	r11
    2d64:	cf 92       	push	r12
    2d66:	df 92       	push	r13
    2d68:	ef 92       	push	r14
    2d6a:	ff 92       	push	r15
    2d6c:	0f 93       	push	r16
    2d6e:	1f 93       	push	r17
    2d70:	cf 93       	push	r28
    2d72:	df 93       	push	r29
    2d74:	cd b7       	in	r28, 0x3d	; 61
    2d76:	de b7       	in	r29, 0x3e	; 62
    2d78:	65 97       	sbiw	r28, 0x15	; 21
    2d7a:	0f b6       	in	r0, 0x3f	; 63
    2d7c:	f8 94       	cli
    2d7e:	de bf       	out	0x3e, r29	; 62
    2d80:	0f be       	out	0x3f, r0	; 63
    2d82:	cd bf       	out	0x3d, r28	; 61
    2d84:	9b 8b       	std	Y+19, r25	; 0x13
    2d86:	8a 8b       	std	Y+18, r24	; 0x12
    2d88:	7e 87       	std	Y+14, r23	; 0x0e
    2d8a:	6d 87       	std	Y+13, r22	; 0x0d
    2d8c:	58 8b       	std	Y+16, r21	; 0x10
    2d8e:	4f 87       	std	Y+15, r20	; 0x0f
    2d90:	89 2b       	or	r24, r25
    2d92:	19 f4       	brne	.+6      	; 0x2d9a <fat_write_file+0x4a>
    2d94:	8f ef       	ldi	r24, 0xFF	; 255
    2d96:	9f ef       	ldi	r25, 0xFF	; 255
    2d98:	f7 c1       	rjmp	.+1006   	; 0x3188 <fat_write_file+0x438>
    2d9a:	ed 84       	ldd	r14, Y+13	; 0x0d
    2d9c:	fe 84       	ldd	r15, Y+14	; 0x0e
    2d9e:	ef 28       	or	r14, r15
    2da0:	c9 f3       	breq	.-14     	; 0x2d94 <fat_write_file+0x44>
    2da2:	0f 85       	ldd	r16, Y+15	; 0x0f
    2da4:	18 89       	ldd	r17, Y+16	; 0x10
    2da6:	01 2b       	or	r16, r17
    2da8:	a9 f3       	breq	.-22     	; 0x2d94 <fat_write_file+0x44>
    2daa:	aa 89       	ldd	r26, Y+18	; 0x12
    2dac:	bb 89       	ldd	r27, Y+19	; 0x13
    2dae:	d3 96       	adiw	r26, 0x33	; 51
    2db0:	bc 91       	ld	r27, X
    2db2:	b9 83       	std	Y+1, r27	; 0x01
    2db4:	ea 89       	ldd	r30, Y+18	; 0x12
    2db6:	fb 89       	ldd	r31, Y+19	; 0x13
    2db8:	f4 a9       	ldd	r31, Z+52	; 0x34
    2dba:	fa 83       	std	Y+2, r31	; 0x02
    2dbc:	aa 89       	ldd	r26, Y+18	; 0x12
    2dbe:	bb 89       	ldd	r27, Y+19	; 0x13
    2dc0:	d5 96       	adiw	r26, 0x35	; 53
    2dc2:	bc 91       	ld	r27, X
    2dc4:	bb 83       	std	Y+3, r27	; 0x03
    2dc6:	ea 89       	ldd	r30, Y+18	; 0x12
    2dc8:	fb 89       	ldd	r31, Y+19	; 0x13
    2dca:	f6 a9       	ldd	r31, Z+54	; 0x36
    2dcc:	fc 83       	std	Y+4, r31	; 0x04
    2dce:	aa 89       	ldd	r26, Y+18	; 0x12
    2dd0:	bb 89       	ldd	r27, Y+19	; 0x13
    2dd2:	d7 96       	adiw	r26, 0x37	; 55
    2dd4:	bc 91       	ld	r27, X
    2dd6:	bd 83       	std	Y+5, r27	; 0x05
    2dd8:	ea 89       	ldd	r30, Y+18	; 0x12
    2dda:	fb 89       	ldd	r31, Y+19	; 0x13
    2ddc:	f0 ad       	ldd	r31, Z+56	; 0x38
    2dde:	fe 83       	std	Y+6, r31	; 0x06
    2de0:	aa 89       	ldd	r26, Y+18	; 0x12
    2de2:	bb 89       	ldd	r27, Y+19	; 0x13
    2de4:	d9 96       	adiw	r26, 0x39	; 57
    2de6:	bc 91       	ld	r27, X
    2de8:	bf 83       	std	Y+7, r27	; 0x07
    2dea:	ea 89       	ldd	r30, Y+18	; 0x12
    2dec:	fb 89       	ldd	r31, Y+19	; 0x13
    2dee:	f2 ad       	ldd	r31, Z+58	; 0x3a
    2df0:	f8 87       	std	Y+8, r31	; 0x08
    2df2:	ea 89       	ldd	r30, Y+18	; 0x12
    2df4:	fb 89       	ldd	r31, Y+19	; 0x13
    2df6:	87 a1       	ldd	r24, Z+39	; 0x27
    2df8:	90 a5       	ldd	r25, Z+40	; 0x28
    2dfa:	a1 a5       	ldd	r26, Z+41	; 0x29
    2dfc:	b2 a5       	ldd	r27, Z+42	; 0x2a
    2dfe:	1c 01       	movw	r2, r24
    2e00:	2d 01       	movw	r4, r26
    2e02:	29 81       	ldd	r18, Y+1	; 0x01
    2e04:	3a 81       	ldd	r19, Y+2	; 0x02
    2e06:	4b 81       	ldd	r20, Y+3	; 0x03
    2e08:	5c 81       	ldd	r21, Y+4	; 0x04
    2e0a:	6d 81       	ldd	r22, Y+5	; 0x05
    2e0c:	7e 81       	ldd	r23, Y+6	; 0x06
    2e0e:	8f 81       	ldd	r24, Y+7	; 0x07
    2e10:	98 85       	ldd	r25, Y+8	; 0x08
    2e12:	51 01       	movw	r10, r2
    2e14:	62 01       	movw	r12, r4
    2e16:	e1 2c       	mov	r14, r1
    2e18:	f1 2c       	mov	r15, r1
    2e1a:	00 e0       	ldi	r16, 0x00	; 0
    2e1c:	10 e0       	ldi	r17, 0x00	; 0
    2e1e:	0e 94 5e 38 	call	0x70bc	; 0x70bc <__cmpdi2>
    2e22:	11 f0       	breq	.+4      	; 0x2e28 <fat_write_file+0xd8>
    2e24:	08 f0       	brcs	.+2      	; 0x2e28 <fat_write_file+0xd8>
    2e26:	b6 cf       	rjmp	.-148    	; 0x2d94 <fat_write_file+0x44>
    2e28:	01 90       	ld	r0, Z+
    2e2a:	f0 81       	ld	r31, Z
    2e2c:	e0 2d       	mov	r30, r0
    2e2e:	e0 8c       	ldd	r14, Z+24	; 0x18
    2e30:	f1 8c       	ldd	r15, Z+25	; 0x19
    2e32:	fc 86       	std	Y+12, r15	; 0x0c
    2e34:	eb 86       	std	Y+11, r14	; 0x0b
    2e36:	aa 89       	ldd	r26, Y+18	; 0x12
    2e38:	bb 89       	ldd	r27, Y+19	; 0x13
    2e3a:	db 96       	adiw	r26, 0x3b	; 59
    2e3c:	4d 90       	ld	r4, X+
    2e3e:	5d 90       	ld	r5, X+
    2e40:	6d 90       	ld	r6, X+
    2e42:	7c 90       	ld	r7, X
    2e44:	de 97       	sbiw	r26, 0x3e	; 62
    2e46:	c7 01       	movw	r24, r14
    2e48:	01 97       	sbiw	r24, 0x01	; 1
    2e4a:	e9 80       	ldd	r14, Y+1	; 0x01
    2e4c:	fa 80       	ldd	r15, Y+2	; 0x02
    2e4e:	e8 22       	and	r14, r24
    2e50:	f9 22       	and	r15, r25
    2e52:	fa 86       	std	Y+10, r15	; 0x0a
    2e54:	e9 86       	std	Y+9, r14	; 0x09
    2e56:	41 14       	cp	r4, r1
    2e58:	51 04       	cpc	r5, r1
    2e5a:	61 04       	cpc	r6, r1
    2e5c:	71 04       	cpc	r7, r1
    2e5e:	09 f0       	breq	.+2      	; 0x2e62 <fat_write_file+0x112>
    2e60:	79 c0       	rjmp	.+242    	; 0x2f54 <fat_write_file+0x204>
    2e62:	93 96       	adiw	r26, 0x23	; 35
    2e64:	4d 90       	ld	r4, X+
    2e66:	5d 90       	ld	r5, X+
    2e68:	6d 90       	ld	r6, X+
    2e6a:	7c 90       	ld	r7, X
    2e6c:	96 97       	sbiw	r26, 0x26	; 38
    2e6e:	41 14       	cp	r4, r1
    2e70:	51 04       	cpc	r5, r1
    2e72:	61 04       	cpc	r6, r1
    2e74:	71 04       	cpc	r7, r1
    2e76:	11 f5       	brne	.+68     	; 0x2ebc <fat_write_file+0x16c>
    2e78:	8f 81       	ldd	r24, Y+7	; 0x07
    2e7a:	98 85       	ldd	r25, Y+8	; 0x08
    2e7c:	a0 e0       	ldi	r26, 0x00	; 0
    2e7e:	0e 94 67 38 	call	0x70ce	; 0x70ce <__cmpdi2_s8>
    2e82:	09 f0       	breq	.+2      	; 0x2e86 <fat_write_file+0x136>
    2e84:	87 cf       	rjmp	.-242    	; 0x2d94 <fat_write_file+0x44>
    2e86:	01 e0       	ldi	r16, 0x01	; 1
    2e88:	10 e0       	ldi	r17, 0x00	; 0
    2e8a:	20 e0       	ldi	r18, 0x00	; 0
    2e8c:	30 e0       	ldi	r19, 0x00	; 0
    2e8e:	40 e0       	ldi	r20, 0x00	; 0
    2e90:	50 e0       	ldi	r21, 0x00	; 0
    2e92:	ba 01       	movw	r22, r20
    2e94:	cf 01       	movw	r24, r30
    2e96:	0e 94 4a 0b 	call	0x1694	; 0x1694 <fat_append_clusters>
    2e9a:	2b 01       	movw	r4, r22
    2e9c:	3c 01       	movw	r6, r24
    2e9e:	aa 89       	ldd	r26, Y+18	; 0x12
    2ea0:	bb 89       	ldd	r27, Y+19	; 0x13
    2ea2:	93 96       	adiw	r26, 0x23	; 35
    2ea4:	6d 93       	st	X+, r22
    2ea6:	7d 93       	st	X+, r23
    2ea8:	8d 93       	st	X+, r24
    2eaa:	9c 93       	st	X, r25
    2eac:	96 97       	sbiw	r26, 0x26	; 38
    2eae:	67 2b       	or	r22, r23
    2eb0:	68 2b       	or	r22, r24
    2eb2:	69 2b       	or	r22, r25
    2eb4:	19 f4       	brne	.+6      	; 0x2ebc <fat_write_file+0x16c>
    2eb6:	80 e0       	ldi	r24, 0x00	; 0
    2eb8:	90 e0       	ldi	r25, 0x00	; 0
    2eba:	66 c1       	rjmp	.+716    	; 0x3188 <fat_write_file+0x438>
    2ebc:	ea 89       	ldd	r30, Y+18	; 0x12
    2ebe:	fb 89       	ldd	r31, Y+19	; 0x13
    2ec0:	13 a9       	ldd	r17, Z+51	; 0x33
    2ec2:	b4 a9       	ldd	r27, Z+52	; 0x34
    2ec4:	05 a9       	ldd	r16, Z+53	; 0x35
    2ec6:	f6 a8       	ldd	r15, Z+54	; 0x36
    2ec8:	67 a9       	ldd	r22, Z+55	; 0x37
    2eca:	70 ad       	ldd	r23, Z+56	; 0x38
    2ecc:	21 2f       	mov	r18, r17
    2ece:	3b 2f       	mov	r19, r27
    2ed0:	40 2f       	mov	r20, r16
    2ed2:	5f 2d       	mov	r21, r15
    2ed4:	81 ad       	ldd	r24, Z+57	; 0x39
    2ed6:	92 ad       	ldd	r25, Z+58	; 0x3a
    2ed8:	a0 e0       	ldi	r26, 0x00	; 0
    2eda:	0e 94 67 38 	call	0x70ce	; 0x70ce <__cmpdi2_s8>
    2ede:	d1 f1       	breq	.+116    	; 0x2f54 <fat_write_file+0x204>
    2ee0:	81 2e       	mov	r8, r17
    2ee2:	93 2e       	mov	r9, r19
    2ee4:	a0 2e       	mov	r10, r16
    2ee6:	bf 2c       	mov	r11, r15
    2ee8:	0b 85       	ldd	r16, Y+11	; 0x0b
    2eea:	1c 85       	ldd	r17, Y+12	; 0x0c
    2eec:	68 01       	movw	r12, r16
    2eee:	e1 2c       	mov	r14, r1
    2ef0:	f1 2c       	mov	r15, r1
    2ef2:	8c 14       	cp	r8, r12
    2ef4:	9d 04       	cpc	r9, r13
    2ef6:	ae 04       	cpc	r10, r14
    2ef8:	bf 04       	cpc	r11, r15
    2efa:	60 f1       	brcs	.+88     	; 0x2f54 <fat_write_file+0x204>
    2efc:	8c 18       	sub	r8, r12
    2efe:	9d 08       	sbc	r9, r13
    2f00:	ae 08       	sbc	r10, r14
    2f02:	bf 08       	sbc	r11, r15
    2f04:	b3 01       	movw	r22, r6
    2f06:	a2 01       	movw	r20, r4
    2f08:	aa 89       	ldd	r26, Y+18	; 0x12
    2f0a:	bb 89       	ldd	r27, Y+19	; 0x13
    2f0c:	8d 91       	ld	r24, X+
    2f0e:	9c 91       	ld	r25, X
    2f10:	0e 94 73 09 	call	0x12e6	; 0x12e6 <fat_get_next_cluster>
    2f14:	61 15       	cp	r22, r1
    2f16:	71 05       	cpc	r23, r1
    2f18:	81 05       	cpc	r24, r1
    2f1a:	91 05       	cpc	r25, r1
    2f1c:	c1 f4       	brne	.+48     	; 0x2f4e <fat_write_file+0x1fe>
    2f1e:	81 14       	cp	r8, r1
    2f20:	91 04       	cpc	r9, r1
    2f22:	a1 04       	cpc	r10, r1
    2f24:	b1 04       	cpc	r11, r1
    2f26:	09 f0       	breq	.+2      	; 0x2f2a <fat_write_file+0x1da>
    2f28:	35 cf       	rjmp	.-406    	; 0x2d94 <fat_write_file+0x44>
    2f2a:	01 e0       	ldi	r16, 0x01	; 1
    2f2c:	10 e0       	ldi	r17, 0x00	; 0
    2f2e:	20 e0       	ldi	r18, 0x00	; 0
    2f30:	30 e0       	ldi	r19, 0x00	; 0
    2f32:	b3 01       	movw	r22, r6
    2f34:	a2 01       	movw	r20, r4
    2f36:	ea 89       	ldd	r30, Y+18	; 0x12
    2f38:	fb 89       	ldd	r31, Y+19	; 0x13
    2f3a:	80 81       	ld	r24, Z
    2f3c:	91 81       	ldd	r25, Z+1	; 0x01
    2f3e:	0e 94 4a 0b 	call	0x1694	; 0x1694 <fat_append_clusters>
    2f42:	61 15       	cp	r22, r1
    2f44:	71 05       	cpc	r23, r1
    2f46:	81 05       	cpc	r24, r1
    2f48:	91 05       	cpc	r25, r1
    2f4a:	09 f4       	brne	.+2      	; 0x2f4e <fat_write_file+0x1fe>
    2f4c:	b4 cf       	rjmp	.-152    	; 0x2eb6 <fat_write_file+0x166>
    2f4e:	2b 01       	movw	r4, r22
    2f50:	3c 01       	movw	r6, r24
    2f52:	cf cf       	rjmp	.-98     	; 0x2ef2 <fat_write_file+0x1a2>
    2f54:	2f 84       	ldd	r2, Y+15	; 0x0f
    2f56:	38 88       	ldd	r3, Y+16	; 0x10
    2f58:	aa 89       	ldd	r26, Y+18	; 0x12
    2f5a:	bb 89       	ldd	r27, Y+19	; 0x13
    2f5c:	ed 90       	ld	r14, X+
    2f5e:	fc 90       	ld	r15, X
    2f60:	b3 01       	movw	r22, r6
    2f62:	a2 01       	movw	r20, r4
    2f64:	c7 01       	movw	r24, r14
    2f66:	0e 94 55 0d 	call	0x1aaa	; 0x1aaa <fat_cluster_offset>
    2f6a:	59 01       	movw	r10, r18
    2f6c:	6a 01       	movw	r12, r20
    2f6e:	69 83       	std	Y+1, r22	; 0x01
    2f70:	79 8b       	std	Y+17, r23	; 0x11
    2f72:	8c 01       	movw	r16, r24
    2f74:	8b 84       	ldd	r8, Y+11	; 0x0b
    2f76:	9c 84       	ldd	r9, Y+12	; 0x0c
    2f78:	e9 85       	ldd	r30, Y+9	; 0x09
    2f7a:	fa 85       	ldd	r31, Y+10	; 0x0a
    2f7c:	8e 1a       	sub	r8, r30
    2f7e:	9f 0a       	sbc	r9, r31
    2f80:	28 14       	cp	r2, r8
    2f82:	39 04       	cpc	r3, r9
    2f84:	08 f4       	brcc	.+2      	; 0x2f88 <fat_write_file+0x238>
    2f86:	41 01       	movw	r8, r2
    2f88:	d7 01       	movw	r26, r14
    2f8a:	0d 90       	ld	r0, X+
    2f8c:	bc 91       	ld	r27, X
    2f8e:	a0 2d       	mov	r26, r0
    2f90:	bd 8b       	std	Y+21, r27	; 0x15
    2f92:	ac 8b       	std	Y+20, r26	; 0x14
    2f94:	e9 85       	ldd	r30, Y+9	; 0x09
    2f96:	fa 85       	ldd	r31, Y+10	; 0x0a
    2f98:	9f 01       	movw	r18, r30
    2f9a:	40 e0       	ldi	r20, 0x00	; 0
    2f9c:	50 e0       	ldi	r21, 0x00	; 0
    2f9e:	60 e0       	ldi	r22, 0x00	; 0
    2fa0:	70 e0       	ldi	r23, 0x00	; 0
    2fa2:	80 e0       	ldi	r24, 0x00	; 0
    2fa4:	90 e0       	ldi	r25, 0x00	; 0
    2fa6:	e9 80       	ldd	r14, Y+1	; 0x01
    2fa8:	f9 88       	ldd	r15, Y+17	; 0x11
    2faa:	0e 94 40 38 	call	0x7080	; 0x7080 <__adddi3>
    2fae:	ac 89       	ldd	r26, Y+20	; 0x14
    2fb0:	bd 89       	ldd	r27, Y+21	; 0x15
    2fb2:	14 96       	adiw	r26, 0x04	; 4
    2fb4:	ed 91       	ld	r30, X+
    2fb6:	fc 91       	ld	r31, X
    2fb8:	15 97       	sbiw	r26, 0x05	; 5
    2fba:	74 01       	movw	r14, r8
    2fbc:	0d 85       	ldd	r16, Y+13	; 0x0d
    2fbe:	1e 85       	ldd	r17, Y+14	; 0x0e
    2fc0:	09 95       	icall
    2fc2:	88 23       	and	r24, r24
    2fc4:	09 f4       	brne	.+2      	; 0x2fc8 <fat_write_file+0x278>
    2fc6:	83 c0       	rjmp	.+262    	; 0x30ce <fat_write_file+0x37e>
    2fc8:	ed 85       	ldd	r30, Y+13	; 0x0d
    2fca:	fe 85       	ldd	r31, Y+14	; 0x0e
    2fcc:	e8 0d       	add	r30, r8
    2fce:	f9 1d       	adc	r31, r9
    2fd0:	fe 87       	std	Y+14, r31	; 0x0e
    2fd2:	ed 87       	std	Y+13, r30	; 0x0d
    2fd4:	28 18       	sub	r2, r8
    2fd6:	39 08       	sbc	r3, r9
    2fd8:	94 01       	movw	r18, r8
    2fda:	40 e0       	ldi	r20, 0x00	; 0
    2fdc:	50 e0       	ldi	r21, 0x00	; 0
    2fde:	60 e0       	ldi	r22, 0x00	; 0
    2fe0:	70 e0       	ldi	r23, 0x00	; 0
    2fe2:	80 e0       	ldi	r24, 0x00	; 0
    2fe4:	90 e0       	ldi	r25, 0x00	; 0
    2fe6:	aa 89       	ldd	r26, Y+18	; 0x12
    2fe8:	bb 89       	ldd	r27, Y+19	; 0x13
    2fea:	d3 96       	adiw	r26, 0x33	; 51
    2fec:	ac 90       	ld	r10, X
    2fee:	d3 97       	sbiw	r26, 0x33	; 51
    2ff0:	d4 96       	adiw	r26, 0x34	; 52
    2ff2:	bc 90       	ld	r11, X
    2ff4:	d4 97       	sbiw	r26, 0x34	; 52
    2ff6:	d5 96       	adiw	r26, 0x35	; 53
    2ff8:	cc 90       	ld	r12, X
    2ffa:	d5 97       	sbiw	r26, 0x35	; 53
    2ffc:	d6 96       	adiw	r26, 0x36	; 54
    2ffe:	dc 90       	ld	r13, X
    3000:	d6 97       	sbiw	r26, 0x36	; 54
    3002:	d7 96       	adiw	r26, 0x37	; 55
    3004:	ec 90       	ld	r14, X
    3006:	d7 97       	sbiw	r26, 0x37	; 55
    3008:	d8 96       	adiw	r26, 0x38	; 56
    300a:	fc 90       	ld	r15, X
    300c:	d8 97       	sbiw	r26, 0x38	; 56
    300e:	d9 96       	adiw	r26, 0x39	; 57
    3010:	0c 91       	ld	r16, X
    3012:	d9 97       	sbiw	r26, 0x39	; 57
    3014:	da 96       	adiw	r26, 0x3a	; 58
    3016:	1c 91       	ld	r17, X
    3018:	da 97       	sbiw	r26, 0x3a	; 58
    301a:	0e 94 40 38 	call	0x7080	; 0x7080 <__adddi3>
    301e:	d3 96       	adiw	r26, 0x33	; 51
    3020:	2c 93       	st	X, r18
    3022:	d3 97       	sbiw	r26, 0x33	; 51
    3024:	d4 96       	adiw	r26, 0x34	; 52
    3026:	3c 93       	st	X, r19
    3028:	d4 97       	sbiw	r26, 0x34	; 52
    302a:	d5 96       	adiw	r26, 0x35	; 53
    302c:	4c 93       	st	X, r20
    302e:	d5 97       	sbiw	r26, 0x35	; 53
    3030:	d6 96       	adiw	r26, 0x36	; 54
    3032:	5c 93       	st	X, r21
    3034:	d6 97       	sbiw	r26, 0x36	; 54
    3036:	d7 96       	adiw	r26, 0x37	; 55
    3038:	6c 93       	st	X, r22
    303a:	d7 97       	sbiw	r26, 0x37	; 55
    303c:	d8 96       	adiw	r26, 0x38	; 56
    303e:	7c 93       	st	X, r23
    3040:	d8 97       	sbiw	r26, 0x38	; 56
    3042:	d9 96       	adiw	r26, 0x39	; 57
    3044:	8c 93       	st	X, r24
    3046:	d9 97       	sbiw	r26, 0x39	; 57
    3048:	da 96       	adiw	r26, 0x3a	; 58
    304a:	9c 93       	st	X, r25
    304c:	da 97       	sbiw	r26, 0x3a	; 58
    304e:	e9 85       	ldd	r30, Y+9	; 0x09
    3050:	fa 85       	ldd	r31, Y+10	; 0x0a
    3052:	8e 0e       	add	r8, r30
    3054:	9f 1e       	adc	r9, r31
    3056:	eb 84       	ldd	r14, Y+11	; 0x0b
    3058:	fc 84       	ldd	r15, Y+12	; 0x0c
    305a:	8e 14       	cp	r8, r14
    305c:	9f 04       	cpc	r9, r15
    305e:	58 f1       	brcs	.+86     	; 0x30b6 <fat_write_file+0x366>
    3060:	b3 01       	movw	r22, r6
    3062:	a2 01       	movw	r20, r4
    3064:	8d 91       	ld	r24, X+
    3066:	9c 91       	ld	r25, X
    3068:	0e 94 73 09 	call	0x12e6	; 0x12e6 <fat_get_next_cluster>
    306c:	61 15       	cp	r22, r1
    306e:	71 05       	cpc	r23, r1
    3070:	81 05       	cpc	r24, r1
    3072:	91 05       	cpc	r25, r1
    3074:	e1 f4       	brne	.+56     	; 0x30ae <fat_write_file+0x35e>
    3076:	21 14       	cp	r2, r1
    3078:	31 04       	cpc	r3, r1
    307a:	91 f0       	breq	.+36     	; 0x30a0 <fat_write_file+0x350>
    307c:	01 e0       	ldi	r16, 0x01	; 1
    307e:	10 e0       	ldi	r17, 0x00	; 0
    3080:	20 e0       	ldi	r18, 0x00	; 0
    3082:	30 e0       	ldi	r19, 0x00	; 0
    3084:	b3 01       	movw	r22, r6
    3086:	a2 01       	movw	r20, r4
    3088:	aa 89       	ldd	r26, Y+18	; 0x12
    308a:	bb 89       	ldd	r27, Y+19	; 0x13
    308c:	8d 91       	ld	r24, X+
    308e:	9c 91       	ld	r25, X
    3090:	0e 94 4a 0b 	call	0x1694	; 0x1694 <fat_append_clusters>
    3094:	2b 01       	movw	r4, r22
    3096:	3c 01       	movw	r6, r24
    3098:	67 2b       	or	r22, r23
    309a:	68 2b       	or	r22, r24
    309c:	69 2b       	or	r22, r25
    309e:	49 f4       	brne	.+18     	; 0x30b2 <fat_write_file+0x362>
    30a0:	ea 89       	ldd	r30, Y+18	; 0x12
    30a2:	fb 89       	ldd	r31, Y+19	; 0x13
    30a4:	13 ae       	std	Z+59, r1	; 0x3b
    30a6:	14 ae       	std	Z+60, r1	; 0x3c
    30a8:	15 ae       	std	Z+61, r1	; 0x3d
    30aa:	16 ae       	std	Z+62, r1	; 0x3e
    30ac:	10 c0       	rjmp	.+32     	; 0x30ce <fat_write_file+0x37e>
    30ae:	2b 01       	movw	r4, r22
    30b0:	3c 01       	movw	r6, r24
    30b2:	1a 86       	std	Y+10, r1	; 0x0a
    30b4:	19 86       	std	Y+9, r1	; 0x09
    30b6:	aa 89       	ldd	r26, Y+18	; 0x12
    30b8:	bb 89       	ldd	r27, Y+19	; 0x13
    30ba:	db 96       	adiw	r26, 0x3b	; 59
    30bc:	4d 92       	st	X+, r4
    30be:	5d 92       	st	X+, r5
    30c0:	6d 92       	st	X+, r6
    30c2:	7c 92       	st	X, r7
    30c4:	de 97       	sbiw	r26, 0x3e	; 62
    30c6:	21 14       	cp	r2, r1
    30c8:	31 04       	cpc	r3, r1
    30ca:	09 f0       	breq	.+2      	; 0x30ce <fat_write_file+0x37e>
    30cc:	45 cf       	rjmp	.-374    	; 0x2f58 <fat_write_file+0x208>
    30ce:	ea 89       	ldd	r30, Y+18	; 0x12
    30d0:	fb 89       	ldd	r31, Y+19	; 0x13
    30d2:	b3 a9       	ldd	r27, Z+51	; 0x33
    30d4:	a4 a9       	ldd	r26, Z+52	; 0x34
    30d6:	85 a8       	ldd	r8, Z+53	; 0x35
    30d8:	96 a8       	ldd	r9, Z+54	; 0x36
    30da:	67 a9       	ldd	r22, Z+55	; 0x37
    30dc:	70 ad       	ldd	r23, Z+56	; 0x38
    30de:	47 a0       	ldd	r4, Z+39	; 0x27
    30e0:	50 a4       	ldd	r5, Z+40	; 0x28
    30e2:	61 a4       	ldd	r6, Z+41	; 0x29
    30e4:	72 a4       	ldd	r7, Z+42	; 0x2a
    30e6:	83 01       	movw	r16, r6
    30e8:	72 01       	movw	r14, r4
    30ea:	20 e0       	ldi	r18, 0x00	; 0
    30ec:	30 e0       	ldi	r19, 0x00	; 0
    30ee:	a9 01       	movw	r20, r18
    30f0:	49 82       	std	Y+1, r4	; 0x01
    30f2:	fa 82       	std	Y+2, r15	; 0x02
    30f4:	0b 83       	std	Y+3, r16	; 0x03
    30f6:	1c 83       	std	Y+4, r17	; 0x04
    30f8:	2d 83       	std	Y+5, r18	; 0x05
    30fa:	3e 83       	std	Y+6, r19	; 0x06
    30fc:	4f 83       	std	Y+7, r20	; 0x07
    30fe:	58 87       	std	Y+8, r21	; 0x08
    3100:	2b 2f       	mov	r18, r27
    3102:	3a 2f       	mov	r19, r26
    3104:	a4 01       	movw	r20, r8
    3106:	81 ad       	ldd	r24, Z+57	; 0x39
    3108:	92 ad       	ldd	r25, Z+58	; 0x3a
    310a:	52 01       	movw	r10, r4
    310c:	68 01       	movw	r12, r16
    310e:	e1 2c       	mov	r14, r1
    3110:	f1 2c       	mov	r15, r1
    3112:	00 e0       	ldi	r16, 0x00	; 0
    3114:	10 e0       	ldi	r17, 0x00	; 0
    3116:	0e 94 5e 38 	call	0x70bc	; 0x70bc <__cmpdi2>
    311a:	91 f1       	breq	.+100    	; 0x3180 <fat_write_file+0x430>
    311c:	88 f1       	brcs	.+98     	; 0x3180 <fat_write_file+0x430>
    311e:	9d 01       	movw	r18, r26
    3120:	37 a3       	std	Z+39, r19	; 0x27
    3122:	20 a7       	std	Z+40, r18	; 0x28
    3124:	81 a6       	std	Z+41, r8	; 0x29
    3126:	92 a6       	std	Z+42, r9	; 0x2a
    3128:	bf 01       	movw	r22, r30
    312a:	6e 5f       	subi	r22, 0xFE	; 254
    312c:	7f 4f       	sbci	r23, 0xFF	; 255
    312e:	80 81       	ld	r24, Z
    3130:	91 81       	ldd	r25, Z+1	; 0x01
    3132:	0e 94 e6 0e 	call	0x1dcc	; 0x1dcc <fat_write_dir_entry>
    3136:	81 11       	cpse	r24, r1
    3138:	23 c0       	rjmp	.+70     	; 0x3180 <fat_write_file+0x430>
    313a:	aa 89       	ldd	r26, Y+18	; 0x12
    313c:	bb 89       	ldd	r27, Y+19	; 0x13
    313e:	d3 96       	adiw	r26, 0x33	; 51
    3140:	2d 90       	ld	r2, X+
    3142:	3c 90       	ld	r3, X
    3144:	d4 97       	sbiw	r26, 0x34	; 52
    3146:	24 18       	sub	r2, r4
    3148:	35 08       	sbc	r3, r5
    314a:	e9 81       	ldd	r30, Y+1	; 0x01
    314c:	d3 96       	adiw	r26, 0x33	; 51
    314e:	ec 93       	st	X, r30
    3150:	d3 97       	sbiw	r26, 0x33	; 51
    3152:	fa 81       	ldd	r31, Y+2	; 0x02
    3154:	d4 96       	adiw	r26, 0x34	; 52
    3156:	fc 93       	st	X, r31
    3158:	d4 97       	sbiw	r26, 0x34	; 52
    315a:	eb 80       	ldd	r14, Y+3	; 0x03
    315c:	d5 96       	adiw	r26, 0x35	; 53
    315e:	ec 92       	st	X, r14
    3160:	d5 97       	sbiw	r26, 0x35	; 53
    3162:	fc 80       	ldd	r15, Y+4	; 0x04
    3164:	d6 96       	adiw	r26, 0x36	; 54
    3166:	fc 92       	st	X, r15
    3168:	d6 97       	sbiw	r26, 0x36	; 54
    316a:	d7 96       	adiw	r26, 0x37	; 55
    316c:	1c 92       	st	X, r1
    316e:	d7 97       	sbiw	r26, 0x37	; 55
    3170:	d8 96       	adiw	r26, 0x38	; 56
    3172:	1c 92       	st	X, r1
    3174:	d8 97       	sbiw	r26, 0x38	; 56
    3176:	d9 96       	adiw	r26, 0x39	; 57
    3178:	1c 92       	st	X, r1
    317a:	d9 97       	sbiw	r26, 0x39	; 57
    317c:	da 96       	adiw	r26, 0x3a	; 58
    317e:	1c 92       	st	X, r1
    3180:	8f 85       	ldd	r24, Y+15	; 0x0f
    3182:	98 89       	ldd	r25, Y+16	; 0x10
    3184:	82 19       	sub	r24, r2
    3186:	93 09       	sbc	r25, r3
    3188:	65 96       	adiw	r28, 0x15	; 21
    318a:	0f b6       	in	r0, 0x3f	; 63
    318c:	f8 94       	cli
    318e:	de bf       	out	0x3e, r29	; 62
    3190:	0f be       	out	0x3f, r0	; 63
    3192:	cd bf       	out	0x3d, r28	; 61
    3194:	df 91       	pop	r29
    3196:	cf 91       	pop	r28
    3198:	1f 91       	pop	r17
    319a:	0f 91       	pop	r16
    319c:	ff 90       	pop	r15
    319e:	ef 90       	pop	r14
    31a0:	df 90       	pop	r13
    31a2:	cf 90       	pop	r12
    31a4:	bf 90       	pop	r11
    31a6:	af 90       	pop	r10
    31a8:	9f 90       	pop	r9
    31aa:	8f 90       	pop	r8
    31ac:	7f 90       	pop	r7
    31ae:	6f 90       	pop	r6
    31b0:	5f 90       	pop	r5
    31b2:	4f 90       	pop	r4
    31b4:	3f 90       	pop	r3
    31b6:	2f 90       	pop	r2
    31b8:	08 95       	ret

000031ba <fat_resize_file>:
    31ba:	2f 92       	push	r2
    31bc:	3f 92       	push	r3
    31be:	4f 92       	push	r4
    31c0:	5f 92       	push	r5
    31c2:	6f 92       	push	r6
    31c4:	7f 92       	push	r7
    31c6:	8f 92       	push	r8
    31c8:	9f 92       	push	r9
    31ca:	af 92       	push	r10
    31cc:	bf 92       	push	r11
    31ce:	cf 92       	push	r12
    31d0:	df 92       	push	r13
    31d2:	ef 92       	push	r14
    31d4:	ff 92       	push	r15
    31d6:	0f 93       	push	r16
    31d8:	1f 93       	push	r17
    31da:	cf 93       	push	r28
    31dc:	df 93       	push	r29
    31de:	cd b7       	in	r28, 0x3d	; 61
    31e0:	de b7       	in	r29, 0x3e	; 62
    31e2:	60 97       	sbiw	r28, 0x10	; 16
    31e4:	0f b6       	in	r0, 0x3f	; 63
    31e6:	f8 94       	cli
    31e8:	de bf       	out	0x3e, r29	; 62
    31ea:	0f be       	out	0x3f, r0	; 63
    31ec:	cd bf       	out	0x3d, r28	; 61
    31ee:	00 97       	sbiw	r24, 0x00	; 0
    31f0:	11 f4       	brne	.+4      	; 0x31f6 <fat_resize_file+0x3c>
    31f2:	80 e0       	ldi	r24, 0x00	; 0
    31f4:	93 c1       	rjmp	.+806    	; 0x351c <fat_resize_file+0x362>
    31f6:	4d 83       	std	Y+5, r20	; 0x05
    31f8:	5e 83       	std	Y+6, r21	; 0x06
    31fa:	6f 83       	std	Y+7, r22	; 0x07
    31fc:	78 87       	std	Y+8, r23	; 0x08
    31fe:	1c 01       	movw	r2, r24
    3200:	dc 01       	movw	r26, r24
    3202:	93 96       	adiw	r26, 0x23	; 35
    3204:	4d 90       	ld	r4, X+
    3206:	5d 90       	ld	r5, X+
    3208:	6d 90       	ld	r6, X+
    320a:	7c 90       	ld	r7, X
    320c:	96 97       	sbiw	r26, 0x26	; 38
    320e:	ed 91       	ld	r30, X+
    3210:	fc 91       	ld	r31, X
    3212:	80 8c       	ldd	r8, Z+24	; 0x18
    3214:	91 8c       	ldd	r9, Z+25	; 0x19
    3216:	41 14       	cp	r4, r1
    3218:	51 04       	cpc	r5, r1
    321a:	61 04       	cpc	r6, r1
    321c:	71 04       	cpc	r7, r1
    321e:	59 f0       	breq	.+22     	; 0x3236 <fat_resize_file+0x7c>
    3220:	2d 81       	ldd	r18, Y+5	; 0x05
    3222:	3e 81       	ldd	r19, Y+6	; 0x06
    3224:	4f 81       	ldd	r20, Y+7	; 0x07
    3226:	58 85       	ldd	r21, Y+8	; 0x08
    3228:	2d 87       	std	Y+13, r18	; 0x0d
    322a:	3e 87       	std	Y+14, r19	; 0x0e
    322c:	4f 87       	std	Y+15, r20	; 0x0f
    322e:	58 8b       	std	Y+16, r21	; 0x10
    3230:	a1 2c       	mov	r10, r1
    3232:	b1 2c       	mov	r11, r1
    3234:	24 c0       	rjmp	.+72     	; 0x327e <fat_resize_file+0xc4>
    3236:	4d 81       	ldd	r20, Y+5	; 0x05
    3238:	5e 81       	ldd	r21, Y+6	; 0x06
    323a:	6f 81       	ldd	r22, Y+7	; 0x07
    323c:	78 85       	ldd	r23, Y+8	; 0x08
    323e:	45 2b       	or	r20, r21
    3240:	46 2b       	or	r20, r22
    3242:	47 2b       	or	r20, r23
    3244:	69 f7       	brne	.-38     	; 0x3220 <fat_resize_file+0x66>
    3246:	16 c1       	rjmp	.+556    	; 0x3474 <fat_resize_file+0x2ba>
    3248:	b3 01       	movw	r22, r6
    324a:	a2 01       	movw	r20, r4
    324c:	d1 01       	movw	r26, r2
    324e:	8d 91       	ld	r24, X+
    3250:	9c 91       	ld	r25, X
    3252:	0e 94 73 09 	call	0x12e6	; 0x12e6 <fat_get_next_cluster>
    3256:	61 15       	cp	r22, r1
    3258:	71 05       	cpc	r23, r1
    325a:	81 05       	cpc	r24, r1
    325c:	91 05       	cpc	r25, r1
    325e:	09 f4       	brne	.+2      	; 0x3262 <fat_resize_file+0xa8>
    3260:	5a c1       	rjmp	.+692    	; 0x3516 <fat_resize_file+0x35c>
    3262:	2d 85       	ldd	r18, Y+13	; 0x0d
    3264:	3e 85       	ldd	r19, Y+14	; 0x0e
    3266:	4f 85       	ldd	r20, Y+15	; 0x0f
    3268:	58 89       	ldd	r21, Y+16	; 0x10
    326a:	28 19       	sub	r18, r8
    326c:	39 09       	sbc	r19, r9
    326e:	4a 09       	sbc	r20, r10
    3270:	5b 09       	sbc	r21, r11
    3272:	2d 87       	std	Y+13, r18	; 0x0d
    3274:	3e 87       	std	Y+14, r19	; 0x0e
    3276:	4f 87       	std	Y+15, r20	; 0x0f
    3278:	58 8b       	std	Y+16, r21	; 0x10
    327a:	2b 01       	movw	r4, r22
    327c:	3c 01       	movw	r6, r24
    327e:	4d 85       	ldd	r20, Y+13	; 0x0d
    3280:	5e 85       	ldd	r21, Y+14	; 0x0e
    3282:	6f 85       	ldd	r22, Y+15	; 0x0f
    3284:	78 89       	ldd	r23, Y+16	; 0x10
    3286:	84 16       	cp	r8, r20
    3288:	95 06       	cpc	r9, r21
    328a:	a6 06       	cpc	r10, r22
    328c:	b7 06       	cpc	r11, r23
    328e:	e0 f2       	brcs	.-72     	; 0x3248 <fat_resize_file+0x8e>
    3290:	73 01       	movw	r14, r6
    3292:	62 01       	movw	r12, r4
    3294:	41 14       	cp	r4, r1
    3296:	51 04       	cpc	r5, r1
    3298:	61 04       	cpc	r6, r1
    329a:	71 04       	cpc	r7, r1
    329c:	61 f5       	brne	.+88     	; 0x32f6 <fat_resize_file+0x13c>
    329e:	8d 85       	ldd	r24, Y+13	; 0x0d
    32a0:	9e 85       	ldd	r25, Y+14	; 0x0e
    32a2:	af 85       	ldd	r26, Y+15	; 0x0f
    32a4:	b8 89       	ldd	r27, Y+16	; 0x10
    32a6:	88 0d       	add	r24, r8
    32a8:	99 1d       	adc	r25, r9
    32aa:	aa 1d       	adc	r26, r10
    32ac:	bb 1d       	adc	r27, r11
    32ae:	bc 01       	movw	r22, r24
    32b0:	cd 01       	movw	r24, r26
    32b2:	61 50       	subi	r22, 0x01	; 1
    32b4:	71 09       	sbc	r23, r1
    32b6:	81 09       	sbc	r24, r1
    32b8:	91 09       	sbc	r25, r1
    32ba:	a5 01       	movw	r20, r10
    32bc:	94 01       	movw	r18, r8
    32be:	0e 94 6b 37 	call	0x6ed6	; 0x6ed6 <__udivmodsi4>
    32c2:	89 01       	movw	r16, r18
    32c4:	9a 01       	movw	r18, r20
    32c6:	b3 01       	movw	r22, r6
    32c8:	a2 01       	movw	r20, r4
    32ca:	d1 01       	movw	r26, r2
    32cc:	8d 91       	ld	r24, X+
    32ce:	9c 91       	ld	r25, X
    32d0:	0e 94 4a 0b 	call	0x1694	; 0x1694 <fat_append_clusters>
    32d4:	61 15       	cp	r22, r1
    32d6:	71 05       	cpc	r23, r1
    32d8:	81 05       	cpc	r24, r1
    32da:	91 05       	cpc	r25, r1
    32dc:	09 f4       	brne	.+2      	; 0x32e0 <fat_resize_file+0x126>
    32de:	89 cf       	rjmp	.-238    	; 0x31f2 <fat_resize_file+0x38>
    32e0:	45 28       	or	r4, r5
    32e2:	46 28       	or	r4, r6
    32e4:	47 28       	or	r4, r7
    32e6:	39 f4       	brne	.+14     	; 0x32f6 <fat_resize_file+0x13c>
    32e8:	f1 01       	movw	r30, r2
    32ea:	63 a3       	std	Z+35, r22	; 0x23
    32ec:	74 a3       	std	Z+36, r23	; 0x24
    32ee:	85 a3       	std	Z+37, r24	; 0x25
    32f0:	96 a3       	std	Z+38, r25	; 0x26
    32f2:	6b 01       	movw	r12, r22
    32f4:	7c 01       	movw	r14, r24
    32f6:	2d 81       	ldd	r18, Y+5	; 0x05
    32f8:	3e 81       	ldd	r19, Y+6	; 0x06
    32fa:	4f 81       	ldd	r20, Y+7	; 0x07
    32fc:	58 85       	ldd	r21, Y+8	; 0x08
    32fe:	d1 01       	movw	r26, r2
    3300:	97 96       	adiw	r26, 0x27	; 39
    3302:	2d 93       	st	X+, r18
    3304:	3d 93       	st	X+, r19
    3306:	4d 93       	st	X+, r20
    3308:	5c 93       	st	X, r21
    330a:	9a 97       	sbiw	r26, 0x2a	; 42
    330c:	23 2b       	or	r18, r19
    330e:	24 2b       	or	r18, r20
    3310:	25 2b       	or	r18, r21
    3312:	29 f4       	brne	.+10     	; 0x331e <fat_resize_file+0x164>
    3314:	f1 01       	movw	r30, r2
    3316:	13 a2       	std	Z+35, r1	; 0x23
    3318:	14 a2       	std	Z+36, r1	; 0x24
    331a:	15 a2       	std	Z+37, r1	; 0x25
    331c:	16 a2       	std	Z+38, r1	; 0x26
    331e:	b1 01       	movw	r22, r2
    3320:	6e 5f       	subi	r22, 0xFE	; 254
    3322:	7f 4f       	sbci	r23, 0xFF	; 255
    3324:	d1 01       	movw	r26, r2
    3326:	8d 91       	ld	r24, X+
    3328:	9c 91       	ld	r25, X
    332a:	0e 94 e6 0e 	call	0x1dcc	; 0x1dcc <fat_write_dir_entry>
    332e:	88 23       	and	r24, r24
    3330:	09 f4       	brne	.+2      	; 0x3334 <fat_resize_file+0x17a>
    3332:	5f cf       	rjmp	.-322    	; 0x31f2 <fat_resize_file+0x38>
    3334:	2d 81       	ldd	r18, Y+5	; 0x05
    3336:	3e 81       	ldd	r19, Y+6	; 0x06
    3338:	4f 81       	ldd	r20, Y+7	; 0x07
    333a:	58 85       	ldd	r21, Y+8	; 0x08
    333c:	23 2b       	or	r18, r19
    333e:	24 2b       	or	r18, r20
    3340:	25 2b       	or	r18, r21
    3342:	31 f4       	brne	.+12     	; 0x3350 <fat_resize_file+0x196>
    3344:	b7 01       	movw	r22, r14
    3346:	a6 01       	movw	r20, r12
    3348:	d1 01       	movw	r26, r2
    334a:	8d 91       	ld	r24, X+
    334c:	9c 91       	ld	r25, X
    334e:	90 c0       	rjmp	.+288    	; 0x3470 <fat_resize_file+0x2b6>
    3350:	2d 85       	ldd	r18, Y+13	; 0x0d
    3352:	3e 85       	ldd	r19, Y+14	; 0x0e
    3354:	4f 85       	ldd	r20, Y+15	; 0x0f
    3356:	58 89       	ldd	r21, Y+16	; 0x10
    3358:	82 16       	cp	r8, r18
    335a:	93 06       	cpc	r9, r19
    335c:	a4 06       	cpc	r10, r20
    335e:	b5 06       	cpc	r11, r21
    3360:	08 f4       	brcc	.+2      	; 0x3364 <fat_resize_file+0x1aa>
    3362:	88 c0       	rjmp	.+272    	; 0x3474 <fat_resize_file+0x2ba>
    3364:	d1 01       	movw	r26, r2
    3366:	8d 90       	ld	r8, X+
    3368:	9c 90       	ld	r9, X
    336a:	81 14       	cp	r8, r1
    336c:	91 04       	cpc	r9, r1
    336e:	09 f4       	brne	.+2      	; 0x3372 <fat_resize_file+0x1b8>
    3370:	81 c0       	rjmp	.+258    	; 0x3474 <fat_resize_file+0x2ba>
    3372:	b2 e0       	ldi	r27, 0x02	; 2
    3374:	cb 16       	cp	r12, r27
    3376:	d1 04       	cpc	r13, r1
    3378:	e1 04       	cpc	r14, r1
    337a:	f1 04       	cpc	r15, r1
    337c:	08 f4       	brcc	.+2      	; 0x3380 <fat_resize_file+0x1c6>
    337e:	7a c0       	rjmp	.+244    	; 0x3474 <fat_resize_file+0x2ba>
    3380:	b7 01       	movw	r22, r14
    3382:	a6 01       	movw	r20, r12
    3384:	c4 01       	movw	r24, r8
    3386:	0e 94 73 09 	call	0x12e6	; 0x12e6 <fat_get_next_cluster>
    338a:	2b 01       	movw	r4, r22
    338c:	3c 01       	movw	r6, r24
    338e:	d4 01       	movw	r26, r8
    3390:	ed 91       	ld	r30, X+
    3392:	fc 91       	ld	r31, X
    3394:	80 85       	ldd	r24, Z+8	; 0x08
    3396:	24 81       	ldd	r18, Z+4	; 0x04
    3398:	35 81       	ldd	r19, Z+5	; 0x05
    339a:	3e 87       	std	Y+14, r19	; 0x0e
    339c:	2d 87       	std	Y+13, r18	; 0x0d
    339e:	8b 30       	cpi	r24, 0x0B	; 11
    33a0:	71 f5       	brne	.+92     	; 0x33fe <fat_resize_file+0x244>
    33a2:	8f ef       	ldi	r24, 0xFF	; 255
    33a4:	9f ef       	ldi	r25, 0xFF	; 255
    33a6:	af ef       	ldi	r26, 0xFF	; 255
    33a8:	bf e0       	ldi	r27, 0x0F	; 15
    33aa:	89 83       	std	Y+1, r24	; 0x01
    33ac:	9a 83       	std	Y+2, r25	; 0x02
    33ae:	ab 83       	std	Y+3, r26	; 0x03
    33b0:	bc 83       	std	Y+4, r27	; 0x04
    33b2:	c7 01       	movw	r24, r14
    33b4:	b6 01       	movw	r22, r12
    33b6:	24 e0       	ldi	r18, 0x04	; 4
    33b8:	30 e0       	ldi	r19, 0x00	; 0
    33ba:	40 e0       	ldi	r20, 0x00	; 0
    33bc:	50 e0       	ldi	r21, 0x00	; 0
    33be:	0e 94 f7 37 	call	0x6fee	; 0x6fee <__umulsidi3>
    33c2:	d4 01       	movw	r26, r8
    33c4:	1a 96       	adiw	r26, 0x0a	; 10
    33c6:	ac 90       	ld	r10, X
    33c8:	1a 97       	sbiw	r26, 0x0a	; 10
    33ca:	1b 96       	adiw	r26, 0x0b	; 11
    33cc:	bc 90       	ld	r11, X
    33ce:	1b 97       	sbiw	r26, 0x0b	; 11
    33d0:	1c 96       	adiw	r26, 0x0c	; 12
    33d2:	cc 90       	ld	r12, X
    33d4:	1c 97       	sbiw	r26, 0x0c	; 12
    33d6:	1d 96       	adiw	r26, 0x0d	; 13
    33d8:	dc 90       	ld	r13, X
    33da:	1d 97       	sbiw	r26, 0x0d	; 13
    33dc:	1e 96       	adiw	r26, 0x0e	; 14
    33de:	ec 90       	ld	r14, X
    33e0:	1e 97       	sbiw	r26, 0x0e	; 14
    33e2:	1f 96       	adiw	r26, 0x0f	; 15
    33e4:	fc 90       	ld	r15, X
    33e6:	1f 97       	sbiw	r26, 0x0f	; 15
    33e8:	50 96       	adiw	r26, 0x10	; 16
    33ea:	0c 91       	ld	r16, X
    33ec:	50 97       	sbiw	r26, 0x10	; 16
    33ee:	51 96       	adiw	r26, 0x11	; 17
    33f0:	1c 91       	ld	r17, X
    33f2:	0e 94 40 38 	call	0x7080	; 0x7080 <__adddi3>
    33f6:	f4 e0       	ldi	r31, 0x04	; 4
    33f8:	ef 2e       	mov	r14, r31
    33fa:	f1 2c       	mov	r15, r1
    33fc:	29 c0       	rjmp	.+82     	; 0x3450 <fat_resize_file+0x296>
    33fe:	8f ef       	ldi	r24, 0xFF	; 255
    3400:	9f ef       	ldi	r25, 0xFF	; 255
    3402:	9a 83       	std	Y+2, r25	; 0x02
    3404:	89 83       	std	Y+1, r24	; 0x01
    3406:	c7 01       	movw	r24, r14
    3408:	b6 01       	movw	r22, r12
    340a:	22 e0       	ldi	r18, 0x02	; 2
    340c:	30 e0       	ldi	r19, 0x00	; 0
    340e:	40 e0       	ldi	r20, 0x00	; 0
    3410:	50 e0       	ldi	r21, 0x00	; 0
    3412:	0e 94 f7 37 	call	0x6fee	; 0x6fee <__umulsidi3>
    3416:	d4 01       	movw	r26, r8
    3418:	1a 96       	adiw	r26, 0x0a	; 10
    341a:	ac 90       	ld	r10, X
    341c:	1a 97       	sbiw	r26, 0x0a	; 10
    341e:	1b 96       	adiw	r26, 0x0b	; 11
    3420:	bc 90       	ld	r11, X
    3422:	1b 97       	sbiw	r26, 0x0b	; 11
    3424:	1c 96       	adiw	r26, 0x0c	; 12
    3426:	cc 90       	ld	r12, X
    3428:	1c 97       	sbiw	r26, 0x0c	; 12
    342a:	1d 96       	adiw	r26, 0x0d	; 13
    342c:	dc 90       	ld	r13, X
    342e:	1d 97       	sbiw	r26, 0x0d	; 13
    3430:	1e 96       	adiw	r26, 0x0e	; 14
    3432:	ec 90       	ld	r14, X
    3434:	1e 97       	sbiw	r26, 0x0e	; 14
    3436:	1f 96       	adiw	r26, 0x0f	; 15
    3438:	fc 90       	ld	r15, X
    343a:	1f 97       	sbiw	r26, 0x0f	; 15
    343c:	50 96       	adiw	r26, 0x10	; 16
    343e:	0c 91       	ld	r16, X
    3440:	50 97       	sbiw	r26, 0x10	; 16
    3442:	51 96       	adiw	r26, 0x11	; 17
    3444:	1c 91       	ld	r17, X
    3446:	0e 94 40 38 	call	0x7080	; 0x7080 <__adddi3>
    344a:	e2 e0       	ldi	r30, 0x02	; 2
    344c:	ee 2e       	mov	r14, r30
    344e:	f1 2c       	mov	r15, r1
    3450:	8e 01       	movw	r16, r28
    3452:	0f 5f       	subi	r16, 0xFF	; 255
    3454:	1f 4f       	sbci	r17, 0xFF	; 255
    3456:	ed 85       	ldd	r30, Y+13	; 0x0d
    3458:	fe 85       	ldd	r31, Y+14	; 0x0e
    345a:	09 95       	icall
    345c:	88 23       	and	r24, r24
    345e:	51 f0       	breq	.+20     	; 0x3474 <fat_resize_file+0x2ba>
    3460:	41 14       	cp	r4, r1
    3462:	51 04       	cpc	r5, r1
    3464:	61 04       	cpc	r6, r1
    3466:	71 04       	cpc	r7, r1
    3468:	29 f0       	breq	.+10     	; 0x3474 <fat_resize_file+0x2ba>
    346a:	b3 01       	movw	r22, r6
    346c:	a2 01       	movw	r20, r4
    346e:	c4 01       	movw	r24, r8
    3470:	0e 94 17 0a 	call	0x142e	; 0x142e <fat_free_clusters>
    3474:	4d 81       	ldd	r20, Y+5	; 0x05
    3476:	5e 81       	ldd	r21, Y+6	; 0x06
    3478:	6f 81       	ldd	r22, Y+7	; 0x07
    347a:	78 85       	ldd	r23, Y+8	; 0x08
    347c:	9a 01       	movw	r18, r20
    347e:	ab 01       	movw	r20, r22
    3480:	60 e0       	ldi	r22, 0x00	; 0
    3482:	70 e0       	ldi	r23, 0x00	; 0
    3484:	cb 01       	movw	r24, r22
    3486:	2d 83       	std	Y+5, r18	; 0x05
    3488:	3e 83       	std	Y+6, r19	; 0x06
    348a:	4f 83       	std	Y+7, r20	; 0x07
    348c:	58 87       	std	Y+8, r21	; 0x08
    348e:	69 87       	std	Y+9, r22	; 0x09
    3490:	7a 87       	std	Y+10, r23	; 0x0a
    3492:	8b 87       	std	Y+11, r24	; 0x0b
    3494:	9c 87       	std	Y+12, r25	; 0x0c
    3496:	d1 01       	movw	r26, r2
    3498:	d3 96       	adiw	r26, 0x33	; 51
    349a:	ac 90       	ld	r10, X
    349c:	d3 97       	sbiw	r26, 0x33	; 51
    349e:	d4 96       	adiw	r26, 0x34	; 52
    34a0:	bc 90       	ld	r11, X
    34a2:	d4 97       	sbiw	r26, 0x34	; 52
    34a4:	d5 96       	adiw	r26, 0x35	; 53
    34a6:	cc 90       	ld	r12, X
    34a8:	d5 97       	sbiw	r26, 0x35	; 53
    34aa:	d6 96       	adiw	r26, 0x36	; 54
    34ac:	dc 90       	ld	r13, X
    34ae:	d6 97       	sbiw	r26, 0x36	; 54
    34b0:	d7 96       	adiw	r26, 0x37	; 55
    34b2:	ec 90       	ld	r14, X
    34b4:	d7 97       	sbiw	r26, 0x37	; 55
    34b6:	d8 96       	adiw	r26, 0x38	; 56
    34b8:	fc 90       	ld	r15, X
    34ba:	d8 97       	sbiw	r26, 0x38	; 56
    34bc:	d9 96       	adiw	r26, 0x39	; 57
    34be:	0c 91       	ld	r16, X
    34c0:	d9 97       	sbiw	r26, 0x39	; 57
    34c2:	da 96       	adiw	r26, 0x3a	; 58
    34c4:	1c 91       	ld	r17, X
    34c6:	da 97       	sbiw	r26, 0x3a	; 58
    34c8:	60 e0       	ldi	r22, 0x00	; 0
    34ca:	70 e0       	ldi	r23, 0x00	; 0
    34cc:	80 e0       	ldi	r24, 0x00	; 0
    34ce:	90 e0       	ldi	r25, 0x00	; 0
    34d0:	0e 94 5e 38 	call	0x70bc	; 0x70bc <__cmpdi2>
    34d4:	f0 f4       	brcc	.+60     	; 0x3512 <fat_resize_file+0x358>
    34d6:	d3 96       	adiw	r26, 0x33	; 51
    34d8:	2c 93       	st	X, r18
    34da:	d3 97       	sbiw	r26, 0x33	; 51
    34dc:	d4 96       	adiw	r26, 0x34	; 52
    34de:	3c 93       	st	X, r19
    34e0:	d4 97       	sbiw	r26, 0x34	; 52
    34e2:	d5 96       	adiw	r26, 0x35	; 53
    34e4:	4c 93       	st	X, r20
    34e6:	d5 97       	sbiw	r26, 0x35	; 53
    34e8:	d6 96       	adiw	r26, 0x36	; 54
    34ea:	5c 93       	st	X, r21
    34ec:	d6 97       	sbiw	r26, 0x36	; 54
    34ee:	d7 96       	adiw	r26, 0x37	; 55
    34f0:	1c 92       	st	X, r1
    34f2:	d7 97       	sbiw	r26, 0x37	; 55
    34f4:	d8 96       	adiw	r26, 0x38	; 56
    34f6:	1c 92       	st	X, r1
    34f8:	d8 97       	sbiw	r26, 0x38	; 56
    34fa:	d9 96       	adiw	r26, 0x39	; 57
    34fc:	1c 92       	st	X, r1
    34fe:	d9 97       	sbiw	r26, 0x39	; 57
    3500:	da 96       	adiw	r26, 0x3a	; 58
    3502:	1c 92       	st	X, r1
    3504:	da 97       	sbiw	r26, 0x3a	; 58
    3506:	db 96       	adiw	r26, 0x3b	; 59
    3508:	1d 92       	st	X+, r1
    350a:	1d 92       	st	X+, r1
    350c:	1d 92       	st	X+, r1
    350e:	1c 92       	st	X, r1
    3510:	de 97       	sbiw	r26, 0x3e	; 62
    3512:	81 e0       	ldi	r24, 0x01	; 1
    3514:	03 c0       	rjmp	.+6      	; 0x351c <fat_resize_file+0x362>
    3516:	73 01       	movw	r14, r6
    3518:	62 01       	movw	r12, r4
    351a:	c1 ce       	rjmp	.-638    	; 0x329e <fat_resize_file+0xe4>
    351c:	60 96       	adiw	r28, 0x10	; 16
    351e:	0f b6       	in	r0, 0x3f	; 63
    3520:	f8 94       	cli
    3522:	de bf       	out	0x3e, r29	; 62
    3524:	0f be       	out	0x3f, r0	; 63
    3526:	cd bf       	out	0x3d, r28	; 61
    3528:	df 91       	pop	r29
    352a:	cf 91       	pop	r28
    352c:	1f 91       	pop	r17
    352e:	0f 91       	pop	r16
    3530:	ff 90       	pop	r15
    3532:	ef 90       	pop	r14
    3534:	df 90       	pop	r13
    3536:	cf 90       	pop	r12
    3538:	bf 90       	pop	r11
    353a:	af 90       	pop	r10
    353c:	9f 90       	pop	r9
    353e:	8f 90       	pop	r8
    3540:	7f 90       	pop	r7
    3542:	6f 90       	pop	r6
    3544:	5f 90       	pop	r5
    3546:	4f 90       	pop	r4
    3548:	3f 90       	pop	r3
    354a:	2f 90       	pop	r2
    354c:	08 95       	ret

0000354e <fat_seek_file>:
    354e:	cf 92       	push	r12
    3550:	df 92       	push	r13
    3552:	ef 92       	push	r14
    3554:	ff 92       	push	r15
    3556:	0f 93       	push	r16
    3558:	1f 93       	push	r17
    355a:	cf 93       	push	r28
    355c:	df 93       	push	r29
    355e:	ec 01       	movw	r28, r24
    3560:	fb 01       	movw	r30, r22
    3562:	89 2b       	or	r24, r25
    3564:	09 f4       	brne	.+2      	; 0x3568 <fat_seek_file+0x1a>
    3566:	4d c0       	rjmp	.+154    	; 0x3602 <fat_seek_file+0xb4>
    3568:	30 97       	sbiw	r30, 0x00	; 0
    356a:	09 f4       	brne	.+2      	; 0x356e <fat_seek_file+0x20>
    356c:	4a c0       	rjmp	.+148    	; 0x3602 <fat_seek_file+0xb4>
    356e:	6b a9       	ldd	r22, Y+51	; 0x33
    3570:	5c a9       	ldd	r21, Y+52	; 0x34
    3572:	3d a9       	ldd	r19, Y+53	; 0x35
    3574:	2e a9       	ldd	r18, Y+54	; 0x36
    3576:	41 30       	cpi	r20, 0x01	; 1
    3578:	91 f0       	breq	.+36     	; 0x359e <fat_seek_file+0x50>
    357a:	60 f0       	brcs	.+24     	; 0x3594 <fat_seek_file+0x46>
    357c:	42 30       	cpi	r20, 0x02	; 2
    357e:	09 f0       	breq	.+2      	; 0x3582 <fat_seek_file+0x34>
    3580:	40 c0       	rjmp	.+128    	; 0x3602 <fat_seek_file+0xb4>
    3582:	c0 80       	ld	r12, Z
    3584:	d1 80       	ldd	r13, Z+1	; 0x01
    3586:	e2 80       	ldd	r14, Z+2	; 0x02
    3588:	f3 80       	ldd	r15, Z+3	; 0x03
    358a:	8f a1       	ldd	r24, Y+39	; 0x27
    358c:	98 a5       	ldd	r25, Y+40	; 0x28
    358e:	a9 a5       	ldd	r26, Y+41	; 0x29
    3590:	ba a5       	ldd	r27, Y+42	; 0x2a
    3592:	0d c0       	rjmp	.+26     	; 0x35ae <fat_seek_file+0x60>
    3594:	c0 80       	ld	r12, Z
    3596:	d1 80       	ldd	r13, Z+1	; 0x01
    3598:	e2 80       	ldd	r14, Z+2	; 0x02
    359a:	f3 80       	ldd	r15, Z+3	; 0x03
    359c:	0c c0       	rjmp	.+24     	; 0x35b6 <fat_seek_file+0x68>
    359e:	86 2f       	mov	r24, r22
    35a0:	95 2f       	mov	r25, r21
    35a2:	a3 2f       	mov	r26, r19
    35a4:	b2 2f       	mov	r27, r18
    35a6:	c0 80       	ld	r12, Z
    35a8:	d1 80       	ldd	r13, Z+1	; 0x01
    35aa:	e2 80       	ldd	r14, Z+2	; 0x02
    35ac:	f3 80       	ldd	r15, Z+3	; 0x03
    35ae:	c8 0e       	add	r12, r24
    35b0:	d9 1e       	adc	r13, r25
    35b2:	ea 1e       	adc	r14, r26
    35b4:	fb 1e       	adc	r15, r27
    35b6:	8f 01       	movw	r16, r30
    35b8:	8f a1       	ldd	r24, Y+39	; 0x27
    35ba:	98 a5       	ldd	r25, Y+40	; 0x28
    35bc:	a9 a5       	ldd	r26, Y+41	; 0x29
    35be:	ba a5       	ldd	r27, Y+42	; 0x2a
    35c0:	8c 15       	cp	r24, r12
    35c2:	9d 05       	cpc	r25, r13
    35c4:	ae 05       	cpc	r26, r14
    35c6:	bf 05       	cpc	r27, r15
    35c8:	a8 f0       	brcs	.+42     	; 0x35f4 <fat_seek_file+0xa6>
    35ca:	a7 01       	movw	r20, r14
    35cc:	96 01       	movw	r18, r12
    35ce:	cb aa       	std	Y+51, r12	; 0x33
    35d0:	3c ab       	std	Y+52, r19	; 0x34
    35d2:	4d ab       	std	Y+53, r20	; 0x35
    35d4:	5e ab       	std	Y+54, r21	; 0x36
    35d6:	1f aa       	std	Y+55, r1	; 0x37
    35d8:	18 ae       	std	Y+56, r1	; 0x38
    35da:	19 ae       	std	Y+57, r1	; 0x39
    35dc:	1a ae       	std	Y+58, r1	; 0x3a
    35de:	1b ae       	std	Y+59, r1	; 0x3b
    35e0:	1c ae       	std	Y+60, r1	; 0x3c
    35e2:	1d ae       	std	Y+61, r1	; 0x3d
    35e4:	1e ae       	std	Y+62, r1	; 0x3e
    35e6:	f8 01       	movw	r30, r16
    35e8:	c0 82       	st	Z, r12
    35ea:	d1 82       	std	Z+1, r13	; 0x01
    35ec:	e2 82       	std	Z+2, r14	; 0x02
    35ee:	f3 82       	std	Z+3, r15	; 0x03
    35f0:	81 e0       	ldi	r24, 0x01	; 1
    35f2:	08 c0       	rjmp	.+16     	; 0x3604 <fat_seek_file+0xb6>
    35f4:	b7 01       	movw	r22, r14
    35f6:	a6 01       	movw	r20, r12
    35f8:	ce 01       	movw	r24, r28
    35fa:	0e 94 dd 18 	call	0x31ba	; 0x31ba <fat_resize_file>
    35fe:	81 11       	cpse	r24, r1
    3600:	e4 cf       	rjmp	.-56     	; 0x35ca <fat_seek_file+0x7c>
    3602:	80 e0       	ldi	r24, 0x00	; 0
    3604:	df 91       	pop	r29
    3606:	cf 91       	pop	r28
    3608:	1f 91       	pop	r17
    360a:	0f 91       	pop	r16
    360c:	ff 90       	pop	r15
    360e:	ef 90       	pop	r14
    3610:	df 90       	pop	r13
    3612:	cf 90       	pop	r12
    3614:	08 95       	ret

00003616 <fat_open_dir>:
    3616:	cf 93       	push	r28
    3618:	df 93       	push	r29
    361a:	00 97       	sbiw	r24, 0x00	; 0
    361c:	99 f0       	breq	.+38     	; 0x3644 <fat_open_dir+0x2e>
    361e:	61 15       	cp	r22, r1
    3620:	71 05       	cpc	r23, r1
    3622:	81 f0       	breq	.+32     	; 0x3644 <fat_open_dir+0x2e>
    3624:	fb 01       	movw	r30, r22
    3626:	20 a1       	ldd	r18, Z+32	; 0x20
    3628:	24 ff       	sbrs	r18, 4
    362a:	0c c0       	rjmp	.+24     	; 0x3644 <fat_open_dir+0x2e>
    362c:	20 91 26 01 	lds	r18, 0x0126
    3630:	30 91 27 01 	lds	r19, 0x0127
    3634:	23 2b       	or	r18, r19
    3636:	49 f0       	breq	.+18     	; 0x364a <fat_open_dir+0x34>
    3638:	20 91 5f 01 	lds	r18, 0x015F
    363c:	30 91 60 01 	lds	r19, 0x0160
    3640:	23 2b       	or	r18, r19
    3642:	31 f0       	breq	.+12     	; 0x3650 <fat_open_dir+0x3a>
    3644:	80 e0       	ldi	r24, 0x00	; 0
    3646:	90 e0       	ldi	r25, 0x00	; 0
    3648:	1b c0       	rjmp	.+54     	; 0x3680 <fat_open_dir+0x6a>
    364a:	c6 e2       	ldi	r28, 0x26	; 38
    364c:	d1 e0       	ldi	r29, 0x01	; 1
    364e:	02 c0       	rjmp	.+4      	; 0x3654 <fat_open_dir+0x3e>
    3650:	cf e5       	ldi	r28, 0x5F	; 95
    3652:	d1 e0       	ldi	r29, 0x01	; 1
    3654:	de 01       	movw	r26, r28
    3656:	12 96       	adiw	r26, 0x02	; 2
    3658:	21 e3       	ldi	r18, 0x31	; 49
    365a:	fb 01       	movw	r30, r22
    365c:	01 90       	ld	r0, Z+
    365e:	0d 92       	st	X+, r0
    3660:	2a 95       	dec	r18
    3662:	e1 f7       	brne	.-8      	; 0x365c <fat_open_dir+0x46>
    3664:	99 83       	std	Y+1, r25	; 0x01
    3666:	88 83       	st	Y, r24
    3668:	fb 01       	movw	r30, r22
    366a:	81 a1       	ldd	r24, Z+33	; 0x21
    366c:	92 a1       	ldd	r25, Z+34	; 0x22
    366e:	a3 a1       	ldd	r26, Z+35	; 0x23
    3670:	b4 a1       	ldd	r27, Z+36	; 0x24
    3672:	8b ab       	std	Y+51, r24	; 0x33
    3674:	9c ab       	std	Y+52, r25	; 0x34
    3676:	ad ab       	std	Y+53, r26	; 0x35
    3678:	be ab       	std	Y+54, r27	; 0x36
    367a:	18 ae       	std	Y+56, r1	; 0x38
    367c:	1f aa       	std	Y+55, r1	; 0x37
    367e:	ce 01       	movw	r24, r28
    3680:	df 91       	pop	r29
    3682:	cf 91       	pop	r28
    3684:	08 95       	ret

00003686 <fat_close_dir>:
    3686:	00 97       	sbiw	r24, 0x00	; 0
    3688:	19 f0       	breq	.+6      	; 0x3690 <fat_close_dir+0xa>
    368a:	fc 01       	movw	r30, r24
    368c:	11 82       	std	Z+1, r1	; 0x01
    368e:	10 82       	st	Z, r1
    3690:	08 95       	ret

00003692 <fat_reset_dir>:
    3692:	fc 01       	movw	r30, r24
    3694:	89 2b       	or	r24, r25
    3696:	61 f0       	breq	.+24     	; 0x36b0 <fat_reset_dir+0x1e>
    3698:	83 a1       	ldd	r24, Z+35	; 0x23
    369a:	94 a1       	ldd	r25, Z+36	; 0x24
    369c:	a5 a1       	ldd	r26, Z+37	; 0x25
    369e:	b6 a1       	ldd	r27, Z+38	; 0x26
    36a0:	83 ab       	std	Z+51, r24	; 0x33
    36a2:	94 ab       	std	Z+52, r25	; 0x34
    36a4:	a5 ab       	std	Z+53, r26	; 0x35
    36a6:	b6 ab       	std	Z+54, r27	; 0x36
    36a8:	10 ae       	std	Z+56, r1	; 0x38
    36aa:	17 aa       	std	Z+55, r1	; 0x37
    36ac:	81 e0       	ldi	r24, 0x01	; 1
    36ae:	08 95       	ret
    36b0:	80 e0       	ldi	r24, 0x00	; 0
    36b2:	08 95       	ret

000036b4 <fat_read_dir>:
    36b4:	2f 92       	push	r2
    36b6:	3f 92       	push	r3
    36b8:	4f 92       	push	r4
    36ba:	5f 92       	push	r5
    36bc:	6f 92       	push	r6
    36be:	7f 92       	push	r7
    36c0:	8f 92       	push	r8
    36c2:	9f 92       	push	r9
    36c4:	af 92       	push	r10
    36c6:	bf 92       	push	r11
    36c8:	cf 92       	push	r12
    36ca:	df 92       	push	r13
    36cc:	ef 92       	push	r14
    36ce:	ff 92       	push	r15
    36d0:	0f 93       	push	r16
    36d2:	1f 93       	push	r17
    36d4:	cf 93       	push	r28
    36d6:	df 93       	push	r29
    36d8:	cd b7       	in	r28, 0x3d	; 61
    36da:	de b7       	in	r29, 0x3e	; 62
    36dc:	e6 97       	sbiw	r28, 0x36	; 54
    36de:	0f b6       	in	r0, 0x3f	; 63
    36e0:	f8 94       	cli
    36e2:	de bf       	out	0x3e, r29	; 62
    36e4:	0f be       	out	0x3f, r0	; 63
    36e6:	cd bf       	out	0x3d, r28	; 61
    36e8:	00 97       	sbiw	r24, 0x00	; 0
    36ea:	19 f1       	breq	.+70     	; 0x3732 <fat_read_dir+0x7e>
    36ec:	61 15       	cp	r22, r1
    36ee:	71 05       	cpc	r23, r1
    36f0:	01 f1       	breq	.+64     	; 0x3732 <fat_read_dir+0x7e>
    36f2:	9a a7       	std	Y+42, r25	; 0x2a
    36f4:	89 a7       	std	Y+41, r24	; 0x29
    36f6:	dc 01       	movw	r26, r24
    36f8:	2d 90       	ld	r2, X+
    36fa:	3c 90       	ld	r3, X
    36fc:	d1 01       	movw	r26, r2
    36fe:	58 96       	adiw	r26, 0x18	; 24
    3700:	0d 90       	ld	r0, X+
    3702:	bc 91       	ld	r27, X
    3704:	a0 2d       	mov	r26, r0
    3706:	bc a7       	std	Y+44, r27	; 0x2c
    3708:	ab a7       	std	Y+43, r26	; 0x2b
    370a:	dc 01       	movw	r26, r24
    370c:	d3 96       	adiw	r26, 0x33	; 51
    370e:	4d 90       	ld	r4, X+
    3710:	5d 90       	ld	r5, X+
    3712:	6d 90       	ld	r6, X+
    3714:	7c 90       	ld	r7, X
    3716:	d6 97       	sbiw	r26, 0x36	; 54
    3718:	d7 96       	adiw	r26, 0x37	; 55
    371a:	8d 91       	ld	r24, X+
    371c:	9c 91       	ld	r25, X
    371e:	d8 97       	sbiw	r26, 0x38	; 56
    3720:	2b a5       	ldd	r18, Y+43	; 0x2b
    3722:	3c a5       	ldd	r19, Y+44	; 0x2c
    3724:	82 17       	cp	r24, r18
    3726:	93 07       	cpc	r25, r19
    3728:	30 f0       	brcs	.+12     	; 0x3736 <fat_read_dir+0x82>
    372a:	89 a5       	ldd	r24, Y+41	; 0x29
    372c:	9a a5       	ldd	r25, Y+42	; 0x2a
    372e:	0e 94 49 1b 	call	0x3692	; 0x3692 <fat_reset_dir>
    3732:	80 e0       	ldi	r24, 0x00	; 0
    3734:	c8 c0       	rjmp	.+400    	; 0x38c6 <fat_read_dir+0x212>
    3736:	ae 01       	movw	r20, r28
    3738:	4f 5d       	subi	r20, 0xDF	; 223
    373a:	5f 4f       	sbci	r21, 0xFF	; 255
    373c:	26 e0       	ldi	r18, 0x06	; 6
    373e:	da 01       	movw	r26, r20
    3740:	1d 92       	st	X+, r1
    3742:	2a 95       	dec	r18
    3744:	e9 f7       	brne	.-6      	; 0x3740 <fat_read_dir+0x8c>
    3746:	21 e3       	ldi	r18, 0x31	; 49
    3748:	db 01       	movw	r26, r22
    374a:	1d 92       	st	X+, r1
    374c:	2a 95       	dec	r18
    374e:	e9 f7       	brne	.-6      	; 0x374a <fat_read_dir+0x96>
    3750:	7a a3       	std	Y+34, r23	; 0x22
    3752:	69 a3       	std	Y+33, r22	; 0x21
    3754:	41 14       	cp	r4, r1
    3756:	51 04       	cpc	r5, r1
    3758:	61 04       	cpc	r6, r1
    375a:	71 04       	cpc	r7, r1
    375c:	09 f0       	breq	.+2      	; 0x3760 <fat_read_dir+0xac>
    375e:	8f c0       	rjmp	.+286    	; 0x387e <fat_read_dir+0x1ca>
    3760:	d1 01       	movw	r26, r2
    3762:	ed 91       	ld	r30, X+
    3764:	fc 91       	ld	r31, X
    3766:	11 97       	sbiw	r26, 0x01	; 1
    3768:	20 85       	ldd	r18, Z+8	; 0x08
    376a:	2b 30       	cpi	r18, 0x0B	; 11
    376c:	39 f4       	brne	.+14     	; 0x377c <fat_read_dir+0xc8>
    376e:	9a 96       	adiw	r26, 0x2a	; 42
    3770:	4d 90       	ld	r4, X+
    3772:	5d 90       	ld	r5, X+
    3774:	6d 90       	ld	r6, X+
    3776:	7c 90       	ld	r7, X
    3778:	9d 97       	sbiw	r26, 0x2d	; 45
    377a:	81 c0       	rjmp	.+258    	; 0x387e <fat_read_dir+0x1ca>
    377c:	f1 01       	movw	r30, r2
    377e:	42 8d       	ldd	r20, Z+26	; 0x1a
    3780:	53 8d       	ldd	r21, Z+27	; 0x1b
    3782:	22 a1       	ldd	r18, Z+34	; 0x22
    3784:	33 a1       	ldd	r19, Z+35	; 0x23
    3786:	ba 01       	movw	r22, r20
    3788:	62 1b       	sub	r22, r18
    378a:	73 0b       	sbc	r23, r19
    378c:	7c a7       	std	Y+44, r23	; 0x2c
    378e:	6b a7       	std	Y+43, r22	; 0x2b
    3790:	76 c0       	rjmp	.+236    	; 0x387e <fat_read_dir+0x1ca>
    3792:	8e a1       	ldd	r24, Y+38	; 0x26
    3794:	81 11       	cpse	r24, r1
    3796:	88 c0       	rjmp	.+272    	; 0x38a8 <fat_read_dir+0x1f4>
    3798:	8b a5       	ldd	r24, Y+43	; 0x2b
    379a:	9c a5       	ldd	r25, Y+44	; 0x2c
    379c:	af a1       	ldd	r26, Y+39	; 0x27
    379e:	b8 a5       	ldd	r27, Y+40	; 0x28
    37a0:	8a 1b       	sub	r24, r26
    37a2:	9b 0b       	sbc	r25, r27
    37a4:	9e ab       	std	Y+54, r25	; 0x36
    37a6:	8d ab       	std	Y+53, r24	; 0x35
    37a8:	9d 01       	movw	r18, r26
    37aa:	40 e0       	ldi	r20, 0x00	; 0
    37ac:	50 e0       	ldi	r21, 0x00	; 0
    37ae:	60 e0       	ldi	r22, 0x00	; 0
    37b0:	70 e0       	ldi	r23, 0x00	; 0
    37b2:	cb 01       	movw	r24, r22
    37b4:	ad a7       	std	Y+45, r26	; 0x2d
    37b6:	3e a7       	std	Y+46, r19	; 0x2e
    37b8:	4f a7       	std	Y+47, r20	; 0x2f
    37ba:	58 ab       	std	Y+48, r21	; 0x30
    37bc:	69 ab       	std	Y+49, r22	; 0x31
    37be:	7a ab       	std	Y+50, r23	; 0x32
    37c0:	8b ab       	std	Y+51, r24	; 0x33
    37c2:	9c ab       	std	Y+52, r25	; 0x34
    37c4:	41 14       	cp	r4, r1
    37c6:	51 04       	cpc	r5, r1
    37c8:	61 04       	cpc	r6, r1
    37ca:	71 04       	cpc	r7, r1
    37cc:	09 f0       	breq	.+2      	; 0x37d0 <fat_read_dir+0x11c>
    37ce:	5a c0       	rjmp	.+180    	; 0x3884 <fat_read_dir+0x1d0>
    37d0:	40 e0       	ldi	r20, 0x00	; 0
    37d2:	50 e0       	ldi	r21, 0x00	; 0
    37d4:	60 e0       	ldi	r22, 0x00	; 0
    37d6:	70 e0       	ldi	r23, 0x00	; 0
    37d8:	80 e0       	ldi	r24, 0x00	; 0
    37da:	90 e0       	ldi	r25, 0x00	; 0
    37dc:	d1 01       	movw	r26, r2
    37de:	92 96       	adiw	r26, 0x22	; 34
    37e0:	ac 90       	ld	r10, X
    37e2:	92 97       	sbiw	r26, 0x22	; 34
    37e4:	93 96       	adiw	r26, 0x23	; 35
    37e6:	bc 90       	ld	r11, X
    37e8:	93 97       	sbiw	r26, 0x23	; 35
    37ea:	94 96       	adiw	r26, 0x24	; 36
    37ec:	cc 90       	ld	r12, X
    37ee:	94 97       	sbiw	r26, 0x24	; 36
    37f0:	95 96       	adiw	r26, 0x25	; 37
    37f2:	dc 90       	ld	r13, X
    37f4:	95 97       	sbiw	r26, 0x25	; 37
    37f6:	96 96       	adiw	r26, 0x26	; 38
    37f8:	ec 90       	ld	r14, X
    37fa:	96 97       	sbiw	r26, 0x26	; 38
    37fc:	97 96       	adiw	r26, 0x27	; 39
    37fe:	fc 90       	ld	r15, X
    3800:	97 97       	sbiw	r26, 0x27	; 39
    3802:	98 96       	adiw	r26, 0x28	; 40
    3804:	0c 91       	ld	r16, X
    3806:	98 97       	sbiw	r26, 0x28	; 40
    3808:	99 96       	adiw	r26, 0x29	; 41
    380a:	1c 91       	ld	r17, X
    380c:	0e 94 40 38 	call	0x7080	; 0x7080 <__adddi3>
    3810:	1c a2       	std	Y+36, r1	; 0x24
    3812:	1b a2       	std	Y+35, r1	; 0x23
    3814:	d1 01       	movw	r26, r2
    3816:	ed 91       	ld	r30, X+
    3818:	fc 91       	ld	r31, X
    381a:	02 80       	ldd	r0, Z+2	; 0x02
    381c:	f3 81       	ldd	r31, Z+3	; 0x03
    381e:	e0 2d       	mov	r30, r0
    3820:	de 01       	movw	r26, r28
    3822:	91 96       	adiw	r26, 0x21	; 33
    3824:	4d 01       	movw	r8, r26
    3826:	a5 ea       	ldi	r26, 0xA5	; 165
    3828:	aa 2e       	mov	r10, r26
    382a:	ad e0       	ldi	r26, 0x0D	; 13
    382c:	ba 2e       	mov	r11, r26
    382e:	cd a8       	ldd	r12, Y+53	; 0x35
    3830:	de a8       	ldd	r13, Y+54	; 0x36
    3832:	b0 e2       	ldi	r27, 0x20	; 32
    3834:	eb 2e       	mov	r14, r27
    3836:	f1 2c       	mov	r15, r1
    3838:	8e 01       	movw	r16, r28
    383a:	0f 5f       	subi	r16, 0xFF	; 255
    383c:	1f 4f       	sbci	r17, 0xFF	; 255
    383e:	09 95       	icall
    3840:	88 23       	and	r24, r24
    3842:	09 f4       	brne	.+2      	; 0x3846 <fat_read_dir+0x192>
    3844:	76 cf       	rjmp	.-276    	; 0x3732 <fat_read_dir+0x7e>
    3846:	8b a1       	ldd	r24, Y+35	; 0x23
    3848:	9c a1       	ldd	r25, Y+36	; 0x24
    384a:	ef a1       	ldd	r30, Y+39	; 0x27
    384c:	f8 a5       	ldd	r31, Y+40	; 0x28
    384e:	e8 0f       	add	r30, r24
    3850:	f9 1f       	adc	r31, r25
    3852:	f8 a7       	std	Y+40, r31	; 0x28
    3854:	ef a3       	std	Y+39, r30	; 0x27
    3856:	2b a5       	ldd	r18, Y+43	; 0x2b
    3858:	3c a5       	ldd	r19, Y+44	; 0x2c
    385a:	e2 17       	cp	r30, r18
    385c:	f3 07       	cpc	r31, r19
    385e:	08 f4       	brcc	.+2      	; 0x3862 <fat_read_dir+0x1ae>
    3860:	98 cf       	rjmp	.-208    	; 0x3792 <fat_read_dir+0xde>
    3862:	b3 01       	movw	r22, r6
    3864:	a2 01       	movw	r20, r4
    3866:	c1 01       	movw	r24, r2
    3868:	0e 94 73 09 	call	0x12e6	; 0x12e6 <fat_get_next_cluster>
    386c:	2b 01       	movw	r4, r22
    386e:	3c 01       	movw	r6, r24
    3870:	80 e0       	ldi	r24, 0x00	; 0
    3872:	90 e0       	ldi	r25, 0x00	; 0
    3874:	41 14       	cp	r4, r1
    3876:	51 04       	cpc	r5, r1
    3878:	61 04       	cpc	r6, r1
    387a:	71 04       	cpc	r7, r1
    387c:	89 f0       	breq	.+34     	; 0x38a0 <fat_read_dir+0x1ec>
    387e:	98 a7       	std	Y+40, r25	; 0x28
    3880:	8f a3       	std	Y+39, r24	; 0x27
    3882:	87 cf       	rjmp	.-242    	; 0x3792 <fat_read_dir+0xde>
    3884:	b3 01       	movw	r22, r6
    3886:	a2 01       	movw	r20, r4
    3888:	c1 01       	movw	r24, r2
    388a:	0e 94 55 0d 	call	0x1aaa	; 0x1aaa <fat_cluster_offset>
    388e:	ad a4       	ldd	r10, Y+45	; 0x2d
    3890:	be a4       	ldd	r11, Y+46	; 0x2e
    3892:	c1 2c       	mov	r12, r1
    3894:	d1 2c       	mov	r13, r1
    3896:	e1 2c       	mov	r14, r1
    3898:	f1 2c       	mov	r15, r1
    389a:	00 e0       	ldi	r16, 0x00	; 0
    389c:	10 e0       	ldi	r17, 0x00	; 0
    389e:	b6 cf       	rjmp	.-148    	; 0x380c <fat_read_dir+0x158>
    38a0:	8e a1       	ldd	r24, Y+38	; 0x26
    38a2:	88 23       	and	r24, r24
    38a4:	09 f4       	brne	.+2      	; 0x38a8 <fat_read_dir+0x1f4>
    38a6:	41 cf       	rjmp	.-382    	; 0x372a <fat_read_dir+0x76>
    38a8:	a9 a5       	ldd	r26, Y+41	; 0x29
    38aa:	ba a5       	ldd	r27, Y+42	; 0x2a
    38ac:	d3 96       	adiw	r26, 0x33	; 51
    38ae:	4d 92       	st	X+, r4
    38b0:	5d 92       	st	X+, r5
    38b2:	6d 92       	st	X+, r6
    38b4:	7c 92       	st	X, r7
    38b6:	d6 97       	sbiw	r26, 0x36	; 54
    38b8:	ef a1       	ldd	r30, Y+39	; 0x27
    38ba:	f8 a5       	ldd	r31, Y+40	; 0x28
    38bc:	d8 96       	adiw	r26, 0x38	; 56
    38be:	fc 93       	st	X, r31
    38c0:	ee 93       	st	-X, r30
    38c2:	d7 97       	sbiw	r26, 0x37	; 55
    38c4:	8e a1       	ldd	r24, Y+38	; 0x26
    38c6:	e6 96       	adiw	r28, 0x36	; 54
    38c8:	0f b6       	in	r0, 0x3f	; 63
    38ca:	f8 94       	cli
    38cc:	de bf       	out	0x3e, r29	; 62
    38ce:	0f be       	out	0x3f, r0	; 63
    38d0:	cd bf       	out	0x3d, r28	; 61
    38d2:	df 91       	pop	r29
    38d4:	cf 91       	pop	r28
    38d6:	1f 91       	pop	r17
    38d8:	0f 91       	pop	r16
    38da:	ff 90       	pop	r15
    38dc:	ef 90       	pop	r14
    38de:	df 90       	pop	r13
    38e0:	cf 90       	pop	r12
    38e2:	bf 90       	pop	r11
    38e4:	af 90       	pop	r10
    38e6:	9f 90       	pop	r9
    38e8:	8f 90       	pop	r8
    38ea:	7f 90       	pop	r7
    38ec:	6f 90       	pop	r6
    38ee:	5f 90       	pop	r5
    38f0:	4f 90       	pop	r4
    38f2:	3f 90       	pop	r3
    38f4:	2f 90       	pop	r2
    38f6:	08 95       	ret

000038f8 <fat_get_dir_entry_of_path>:
    38f8:	8f 92       	push	r8
    38fa:	9f 92       	push	r9
    38fc:	af 92       	push	r10
    38fe:	bf 92       	push	r11
    3900:	cf 92       	push	r12
    3902:	df 92       	push	r13
    3904:	ef 92       	push	r14
    3906:	ff 92       	push	r15
    3908:	0f 93       	push	r16
    390a:	1f 93       	push	r17
    390c:	cf 93       	push	r28
    390e:	df 93       	push	r29
    3910:	4c 01       	movw	r8, r24
    3912:	eb 01       	movw	r28, r22
    3914:	8a 01       	movw	r16, r20
    3916:	89 2b       	or	r24, r25
    3918:	09 f4       	brne	.+2      	; 0x391c <fat_get_dir_entry_of_path+0x24>
    391a:	69 c0       	rjmp	.+210    	; 0x39ee <fat_get_dir_entry_of_path+0xf6>
    391c:	20 97       	sbiw	r28, 0x00	; 0
    391e:	09 f4       	brne	.+2      	; 0x3922 <fat_get_dir_entry_of_path+0x2a>
    3920:	66 c0       	rjmp	.+204    	; 0x39ee <fat_get_dir_entry_of_path+0xf6>
    3922:	88 81       	ld	r24, Y
    3924:	88 23       	and	r24, r24
    3926:	09 f4       	brne	.+2      	; 0x392a <fat_get_dir_entry_of_path+0x32>
    3928:	62 c0       	rjmp	.+196    	; 0x39ee <fat_get_dir_entry_of_path+0xf6>
    392a:	45 2b       	or	r20, r21
    392c:	09 f4       	brne	.+2      	; 0x3930 <fat_get_dir_entry_of_path+0x38>
    392e:	5f c0       	rjmp	.+190    	; 0x39ee <fat_get_dir_entry_of_path+0xf6>
    3930:	8f 32       	cpi	r24, 0x2F	; 47
    3932:	09 f4       	brne	.+2      	; 0x3936 <fat_get_dir_entry_of_path+0x3e>
    3934:	21 96       	adiw	r28, 0x01	; 1
    3936:	81 e3       	ldi	r24, 0x31	; 49
    3938:	f8 01       	movw	r30, r16
    393a:	11 92       	st	Z+, r1
    393c:	8a 95       	dec	r24
    393e:	e9 f7       	brne	.-6      	; 0x393a <fat_get_dir_entry_of_path+0x42>
    3940:	80 e1       	ldi	r24, 0x10	; 16
    3942:	f8 01       	movw	r30, r16
    3944:	80 a3       	std	Z+32, r24	; 0x20
    3946:	88 81       	ld	r24, Y
    3948:	81 11       	cpse	r24, r1
    394a:	02 c0       	rjmp	.+4      	; 0x3950 <fat_get_dir_entry_of_path+0x58>
    394c:	81 e0       	ldi	r24, 0x01	; 1
    394e:	50 c0       	rjmp	.+160    	; 0x39f0 <fat_get_dir_entry_of_path+0xf8>
    3950:	b8 01       	movw	r22, r16
    3952:	c4 01       	movw	r24, r8
    3954:	0e 94 0b 1b 	call	0x3616	; 0x3616 <fat_open_dir>
    3958:	5c 01       	movw	r10, r24
    395a:	89 2b       	or	r24, r25
    395c:	09 f4       	brne	.+2      	; 0x3960 <fat_get_dir_entry_of_path+0x68>
    395e:	47 c0       	rjmp	.+142    	; 0x39ee <fat_get_dir_entry_of_path+0xf6>
    3960:	6f e2       	ldi	r22, 0x2F	; 47
    3962:	70 e0       	ldi	r23, 0x00	; 0
    3964:	ce 01       	movw	r24, r28
    3966:	0e 94 ee 38 	call	0x71dc	; 0x71dc <strchr>
    396a:	00 97       	sbiw	r24, 0x00	; 0
    396c:	41 f0       	breq	.+16     	; 0x397e <fat_get_dir_entry_of_path+0x86>
    396e:	e8 2e       	mov	r14, r24
    3970:	ec 1a       	sub	r14, r28
    3972:	6c 01       	movw	r12, r24
    3974:	2f ef       	ldi	r18, 0xFF	; 255
    3976:	c2 1a       	sub	r12, r18
    3978:	d2 0a       	sbc	r13, r18
    397a:	f1 2c       	mov	r15, r1
    397c:	16 c0       	rjmp	.+44     	; 0x39aa <fat_get_dir_entry_of_path+0xb2>
    397e:	fe 01       	movw	r30, r28
    3980:	01 90       	ld	r0, Z+
    3982:	00 20       	and	r0, r0
    3984:	e9 f7       	brne	.-6      	; 0x3980 <fat_get_dir_entry_of_path+0x88>
    3986:	31 97       	sbiw	r30, 0x01	; 1
    3988:	ec 1b       	sub	r30, r28
    398a:	fd 0b       	sbc	r31, r29
    398c:	ee 2e       	mov	r14, r30
    398e:	6e 01       	movw	r12, r28
    3990:	ce 0e       	add	r12, r30
    3992:	d1 1c       	adc	r13, r1
    3994:	f2 cf       	rjmp	.-28     	; 0x397a <fat_get_dir_entry_of_path+0x82>
    3996:	f8 01       	movw	r30, r16
    3998:	01 90       	ld	r0, Z+
    399a:	00 20       	and	r0, r0
    399c:	e9 f7       	brne	.-6      	; 0x3998 <fat_get_dir_entry_of_path+0xa0>
    399e:	31 97       	sbiw	r30, 0x01	; 1
    39a0:	e0 1b       	sub	r30, r16
    39a2:	f1 0b       	sbc	r31, r17
    39a4:	ee 15       	cp	r30, r14
    39a6:	ff 05       	cpc	r31, r15
    39a8:	39 f0       	breq	.+14     	; 0x39b8 <fat_get_dir_entry_of_path+0xc0>
    39aa:	b8 01       	movw	r22, r16
    39ac:	c5 01       	movw	r24, r10
    39ae:	0e 94 5a 1b 	call	0x36b4	; 0x36b4 <fat_read_dir>
    39b2:	81 11       	cpse	r24, r1
    39b4:	f0 cf       	rjmp	.-32     	; 0x3996 <fat_get_dir_entry_of_path+0x9e>
    39b6:	17 c0       	rjmp	.+46     	; 0x39e6 <fat_get_dir_entry_of_path+0xee>
    39b8:	a7 01       	movw	r20, r14
    39ba:	b8 01       	movw	r22, r16
    39bc:	ce 01       	movw	r24, r28
    39be:	0e 94 02 39 	call	0x7204	; 0x7204 <strncmp>
    39c2:	89 2b       	or	r24, r25
    39c4:	91 f7       	brne	.-28     	; 0x39aa <fat_get_dir_entry_of_path+0xb2>
    39c6:	c5 01       	movw	r24, r10
    39c8:	0e 94 43 1b 	call	0x3686	; 0x3686 <fat_close_dir>
    39cc:	ce 0d       	add	r28, r14
    39ce:	df 1d       	adc	r29, r15
    39d0:	88 81       	ld	r24, Y
    39d2:	88 23       	and	r24, r24
    39d4:	09 f4       	brne	.+2      	; 0x39d8 <fat_get_dir_entry_of_path+0xe0>
    39d6:	ba cf       	rjmp	.-140    	; 0x394c <fat_get_dir_entry_of_path+0x54>
    39d8:	f8 01       	movw	r30, r16
    39da:	80 a1       	ldd	r24, Z+32	; 0x20
    39dc:	84 ff       	sbrs	r24, 4
    39de:	07 c0       	rjmp	.+14     	; 0x39ee <fat_get_dir_entry_of_path+0xf6>
    39e0:	e6 01       	movw	r28, r12
    39e2:	a1 2c       	mov	r10, r1
    39e4:	b1 2c       	mov	r11, r1
    39e6:	c5 01       	movw	r24, r10
    39e8:	0e 94 43 1b 	call	0x3686	; 0x3686 <fat_close_dir>
    39ec:	ac cf       	rjmp	.-168    	; 0x3946 <fat_get_dir_entry_of_path+0x4e>
    39ee:	80 e0       	ldi	r24, 0x00	; 0
    39f0:	df 91       	pop	r29
    39f2:	cf 91       	pop	r28
    39f4:	1f 91       	pop	r17
    39f6:	0f 91       	pop	r16
    39f8:	ff 90       	pop	r15
    39fa:	ef 90       	pop	r14
    39fc:	df 90       	pop	r13
    39fe:	cf 90       	pop	r12
    3a00:	bf 90       	pop	r11
    3a02:	af 90       	pop	r10
    3a04:	9f 90       	pop	r9
    3a06:	8f 90       	pop	r8
    3a08:	08 95       	ret

00003a0a <fat_create_file>:
    3a0a:	cf 92       	push	r12
    3a0c:	df 92       	push	r13
    3a0e:	ef 92       	push	r14
    3a10:	ff 92       	push	r15
    3a12:	0f 93       	push	r16
    3a14:	1f 93       	push	r17
    3a16:	cf 93       	push	r28
    3a18:	df 93       	push	r29
    3a1a:	00 97       	sbiw	r24, 0x00	; 0
    3a1c:	09 f4       	brne	.+2      	; 0x3a20 <fat_create_file+0x16>
    3a1e:	46 c0       	rjmp	.+140    	; 0x3aac <fat_create_file+0xa2>
    3a20:	61 15       	cp	r22, r1
    3a22:	71 05       	cpc	r23, r1
    3a24:	09 f4       	brne	.+2      	; 0x3a28 <fat_create_file+0x1e>
    3a26:	42 c0       	rjmp	.+132    	; 0x3aac <fat_create_file+0xa2>
    3a28:	fb 01       	movw	r30, r22
    3a2a:	20 81       	ld	r18, Z
    3a2c:	22 23       	and	r18, r18
    3a2e:	f1 f1       	breq	.+124    	; 0x3aac <fat_create_file+0xa2>
    3a30:	ea 01       	movw	r28, r20
    3a32:	7b 01       	movw	r14, r22
    3a34:	8c 01       	movw	r16, r24
    3a36:	20 97       	sbiw	r28, 0x00	; 0
    3a38:	c9 f1       	breq	.+114    	; 0x3aac <fat_create_file+0xa2>
    3a3a:	be 01       	movw	r22, r28
    3a3c:	c8 01       	movw	r24, r16
    3a3e:	0e 94 5a 1b 	call	0x36b4	; 0x36b4 <fat_read_dir>
    3a42:	88 23       	and	r24, r24
    3a44:	59 f0       	breq	.+22     	; 0x3a5c <fat_create_file+0x52>
    3a46:	be 01       	movw	r22, r28
    3a48:	c7 01       	movw	r24, r14
    3a4a:	0e 94 f9 38 	call	0x71f2	; 0x71f2 <strcmp>
    3a4e:	89 2b       	or	r24, r25
    3a50:	a1 f7       	brne	.-24     	; 0x3a3a <fat_create_file+0x30>
    3a52:	c8 01       	movw	r24, r16
    3a54:	0e 94 49 1b 	call	0x3692	; 0x3692 <fat_reset_dir>
    3a58:	92 e0       	ldi	r25, 0x02	; 2
    3a5a:	29 c0       	rjmp	.+82     	; 0x3aae <fat_create_file+0xa4>
    3a5c:	f8 01       	movw	r30, r16
    3a5e:	c0 80       	ld	r12, Z
    3a60:	d1 80       	ldd	r13, Z+1	; 0x01
    3a62:	81 e3       	ldi	r24, 0x31	; 49
    3a64:	fe 01       	movw	r30, r28
    3a66:	11 92       	st	Z+, r1
    3a68:	8a 95       	dec	r24
    3a6a:	e9 f7       	brne	.-6      	; 0x3a66 <fat_create_file+0x5c>
    3a6c:	4f e1       	ldi	r20, 0x1F	; 31
    3a6e:	50 e0       	ldi	r21, 0x00	; 0
    3a70:	b7 01       	movw	r22, r14
    3a72:	ce 01       	movw	r24, r28
    3a74:	0e 94 10 39 	call	0x7220	; 0x7220 <strncpy>
    3a78:	b8 01       	movw	r22, r16
    3a7a:	6d 5d       	subi	r22, 0xDD	; 221
    3a7c:	7f 4f       	sbci	r23, 0xFF	; 255
    3a7e:	ae 01       	movw	r20, r28
    3a80:	c6 01       	movw	r24, r12
    3a82:	0e 94 ad 10 	call	0x215a	; 0x215a <fat_find_offset_for_dir_entry.isra.1>
    3a86:	29 a7       	std	Y+41, r18	; 0x29
    3a88:	3a a7       	std	Y+42, r19	; 0x2a
    3a8a:	4b a7       	std	Y+43, r20	; 0x2b
    3a8c:	5c a7       	std	Y+44, r21	; 0x2c
    3a8e:	6d a7       	std	Y+45, r22	; 0x2d
    3a90:	7e a7       	std	Y+46, r23	; 0x2e
    3a92:	8f a7       	std	Y+47, r24	; 0x2f
    3a94:	98 ab       	std	Y+48, r25	; 0x30
    3a96:	a0 e0       	ldi	r26, 0x00	; 0
    3a98:	0e 94 67 38 	call	0x70ce	; 0x70ce <__cmpdi2_s8>
    3a9c:	39 f0       	breq	.+14     	; 0x3aac <fat_create_file+0xa2>
    3a9e:	be 01       	movw	r22, r28
    3aa0:	c6 01       	movw	r24, r12
    3aa2:	0e 94 e6 0e 	call	0x1dcc	; 0x1dcc <fat_write_dir_entry>
    3aa6:	91 e0       	ldi	r25, 0x01	; 1
    3aa8:	81 11       	cpse	r24, r1
    3aaa:	01 c0       	rjmp	.+2      	; 0x3aae <fat_create_file+0xa4>
    3aac:	90 e0       	ldi	r25, 0x00	; 0
    3aae:	89 2f       	mov	r24, r25
    3ab0:	df 91       	pop	r29
    3ab2:	cf 91       	pop	r28
    3ab4:	1f 91       	pop	r17
    3ab6:	0f 91       	pop	r16
    3ab8:	ff 90       	pop	r15
    3aba:	ef 90       	pop	r14
    3abc:	df 90       	pop	r13
    3abe:	cf 90       	pop	r12
    3ac0:	08 95       	ret

00003ac2 <kt_out.part.0>:
    3ac2:	38 9a       	sbi	0x07, 0	; 7
    3ac4:	08 95       	ret

00003ac6 <kt_init>:
    3ac6:	40 98       	cbi	0x08, 0	; 8
    3ac8:	38 98       	cbi	0x07, 0	; 7
    3aca:	41 98       	cbi	0x08, 1	; 8
    3acc:	39 9a       	sbi	0x07, 1	; 7
    3ace:	08 95       	ret

00003ad0 <kt_crc>:
    3ad0:	fc 01       	movw	r30, r24
    3ad2:	80 e0       	ldi	r24, 0x00	; 0
    3ad4:	3b e0       	ldi	r19, 0x0B	; 11
    3ad6:	61 50       	subi	r22, 0x01	; 1
    3ad8:	70 f0       	brcs	.+28     	; 0x3af6 <kt_crc+0x26>
    3ada:	91 91       	ld	r25, Z+
    3adc:	89 27       	eor	r24, r25
    3ade:	98 e0       	ldi	r25, 0x08	; 8
    3ae0:	28 2f       	mov	r18, r24
    3ae2:	26 95       	lsr	r18
    3ae4:	80 ff       	sbrs	r24, 0
    3ae6:	03 c0       	rjmp	.+6      	; 0x3aee <kt_crc+0x1e>
    3ae8:	82 2f       	mov	r24, r18
    3aea:	83 27       	eor	r24, r19
    3aec:	01 c0       	rjmp	.+2      	; 0x3af0 <kt_crc+0x20>
    3aee:	82 2f       	mov	r24, r18
    3af0:	91 50       	subi	r25, 0x01	; 1
    3af2:	b1 f7       	brne	.-20     	; 0x3ae0 <kt_crc+0x10>
    3af4:	f0 cf       	rjmp	.-32     	; 0x3ad6 <kt_crc+0x6>
    3af6:	08 95       	ret

00003af8 <kt_crc_check>:
    3af8:	cf 93       	push	r28
    3afa:	df 93       	push	r29
    3afc:	ec 01       	movw	r28, r24
    3afe:	60 e1       	ldi	r22, 0x10	; 16
    3b00:	0e 94 68 1d 	call	0x3ad0	; 0x3ad0 <kt_crc>
    3b04:	28 2f       	mov	r18, r24
    3b06:	fe 01       	movw	r30, r28
    3b08:	ae 01       	movw	r20, r28
    3b0a:	40 5f       	subi	r20, 0xF0	; 240
    3b0c:	5f 4f       	sbci	r21, 0xFF	; 255
    3b0e:	de 01       	movw	r26, r28
    3b10:	90 e0       	ldi	r25, 0x00	; 0
    3b12:	8d 91       	ld	r24, X+
    3b14:	81 11       	cpse	r24, r1
    3b16:	9f 5f       	subi	r25, 0xFF	; 255
    3b18:	a4 17       	cp	r26, r20
    3b1a:	b5 07       	cpc	r27, r21
    3b1c:	d1 f7       	brne	.-12     	; 0x3b12 <kt_crc_check+0x1a>
    3b1e:	28 96       	adiw	r28, 0x08	; 8
    3b20:	de 01       	movw	r26, r28
    3b22:	31 91       	ld	r19, Z+
    3b24:	8d 91       	ld	r24, X+
    3b26:	38 13       	cpse	r19, r24
    3b28:	0a c0       	rjmp	.+20     	; 0x3b3e <kt_crc_check+0x46>
    3b2a:	ec 17       	cp	r30, r28
    3b2c:	fd 07       	cpc	r31, r29
    3b2e:	c9 f7       	brne	.-14     	; 0x3b22 <kt_crc_check+0x2a>
    3b30:	81 e0       	ldi	r24, 0x01	; 1
    3b32:	99 23       	and	r25, r25
    3b34:	29 f0       	breq	.+10     	; 0x3b40 <kt_crc_check+0x48>
    3b36:	21 11       	cpse	r18, r1
    3b38:	03 c0       	rjmp	.+6      	; 0x3b40 <kt_crc_check+0x48>
    3b3a:	80 e0       	ldi	r24, 0x00	; 0
    3b3c:	01 c0       	rjmp	.+2      	; 0x3b40 <kt_crc_check+0x48>
    3b3e:	81 e0       	ldi	r24, 0x01	; 1
    3b40:	df 91       	pop	r29
    3b42:	cf 91       	pop	r28
    3b44:	08 95       	ret

00003b46 <kt_out>:
    3b46:	81 11       	cpse	r24, r1
    3b48:	02 c0       	rjmp	.+4      	; 0x3b4e <kt_out+0x8>
    3b4a:	0c 94 61 1d 	jmp	0x3ac2	; 0x3ac2 <kt_out.part.0>
    3b4e:	38 98       	cbi	0x07, 0	; 7
    3b50:	08 95       	ret

00003b52 <kt_write_byte>:
    3b52:	cf 93       	push	r28
    3b54:	df 93       	push	r29
    3b56:	d8 2f       	mov	r29, r24
    3b58:	c8 e0       	ldi	r28, 0x08	; 8
    3b5a:	d0 ff       	sbrs	r29, 0
    3b5c:	07 c0       	rjmp	.+14     	; 0x3b6c <kt_write_byte+0x1a>
    3b5e:	0e 94 61 1d 	call	0x3ac2	; 0x3ac2 <kt_out.part.0>
    3b62:	8a e1       	ldi	r24, 0x1A	; 26
    3b64:	8a 95       	dec	r24
    3b66:	f1 f7       	brne	.-4      	; 0x3b64 <kt_write_byte+0x12>
    3b68:	00 c0       	rjmp	.+0      	; 0x3b6a <kt_write_byte+0x18>
    3b6a:	08 c0       	rjmp	.+16     	; 0x3b7c <kt_write_byte+0x2a>
    3b6c:	0e 94 61 1d 	call	0x3ac2	; 0x3ac2 <kt_out.part.0>
    3b70:	87 e6       	ldi	r24, 0x67	; 103
    3b72:	91 e0       	ldi	r25, 0x01	; 1
    3b74:	01 97       	sbiw	r24, 0x01	; 1
    3b76:	f1 f7       	brne	.-4      	; 0x3b74 <kt_write_byte+0x22>
    3b78:	00 c0       	rjmp	.+0      	; 0x3b7a <kt_write_byte+0x28>
    3b7a:	00 00       	nop
    3b7c:	81 e0       	ldi	r24, 0x01	; 1
    3b7e:	0e 94 a3 1d 	call	0x3b46	; 0x3b46 <kt_out>
    3b82:	8f e1       	ldi	r24, 0x1F	; 31
    3b84:	9b ec       	ldi	r25, 0xCB	; 203
    3b86:	01 97       	sbiw	r24, 0x01	; 1
    3b88:	f1 f7       	brne	.-4      	; 0x3b86 <kt_write_byte+0x34>
    3b8a:	00 c0       	rjmp	.+0      	; 0x3b8c <kt_write_byte+0x3a>
    3b8c:	00 00       	nop
    3b8e:	d6 95       	lsr	r29
    3b90:	c1 50       	subi	r28, 0x01	; 1
    3b92:	19 f7       	brne	.-58     	; 0x3b5a <kt_write_byte+0x8>
    3b94:	df 91       	pop	r29
    3b96:	cf 91       	pop	r28
    3b98:	08 95       	ret

00003b9a <kt_read_byte>:
    3b9a:	cf 93       	push	r28
    3b9c:	df 93       	push	r29
    3b9e:	d8 e0       	ldi	r29, 0x08	; 8
    3ba0:	c0 e0       	ldi	r28, 0x00	; 0
    3ba2:	0e 94 61 1d 	call	0x3ac2	; 0x3ac2 <kt_out.part.0>
    3ba6:	85 e3       	ldi	r24, 0x35	; 53
    3ba8:	8a 95       	dec	r24
    3baa:	f1 f7       	brne	.-4      	; 0x3ba8 <kt_read_byte+0xe>
    3bac:	00 00       	nop
    3bae:	81 e0       	ldi	r24, 0x01	; 1
    3bb0:	0e 94 a3 1d 	call	0x3b46	; 0x3b46 <kt_out>
    3bb4:	e5 e8       	ldi	r30, 0x85	; 133
    3bb6:	ea 95       	dec	r30
    3bb8:	f1 f7       	brne	.-4      	; 0x3bb6 <kt_read_byte+0x1c>
    3bba:	00 00       	nop
    3bbc:	86 b1       	in	r24, 0x06	; 6
    3bbe:	eb eb       	ldi	r30, 0xBB	; 187
    3bc0:	f2 e0       	ldi	r31, 0x02	; 2
    3bc2:	31 97       	sbiw	r30, 0x01	; 1
    3bc4:	f1 f7       	brne	.-4      	; 0x3bc2 <kt_read_byte+0x28>
    3bc6:	00 c0       	rjmp	.+0      	; 0x3bc8 <kt_read_byte+0x2e>
    3bc8:	00 00       	nop
    3bca:	c6 95       	lsr	r28
    3bcc:	80 fd       	sbrc	r24, 0
    3bce:	c0 68       	ori	r28, 0x80	; 128
    3bd0:	d1 50       	subi	r29, 0x01	; 1
    3bd2:	39 f7       	brne	.-50     	; 0x3ba2 <kt_read_byte+0x8>
    3bd4:	8c 2f       	mov	r24, r28
    3bd6:	df 91       	pop	r29
    3bd8:	cf 91       	pop	r28
    3bda:	08 95       	ret

00003bdc <kt_reset>:
    3bdc:	0e 94 61 1d 	call	0x3ac2	; 0x3ac2 <kt_out.part.0>
    3be0:	8f e9       	ldi	r24, 0x9F	; 159
    3be2:	9f e0       	ldi	r25, 0x0F	; 15
    3be4:	01 97       	sbiw	r24, 0x01	; 1
    3be6:	f1 f7       	brne	.-4      	; 0x3be4 <kt_reset+0x8>
    3be8:	00 c0       	rjmp	.+0      	; 0x3bea <kt_reset+0xe>
    3bea:	00 00       	nop
    3bec:	81 e0       	ldi	r24, 0x01	; 1
    3bee:	0e 94 a3 1d 	call	0x3b46	; 0x3b46 <kt_out>
    3bf2:	ef e3       	ldi	r30, 0x3F	; 63
    3bf4:	f1 e0       	ldi	r31, 0x01	; 1
    3bf6:	31 97       	sbiw	r30, 0x01	; 1
    3bf8:	f1 f7       	brne	.-4      	; 0x3bf6 <kt_reset+0x1a>
    3bfa:	00 c0       	rjmp	.+0      	; 0x3bfc <kt_reset+0x20>
    3bfc:	00 00       	nop
    3bfe:	30 9b       	sbis	0x06, 0	; 6
    3c00:	14 c0       	rjmp	.+40     	; 0x3c2a <kt_reset+0x4e>
    3c02:	96 e1       	ldi	r25, 0x16	; 22
    3c04:	26 b1       	in	r18, 0x06	; 6
    3c06:	82 2f       	mov	r24, r18
    3c08:	81 70       	andi	r24, 0x01	; 1
    3c0a:	20 ff       	sbrs	r18, 0
    3c0c:	07 c0       	rjmp	.+14     	; 0x3c1c <kt_reset+0x40>
    3c0e:	91 50       	subi	r25, 0x01	; 1
    3c10:	71 f0       	breq	.+28     	; 0x3c2e <kt_reset+0x52>
    3c12:	f5 e3       	ldi	r31, 0x35	; 53
    3c14:	fa 95       	dec	r31
    3c16:	f1 f7       	brne	.-4      	; 0x3c14 <kt_reset+0x38>
    3c18:	00 00       	nop
    3c1a:	f4 cf       	rjmp	.-24     	; 0x3c04 <kt_reset+0x28>
    3c1c:	ef eb       	ldi	r30, 0xBF	; 191
    3c1e:	f3 e0       	ldi	r31, 0x03	; 3
    3c20:	31 97       	sbiw	r30, 0x01	; 1
    3c22:	f1 f7       	brne	.-4      	; 0x3c20 <kt_reset+0x44>
    3c24:	00 c0       	rjmp	.+0      	; 0x3c26 <kt_reset+0x4a>
    3c26:	00 00       	nop
    3c28:	08 95       	ret
    3c2a:	81 e0       	ldi	r24, 0x01	; 1
    3c2c:	08 95       	ret
    3c2e:	82 e0       	ldi	r24, 0x02	; 2
    3c30:	08 95       	ret

00003c32 <kt_read_rom>:
    3c32:	8f 92       	push	r8
    3c34:	9f 92       	push	r9
    3c36:	af 92       	push	r10
    3c38:	bf 92       	push	r11
    3c3a:	cf 92       	push	r12
    3c3c:	df 92       	push	r13
    3c3e:	ef 92       	push	r14
    3c40:	ff 92       	push	r15
    3c42:	0f 93       	push	r16
    3c44:	1f 93       	push	r17
    3c46:	cf 93       	push	r28
    3c48:	df 93       	push	r29
    3c4a:	cd b7       	in	r28, 0x3d	; 61
    3c4c:	de b7       	in	r29, 0x3e	; 62
    3c4e:	60 97       	sbiw	r28, 0x10	; 16
    3c50:	0f b6       	in	r0, 0x3f	; 63
    3c52:	f8 94       	cli
    3c54:	de bf       	out	0x3e, r29	; 62
    3c56:	0f be       	out	0x3f, r0	; 63
    3c58:	cd bf       	out	0x3d, r28	; 61
    3c5a:	98 2e       	mov	r9, r24
    3c5c:	a9 2e       	mov	r10, r25
    3c5e:	0e 94 ee 1d 	call	0x3bdc	; 0x3bdc <kt_reset>
    3c62:	81 11       	cpse	r24, r1
    3c64:	23 c0       	rjmp	.+70     	; 0x3cac <kt_read_rom+0x7a>
    3c66:	8e 01       	movw	r16, r28
    3c68:	0f 5f       	subi	r16, 0xFF	; 255
    3c6a:	1f 4f       	sbci	r17, 0xFF	; 255
    3c6c:	68 01       	movw	r12, r16
    3c6e:	b0 2e       	mov	r11, r16
    3c70:	e1 2e       	mov	r14, r17
    3c72:	f0 2e       	mov	r15, r16
    3c74:	80 e1       	ldi	r24, 0x10	; 16
    3c76:	88 2e       	mov	r8, r24
    3c78:	80 0e       	add	r8, r16
    3c7a:	0e 94 cd 1d 	call	0x3b9a	; 0x3b9a <kt_read_byte>
    3c7e:	d6 01       	movw	r26, r12
    3c80:	8d 93       	st	X+, r24
    3c82:	6d 01       	movw	r12, r26
    3c84:	8a 12       	cpse	r8, r26
    3c86:	f9 cf       	rjmp	.-14     	; 0x3c7a <kt_read_rom+0x48>
    3c88:	e9 2d       	mov	r30, r9
    3c8a:	fa 2d       	mov	r31, r10
    3c8c:	28 e0       	ldi	r18, 0x08	; 8
    3c8e:	2f 0d       	add	r18, r15
    3c90:	d8 01       	movw	r26, r16
    3c92:	8d 91       	ld	r24, X+
    3c94:	8d 01       	movw	r16, r26
    3c96:	81 93       	st	Z+, r24
    3c98:	2a 13       	cpse	r18, r26
    3c9a:	fa cf       	rjmp	.-12     	; 0x3c90 <kt_read_rom+0x5e>
    3c9c:	8b 2d       	mov	r24, r11
    3c9e:	9e 2d       	mov	r25, r14
    3ca0:	0e 94 7c 1d 	call	0x3af8	; 0x3af8 <kt_crc_check>
    3ca4:	88 23       	and	r24, r24
    3ca6:	19 f0       	breq	.+6      	; 0x3cae <kt_read_rom+0x7c>
    3ca8:	82 e0       	ldi	r24, 0x02	; 2
    3caa:	01 c0       	rjmp	.+2      	; 0x3cae <kt_read_rom+0x7c>
    3cac:	81 e0       	ldi	r24, 0x01	; 1
    3cae:	60 96       	adiw	r28, 0x10	; 16
    3cb0:	0f b6       	in	r0, 0x3f	; 63
    3cb2:	f8 94       	cli
    3cb4:	de bf       	out	0x3e, r29	; 62
    3cb6:	0f be       	out	0x3f, r0	; 63
    3cb8:	cd bf       	out	0x3d, r28	; 61
    3cba:	df 91       	pop	r29
    3cbc:	cf 91       	pop	r28
    3cbe:	1f 91       	pop	r17
    3cc0:	0f 91       	pop	r16
    3cc2:	ff 90       	pop	r15
    3cc4:	ef 90       	pop	r14
    3cc6:	df 90       	pop	r13
    3cc8:	cf 90       	pop	r12
    3cca:	bf 90       	pop	r11
    3ccc:	af 90       	pop	r10
    3cce:	9f 90       	pop	r9
    3cd0:	8f 90       	pop	r8
    3cd2:	08 95       	ret

00003cd4 <kt_write_rom>:
    3cd4:	cf 92       	push	r12
    3cd6:	df 92       	push	r13
    3cd8:	ef 92       	push	r14
    3cda:	ff 92       	push	r15
    3cdc:	0f 93       	push	r16
    3cde:	1f 93       	push	r17
    3ce0:	cf 93       	push	r28
    3ce2:	df 93       	push	r29
    3ce4:	ec 01       	movw	r28, r24
    3ce6:	0e 94 ee 1d 	call	0x3bdc	; 0x3bdc <kt_reset>
    3cea:	88 23       	and	r24, r24
    3cec:	11 f0       	breq	.+4      	; 0x3cf2 <kt_write_rom+0x1e>
    3cee:	11 e0       	ldi	r17, 0x01	; 1
    3cf0:	3b c0       	rjmp	.+118    	; 0x3d68 <kt_write_rom+0x94>
    3cf2:	41 9a       	sbi	0x08, 1	; 8
    3cf4:	2f e7       	ldi	r18, 0x7F	; 127
    3cf6:	82 e3       	ldi	r24, 0x32	; 50
    3cf8:	92 e0       	ldi	r25, 0x02	; 2
    3cfa:	21 50       	subi	r18, 0x01	; 1
    3cfc:	80 40       	sbci	r24, 0x00	; 0
    3cfe:	90 40       	sbci	r25, 0x00	; 0
    3d00:	e1 f7       	brne	.-8      	; 0x3cfa <kt_write_rom+0x26>
    3d02:	00 c0       	rjmp	.+0      	; 0x3d04 <kt_write_rom+0x30>
    3d04:	00 00       	nop
    3d06:	6e 01       	movw	r12, r28
    3d08:	7e 01       	movw	r14, r28
    3d0a:	e8 e0       	ldi	r30, 0x08	; 8
    3d0c:	ee 0e       	add	r14, r30
    3d0e:	f1 1c       	adc	r15, r1
    3d10:	8e 01       	movw	r16, r28
    3d12:	f8 01       	movw	r30, r16
    3d14:	81 91       	ld	r24, Z+
    3d16:	8f 01       	movw	r16, r30
    3d18:	0e 94 a9 1d 	call	0x3b52	; 0x3b52 <kt_write_byte>
    3d1c:	0e 15       	cp	r16, r14
    3d1e:	1f 05       	cpc	r17, r15
    3d20:	c1 f7       	brne	.-16     	; 0x3d12 <kt_write_rom+0x3e>
    3d22:	8e 01       	movw	r16, r28
    3d24:	f8 01       	movw	r30, r16
    3d26:	81 91       	ld	r24, Z+
    3d28:	8f 01       	movw	r16, r30
    3d2a:	0e 94 a9 1d 	call	0x3b52	; 0x3b52 <kt_write_byte>
    3d2e:	0e 15       	cp	r16, r14
    3d30:	1f 05       	cpc	r17, r15
    3d32:	c1 f7       	brne	.-16     	; 0x3d24 <kt_write_rom+0x50>
    3d34:	41 98       	cbi	0x08, 1	; 8
    3d36:	0e 94 ee 1d 	call	0x3bdc	; 0x3bdc <kt_reset>
    3d3a:	18 2f       	mov	r17, r24
    3d3c:	81 11       	cpse	r24, r1
    3d3e:	d7 cf       	rjmp	.-82     	; 0x3cee <kt_write_rom+0x1a>
    3d40:	0e 94 cd 1d 	call	0x3b9a	; 0x3b9a <kt_read_byte>
    3d44:	99 91       	ld	r25, Y+
    3d46:	89 17       	cp	r24, r25
    3d48:	11 f0       	breq	.+4      	; 0x3d4e <kt_write_rom+0x7a>
    3d4a:	12 e0       	ldi	r17, 0x02	; 2
    3d4c:	0d c0       	rjmp	.+26     	; 0x3d68 <kt_write_rom+0x94>
    3d4e:	ce 15       	cp	r28, r14
    3d50:	df 05       	cpc	r29, r15
    3d52:	b1 f7       	brne	.-20     	; 0x3d40 <kt_write_rom+0x6c>
    3d54:	0e 94 cd 1d 	call	0x3b9a	; 0x3b9a <kt_read_byte>
    3d58:	f6 01       	movw	r30, r12
    3d5a:	91 91       	ld	r25, Z+
    3d5c:	6f 01       	movw	r12, r30
    3d5e:	89 13       	cpse	r24, r25
    3d60:	f4 cf       	rjmp	.-24     	; 0x3d4a <kt_write_rom+0x76>
    3d62:	ee 15       	cp	r30, r14
    3d64:	ff 05       	cpc	r31, r15
    3d66:	b1 f7       	brne	.-20     	; 0x3d54 <kt_write_rom+0x80>
    3d68:	81 2f       	mov	r24, r17
    3d6a:	df 91       	pop	r29
    3d6c:	cf 91       	pop	r28
    3d6e:	1f 91       	pop	r17
    3d70:	0f 91       	pop	r16
    3d72:	ff 90       	pop	r15
    3d74:	ef 90       	pop	r14
    3d76:	df 90       	pop	r13
    3d78:	cf 90       	pop	r12
    3d7a:	08 95       	ret

00003d7c <lcd_goto_xy>:
    3d7c:	90 e0       	ldi	r25, 0x00	; 0
    3d7e:	01 97       	sbiw	r24, 0x01	; 1
    3d80:	46 e0       	ldi	r20, 0x06	; 6
    3d82:	48 9f       	mul	r20, r24
    3d84:	90 01       	movw	r18, r0
    3d86:	49 9f       	mul	r20, r25
    3d88:	30 0d       	add	r19, r0
    3d8a:	11 24       	eor	r1, r1
    3d8c:	70 e0       	ldi	r23, 0x00	; 0
    3d8e:	61 50       	subi	r22, 0x01	; 1
    3d90:	71 09       	sbc	r23, r1
    3d92:	44 e5       	ldi	r20, 0x54	; 84
    3d94:	46 9f       	mul	r20, r22
    3d96:	c0 01       	movw	r24, r0
    3d98:	47 9f       	mul	r20, r23
    3d9a:	90 0d       	add	r25, r0
    3d9c:	11 24       	eor	r1, r1
    3d9e:	82 0f       	add	r24, r18
    3da0:	93 1f       	adc	r25, r19
    3da2:	90 93 39 04 	sts	0x0439, r25
    3da6:	80 93 38 04 	sts	0x0438, r24
    3daa:	08 95       	ret

00003dac <lcd_goto_xy_exact>:
    3dac:	90 e0       	ldi	r25, 0x00	; 0
    3dae:	01 97       	sbiw	r24, 0x01	; 1
    3db0:	70 e0       	ldi	r23, 0x00	; 0
    3db2:	61 50       	subi	r22, 0x01	; 1
    3db4:	71 09       	sbc	r23, r1
    3db6:	44 e5       	ldi	r20, 0x54	; 84
    3db8:	46 9f       	mul	r20, r22
    3dba:	90 01       	movw	r18, r0
    3dbc:	47 9f       	mul	r20, r23
    3dbe:	30 0d       	add	r19, r0
    3dc0:	11 24       	eor	r1, r1
    3dc2:	82 0f       	add	r24, r18
    3dc4:	93 1f       	adc	r25, r19
    3dc6:	90 93 39 04 	sts	0x0439, r25
    3dca:	80 93 38 04 	sts	0x0438, r24
    3dce:	08 95       	ret

00003dd0 <lcd_send>:
    3dd0:	9a b1       	in	r25, 0x0a	; 10
    3dd2:	90 63       	ori	r25, 0x30	; 48
    3dd4:	9a b9       	out	0x0a, r25	; 10
    3dd6:	5b 98       	cbi	0x0b, 3	; 11
    3dd8:	61 30       	cpi	r22, 0x01	; 1
    3dda:	11 f4       	brne	.+4      	; 0x3de0 <lcd_send+0x10>
    3ddc:	5c 9a       	sbi	0x0b, 4	; 11
    3dde:	01 c0       	rjmp	.+2      	; 0x3de2 <lcd_send+0x12>
    3de0:	5c 98       	cbi	0x0b, 4	; 11
    3de2:	27 e0       	ldi	r18, 0x07	; 7
    3de4:	30 e0       	ldi	r19, 0x00	; 0
    3de6:	90 e0       	ldi	r25, 0x00	; 0
    3de8:	ac 01       	movw	r20, r24
    3dea:	02 2e       	mov	r0, r18
    3dec:	02 c0       	rjmp	.+4      	; 0x3df2 <lcd_send+0x22>
    3dee:	55 95       	asr	r21
    3df0:	47 95       	ror	r20
    3df2:	0a 94       	dec	r0
    3df4:	e2 f7       	brpl	.-8      	; 0x3dee <lcd_send+0x1e>
    3df6:	40 ff       	sbrs	r20, 0
    3df8:	02 c0       	rjmp	.+4      	; 0x3dfe <lcd_send+0x2e>
    3dfa:	5d 9a       	sbi	0x0b, 5	; 11
    3dfc:	01 c0       	rjmp	.+2      	; 0x3e00 <lcd_send+0x30>
    3dfe:	5d 98       	cbi	0x0b, 5	; 11
    3e00:	5f 9a       	sbi	0x0b, 7	; 11
    3e02:	5f 98       	cbi	0x0b, 7	; 11
    3e04:	21 50       	subi	r18, 0x01	; 1
    3e06:	31 09       	sbc	r19, r1
    3e08:	78 f7       	brcc	.-34     	; 0x3de8 <lcd_send+0x18>
    3e0a:	5b 9a       	sbi	0x0b, 3	; 11
    3e0c:	8a b1       	in	r24, 0x0a	; 10
    3e0e:	8f 7c       	andi	r24, 0xCF	; 207
    3e10:	8a b9       	out	0x0a, r24	; 10
    3e12:	8b b1       	in	r24, 0x0b	; 11
    3e14:	80 63       	ori	r24, 0x30	; 48
    3e16:	8b b9       	out	0x0b, r24	; 11
    3e18:	08 95       	ret

00003e1a <lcd_contrast>:
    3e1a:	cf 93       	push	r28
    3e1c:	c8 2f       	mov	r28, r24
    3e1e:	60 e0       	ldi	r22, 0x00	; 0
    3e20:	81 e2       	ldi	r24, 0x21	; 33
    3e22:	0e 94 e8 1e 	call	0x3dd0	; 0x3dd0 <lcd_send>
    3e26:	60 e0       	ldi	r22, 0x00	; 0
    3e28:	8c 2f       	mov	r24, r28
    3e2a:	80 68       	ori	r24, 0x80	; 128
    3e2c:	0e 94 e8 1e 	call	0x3dd0	; 0x3dd0 <lcd_send>
    3e30:	60 e0       	ldi	r22, 0x00	; 0
    3e32:	80 e2       	ldi	r24, 0x20	; 32
    3e34:	cf 91       	pop	r28
    3e36:	0c 94 e8 1e 	jmp	0x3dd0	; 0x3dd0 <lcd_send>

00003e3a <lcd_image>:
    3e3a:	ef 92       	push	r14
    3e3c:	ff 92       	push	r15
    3e3e:	0f 93       	push	r16
    3e40:	1f 93       	push	r17
    3e42:	cf 93       	push	r28
    3e44:	e1 2c       	mov	r14, r1
    3e46:	f1 2c       	mov	r15, r1
    3e48:	c0 e0       	ldi	r28, 0x00	; 0
    3e4a:	6c 2f       	mov	r22, r28
    3e4c:	80 e0       	ldi	r24, 0x00	; 0
    3e4e:	0e 94 d6 1e 	call	0x3dac	; 0x3dac <lcd_goto_xy_exact>
    3e52:	00 e0       	ldi	r16, 0x00	; 0
    3e54:	10 e0       	ldi	r17, 0x00	; 0
    3e56:	f8 01       	movw	r30, r16
    3e58:	ee 0d       	add	r30, r14
    3e5a:	ff 1d       	adc	r31, r15
    3e5c:	e2 58       	subi	r30, 0x82	; 130
    3e5e:	ff 4f       	sbci	r31, 0xFF	; 255
    3e60:	84 91       	lpm	r24, Z
    3e62:	61 e0       	ldi	r22, 0x01	; 1
    3e64:	0e 94 e8 1e 	call	0x3dd0	; 0x3dd0 <lcd_send>
    3e68:	0f 5f       	subi	r16, 0xFF	; 255
    3e6a:	1f 4f       	sbci	r17, 0xFF	; 255
    3e6c:	04 35       	cpi	r16, 0x54	; 84
    3e6e:	11 05       	cpc	r17, r1
    3e70:	91 f7       	brne	.-28     	; 0x3e56 <lcd_image+0x1c>
    3e72:	cf 5f       	subi	r28, 0xFF	; 255
    3e74:	84 e5       	ldi	r24, 0x54	; 84
    3e76:	e8 0e       	add	r14, r24
    3e78:	f1 1c       	adc	r15, r1
    3e7a:	c6 30       	cpi	r28, 0x06	; 6
    3e7c:	31 f7       	brne	.-52     	; 0x3e4a <lcd_image+0x10>
    3e7e:	cf 91       	pop	r28
    3e80:	1f 91       	pop	r17
    3e82:	0f 91       	pop	r16
    3e84:	ff 90       	pop	r15
    3e86:	ef 90       	pop	r14
    3e88:	08 95       	ret

00003e8a <lcd_base_addr>:
    3e8a:	cf 93       	push	r28
    3e8c:	64 e5       	ldi	r22, 0x54	; 84
    3e8e:	70 e0       	ldi	r23, 0x00	; 0
    3e90:	0e 94 43 37 	call	0x6e86	; 0x6e86 <__udivmodhi4>
    3e94:	c6 2f       	mov	r28, r22
    3e96:	60 e0       	ldi	r22, 0x00	; 0
    3e98:	80 68       	ori	r24, 0x80	; 128
    3e9a:	0e 94 e8 1e 	call	0x3dd0	; 0x3dd0 <lcd_send>
    3e9e:	60 e0       	ldi	r22, 0x00	; 0
    3ea0:	8c 2f       	mov	r24, r28
    3ea2:	80 64       	ori	r24, 0x40	; 64
    3ea4:	cf 91       	pop	r28
    3ea6:	0c 94 e8 1e 	jmp	0x3dd0	; 0x3dd0 <lcd_send>

00003eaa <lcd_clear>:
    3eaa:	cf 93       	push	r28
    3eac:	df 93       	push	r29
    3eae:	10 92 39 04 	sts	0x0439, r1
    3eb2:	10 92 38 04 	sts	0x0438, r1
    3eb6:	80 e0       	ldi	r24, 0x00	; 0
    3eb8:	90 e0       	ldi	r25, 0x00	; 0
    3eba:	0e 94 45 1f 	call	0x3e8a	; 0x3e8a <lcd_base_addr>
    3ebe:	c8 ef       	ldi	r28, 0xF8	; 248
    3ec0:	d1 e0       	ldi	r29, 0x01	; 1
    3ec2:	61 e0       	ldi	r22, 0x01	; 1
    3ec4:	80 e0       	ldi	r24, 0x00	; 0
    3ec6:	0e 94 e8 1e 	call	0x3dd0	; 0x3dd0 <lcd_send>
    3eca:	21 97       	sbiw	r28, 0x01	; 1
    3ecc:	d1 f7       	brne	.-12     	; 0x3ec2 <lcd_clear+0x18>
    3ece:	df 91       	pop	r29
    3ed0:	cf 91       	pop	r28
    3ed2:	08 95       	ret

00003ed4 <lcd_init>:
    3ed4:	5a 9a       	sbi	0x0b, 2	; 11
    3ed6:	8a b1       	in	r24, 0x0a	; 10
    3ed8:	8c 6b       	ori	r24, 0xBC	; 188
    3eda:	8a b9       	out	0x0a, r24	; 10
    3edc:	8f e5       	ldi	r24, 0x5F	; 95
    3ede:	9a ee       	ldi	r25, 0xEA	; 234
    3ee0:	01 97       	sbiw	r24, 0x01	; 1
    3ee2:	f1 f7       	brne	.-4      	; 0x3ee0 <lcd_init+0xc>
    3ee4:	00 c0       	rjmp	.+0      	; 0x3ee6 <lcd_init+0x12>
    3ee6:	00 00       	nop
    3ee8:	5a 98       	cbi	0x0b, 2	; 11
    3eea:	5a 9a       	sbi	0x0b, 2	; 11
    3eec:	5b 9a       	sbi	0x0b, 3	; 11
    3eee:	60 e0       	ldi	r22, 0x00	; 0
    3ef0:	81 e2       	ldi	r24, 0x21	; 33
    3ef2:	0e 94 e8 1e 	call	0x3dd0	; 0x3dd0 <lcd_send>
    3ef6:	60 e0       	ldi	r22, 0x00	; 0
    3ef8:	88 ec       	ldi	r24, 0xC8	; 200
    3efa:	0e 94 e8 1e 	call	0x3dd0	; 0x3dd0 <lcd_send>
    3efe:	60 e0       	ldi	r22, 0x00	; 0
    3f00:	86 e0       	ldi	r24, 0x06	; 6
    3f02:	0e 94 e8 1e 	call	0x3dd0	; 0x3dd0 <lcd_send>
    3f06:	60 e0       	ldi	r22, 0x00	; 0
    3f08:	83 e1       	ldi	r24, 0x13	; 19
    3f0a:	0e 94 e8 1e 	call	0x3dd0	; 0x3dd0 <lcd_send>
    3f0e:	60 e0       	ldi	r22, 0x00	; 0
    3f10:	80 e2       	ldi	r24, 0x20	; 32
    3f12:	0e 94 e8 1e 	call	0x3dd0	; 0x3dd0 <lcd_send>
    3f16:	60 e0       	ldi	r22, 0x00	; 0
    3f18:	8c e0       	ldi	r24, 0x0C	; 12
    3f1a:	0e 94 e8 1e 	call	0x3dd0	; 0x3dd0 <lcd_send>
    3f1e:	0c 94 55 1f 	jmp	0x3eaa	; 0x3eaa <lcd_clear>

00003f22 <lcd_chr>:
    3f22:	0f 93       	push	r16
    3f24:	1f 93       	push	r17
    3f26:	cf 93       	push	r28
    3f28:	df 93       	push	r29
    3f2a:	c8 2f       	mov	r28, r24
    3f2c:	80 91 38 04 	lds	r24, 0x0438
    3f30:	90 91 39 04 	lds	r25, 0x0439
    3f34:	0e 94 45 1f 	call	0x3e8a	; 0x3e8a <lcd_base_addr>
    3f38:	85 e0       	ldi	r24, 0x05	; 5
    3f3a:	c8 9f       	mul	r28, r24
    3f3c:	e0 01       	movw	r28, r0
    3f3e:	11 24       	eor	r1, r1
    3f40:	00 e0       	ldi	r16, 0x00	; 0
    3f42:	10 e0       	ldi	r17, 0x00	; 0
    3f44:	c0 5a       	subi	r28, 0xA0	; 160
    3f46:	d1 09       	sbc	r29, r1
    3f48:	fe 01       	movw	r30, r28
    3f4a:	e0 0f       	add	r30, r16
    3f4c:	f1 1f       	adc	r31, r17
    3f4e:	ea 58       	subi	r30, 0x8A	; 138
    3f50:	fd 4f       	sbci	r31, 0xFD	; 253
    3f52:	84 91       	lpm	r24, Z
    3f54:	61 e0       	ldi	r22, 0x01	; 1
    3f56:	88 0f       	add	r24, r24
    3f58:	0e 94 e8 1e 	call	0x3dd0	; 0x3dd0 <lcd_send>
    3f5c:	0f 5f       	subi	r16, 0xFF	; 255
    3f5e:	1f 4f       	sbci	r17, 0xFF	; 255
    3f60:	05 30       	cpi	r16, 0x05	; 5
    3f62:	11 05       	cpc	r17, r1
    3f64:	89 f7       	brne	.-30     	; 0x3f48 <lcd_chr+0x26>
    3f66:	61 e0       	ldi	r22, 0x01	; 1
    3f68:	80 e0       	ldi	r24, 0x00	; 0
    3f6a:	0e 94 e8 1e 	call	0x3dd0	; 0x3dd0 <lcd_send>
    3f6e:	80 91 38 04 	lds	r24, 0x0438
    3f72:	90 91 39 04 	lds	r25, 0x0439
    3f76:	06 96       	adiw	r24, 0x06	; 6
    3f78:	90 93 39 04 	sts	0x0439, r25
    3f7c:	80 93 38 04 	sts	0x0438, r24
    3f80:	df 91       	pop	r29
    3f82:	cf 91       	pop	r28
    3f84:	1f 91       	pop	r17
    3f86:	0f 91       	pop	r16
    3f88:	08 95       	ret

00003f8a <lcd_str>:
    3f8a:	cf 93       	push	r28
    3f8c:	df 93       	push	r29
    3f8e:	ec 01       	movw	r28, r24
    3f90:	89 91       	ld	r24, Y+
    3f92:	88 23       	and	r24, r24
    3f94:	19 f0       	breq	.+6      	; 0x3f9c <lcd_str+0x12>
    3f96:	0e 94 91 1f 	call	0x3f22	; 0x3f22 <lcd_chr>
    3f9a:	fa cf       	rjmp	.-12     	; 0x3f90 <lcd_str+0x6>
    3f9c:	df 91       	pop	r29
    3f9e:	cf 91       	pop	r28
    3fa0:	08 95       	ret

00003fa2 <lcd_str_p>:
    3fa2:	cf 93       	push	r28
    3fa4:	df 93       	push	r29
    3fa6:	fc 01       	movw	r30, r24
    3fa8:	84 91       	lpm	r24, Z
    3faa:	ef 01       	movw	r28, r30
    3fac:	21 96       	adiw	r28, 0x01	; 1
    3fae:	88 23       	and	r24, r24
    3fb0:	21 f0       	breq	.+8      	; 0x3fba <lcd_str_p+0x18>
    3fb2:	0e 94 91 1f 	call	0x3f22	; 0x3f22 <lcd_chr>
    3fb6:	fe 01       	movw	r30, r28
    3fb8:	f7 cf       	rjmp	.-18     	; 0x3fa8 <lcd_str_p+0x6>
    3fba:	df 91       	pop	r29
    3fbc:	cf 91       	pop	r28
    3fbe:	08 95       	ret

00003fc0 <lcd_hex>:
    3fc0:	cf 93       	push	r28
    3fc2:	c8 2f       	mov	r28, r24
    3fc4:	82 95       	swap	r24
    3fc6:	8f 70       	andi	r24, 0x0F	; 15
    3fc8:	8a 30       	cpi	r24, 0x0A	; 10
    3fca:	10 f4       	brcc	.+4      	; 0x3fd0 <lcd_hex+0x10>
    3fcc:	80 5d       	subi	r24, 0xD0	; 208
    3fce:	01 c0       	rjmp	.+2      	; 0x3fd2 <lcd_hex+0x12>
    3fd0:	89 5c       	subi	r24, 0xC9	; 201
    3fd2:	0e 94 91 1f 	call	0x3f22	; 0x3f22 <lcd_chr>
    3fd6:	8c 2f       	mov	r24, r28
    3fd8:	8f 70       	andi	r24, 0x0F	; 15
    3fda:	8a 30       	cpi	r24, 0x0A	; 10
    3fdc:	10 f4       	brcc	.+4      	; 0x3fe2 <lcd_hex+0x22>
    3fde:	80 5d       	subi	r24, 0xD0	; 208
    3fe0:	01 c0       	rjmp	.+2      	; 0x3fe4 <lcd_hex+0x24>
    3fe2:	89 5c       	subi	r24, 0xC9	; 201
    3fe4:	cf 91       	pop	r28
    3fe6:	0c 94 91 1f 	jmp	0x3f22	; 0x3f22 <lcd_chr>

00003fea <lcd_sep>:
    3fea:	80 91 38 04 	lds	r24, 0x0438
    3fee:	90 91 39 04 	lds	r25, 0x0439
    3ff2:	0e 94 45 1f 	call	0x3e8a	; 0x3e8a <lcd_base_addr>
    3ff6:	61 e0       	ldi	r22, 0x01	; 1
    3ff8:	84 e4       	ldi	r24, 0x44	; 68
    3ffa:	0e 94 e8 1e 	call	0x3dd0	; 0x3dd0 <lcd_send>
    3ffe:	61 e0       	ldi	r22, 0x01	; 1
    4000:	80 e0       	ldi	r24, 0x00	; 0
    4002:	0e 94 e8 1e 	call	0x3dd0	; 0x3dd0 <lcd_send>
    4006:	80 91 38 04 	lds	r24, 0x0438
    400a:	90 91 39 04 	lds	r25, 0x0439
    400e:	02 96       	adiw	r24, 0x02	; 2
    4010:	90 93 39 04 	sts	0x0439, r25
    4014:	80 93 38 04 	sts	0x0438, r24
    4018:	08 95       	ret

0000401a <__vector_9>:
    401a:	1f 92       	push	r1
    401c:	0f 92       	push	r0
    401e:	0f b6       	in	r0, 0x3f	; 63
    4020:	0f 92       	push	r0
    4022:	11 24       	eor	r1, r1
    4024:	2f 93       	push	r18
    4026:	3f 93       	push	r19
    4028:	4f 93       	push	r20
    402a:	5f 93       	push	r21
    402c:	6f 93       	push	r22
    402e:	7f 93       	push	r23
    4030:	8f 93       	push	r24
    4032:	9f 93       	push	r25
    4034:	af 93       	push	r26
    4036:	bf 93       	push	r27
    4038:	cf 93       	push	r28
    403a:	ef 93       	push	r30
    403c:	ff 93       	push	r31
    403e:	84 e5       	ldi	r24, 0x54	; 84
    4040:	94 e0       	ldi	r25, 0x04	; 4
    4042:	0e 94 f7 36 	call	0x6dee	; 0x6dee <uart_gets>
    4046:	81 11       	cpse	r24, r1
    4048:	03 c0       	rjmp	.+6      	; 0x4050 <__vector_9+0x36>
    404a:	81 e0       	ldi	r24, 0x01	; 1
    404c:	80 93 42 04 	sts	0x0442, r24
    4050:	18 9b       	sbis	0x03, 0	; 3
    4052:	09 c0       	rjmp	.+18     	; 0x4066 <__vector_9+0x4c>
    4054:	10 92 0a 02 	sts	0x020A, r1
    4058:	80 91 0c 02 	lds	r24, 0x020C
    405c:	82 30       	cpi	r24, 0x02	; 2
    405e:	29 f5       	brne	.+74     	; 0x40aa <__vector_9+0x90>
    4060:	10 92 0c 02 	sts	0x020C, r1
    4064:	22 c0       	rjmp	.+68     	; 0x40aa <__vector_9+0x90>
    4066:	c0 91 0a 02 	lds	r28, 0x020A
    406a:	18 99       	sbic	0x03, 0	; 3
    406c:	0c c0       	rjmp	.+24     	; 0x4086 <__vector_9+0x6c>
    406e:	c1 30       	cpi	r28, 0x01	; 1
    4070:	51 f4       	brne	.+20     	; 0x4086 <__vector_9+0x6c>
    4072:	82 e0       	ldi	r24, 0x02	; 2
    4074:	80 93 0a 02 	sts	0x020A, r24
    4078:	87 eb       	ldi	r24, 0xB7	; 183
    407a:	9a e0       	ldi	r25, 0x0A	; 10
    407c:	0e 94 5d 36 	call	0x6cba	; 0x6cba <sound_play>
    4080:	c0 93 0c 02 	sts	0x020C, r28
    4084:	12 c0       	rjmp	.+36     	; 0x40aa <__vector_9+0x90>
    4086:	cd 33       	cpi	r28, 0x3D	; 61
    4088:	68 f0       	brcs	.+26     	; 0x40a4 <__vector_9+0x8a>
    408a:	cd 33       	cpi	r28, 0x3D	; 61
    408c:	71 f4       	brne	.+28     	; 0x40aa <__vector_9+0x90>
    408e:	8e e3       	ldi	r24, 0x3E	; 62
    4090:	80 93 0a 02 	sts	0x020A, r24
    4094:	85 eb       	ldi	r24, 0xB5	; 181
    4096:	9a e0       	ldi	r25, 0x0A	; 10
    4098:	0e 94 5d 36 	call	0x6cba	; 0x6cba <sound_play>
    409c:	82 e0       	ldi	r24, 0x02	; 2
    409e:	80 93 0c 02 	sts	0x020C, r24
    40a2:	03 c0       	rjmp	.+6      	; 0x40aa <__vector_9+0x90>
    40a4:	cf 5f       	subi	r28, 0xFF	; 255
    40a6:	c0 93 0a 02 	sts	0x020A, r28
    40aa:	ff 91       	pop	r31
    40ac:	ef 91       	pop	r30
    40ae:	cf 91       	pop	r28
    40b0:	bf 91       	pop	r27
    40b2:	af 91       	pop	r26
    40b4:	9f 91       	pop	r25
    40b6:	8f 91       	pop	r24
    40b8:	7f 91       	pop	r23
    40ba:	6f 91       	pop	r22
    40bc:	5f 91       	pop	r21
    40be:	4f 91       	pop	r20
    40c0:	3f 91       	pop	r19
    40c2:	2f 91       	pop	r18
    40c4:	0f 90       	pop	r0
    40c6:	0f be       	out	0x3f, r0	; 63
    40c8:	0f 90       	pop	r0
    40ca:	1f 90       	pop	r1
    40cc:	18 95       	reti

000040ce <button_init>:
    40ce:	20 98       	cbi	0x04, 0	; 4
    40d0:	28 9a       	sbi	0x05, 0	; 5
    40d2:	10 92 b0 00 	sts	0x00B0, r1
    40d6:	87 e0       	ldi	r24, 0x07	; 7
    40d8:	80 93 b1 00 	sts	0x00B1, r24
    40dc:	81 e0       	ldi	r24, 0x01	; 1
    40de:	80 93 70 00 	sts	0x0070, r24
    40e2:	78 94       	sei
    40e4:	08 95       	ret

000040e6 <adc_init>:
    40e6:	83 ee       	ldi	r24, 0xE3	; 227
    40e8:	80 93 7a 00 	sts	0x007A, r24
    40ec:	10 92 7b 00 	sts	0x007B, r1
    40f0:	80 e6       	ldi	r24, 0x60	; 96
    40f2:	80 93 7c 00 	sts	0x007C, r24
    40f6:	08 95       	ret

000040f8 <find_file_in_dir>:
    40f8:	ef 92       	push	r14
    40fa:	ff 92       	push	r15
    40fc:	0f 93       	push	r16
    40fe:	1f 93       	push	r17
    4100:	cf 93       	push	r28
    4102:	df 93       	push	r29
    4104:	8b 01       	movw	r16, r22
    4106:	7a 01       	movw	r14, r20
    4108:	e9 01       	movw	r28, r18
    410a:	be 01       	movw	r22, r28
    410c:	c8 01       	movw	r24, r16
    410e:	0e 94 5a 1b 	call	0x36b4	; 0x36b4 <fat_read_dir>
    4112:	88 23       	and	r24, r24
    4114:	b1 f0       	breq	.+44     	; 0x4142 <find_file_in_dir+0x4a>
    4116:	b7 01       	movw	r22, r14
    4118:	ce 01       	movw	r24, r28
    411a:	0e 94 f9 38 	call	0x71f2	; 0x71f2 <strcmp>
    411e:	89 2b       	or	r24, r25
    4120:	a1 f7       	brne	.-24     	; 0x410a <find_file_in_dir+0x12>
    4122:	8d a1       	ldd	r24, Y+37	; 0x25
    4124:	9e a1       	ldd	r25, Y+38	; 0x26
    4126:	af a1       	ldd	r26, Y+39	; 0x27
    4128:	b8 a5       	ldd	r27, Y+40	; 0x28
    412a:	80 93 e0 04 	sts	0x04E0, r24
    412e:	90 93 e1 04 	sts	0x04E1, r25
    4132:	a0 93 e2 04 	sts	0x04E2, r26
    4136:	b0 93 e3 04 	sts	0x04E3, r27
    413a:	c8 01       	movw	r24, r16
    413c:	0e 94 49 1b 	call	0x3692	; 0x3692 <fat_reset_dir>
    4140:	81 e0       	ldi	r24, 0x01	; 1
    4142:	df 91       	pop	r29
    4144:	cf 91       	pop	r28
    4146:	1f 91       	pop	r17
    4148:	0f 91       	pop	r16
    414a:	ff 90       	pop	r15
    414c:	ef 90       	pop	r14
    414e:	08 95       	ret

00004150 <open_file_in_dir>:
    4150:	0f 93       	push	r16
    4152:	1f 93       	push	r17
    4154:	cf 93       	push	r28
    4156:	df 93       	push	r29
    4158:	cd b7       	in	r28, 0x3d	; 61
    415a:	de b7       	in	r29, 0x3e	; 62
    415c:	e1 97       	sbiw	r28, 0x31	; 49
    415e:	0f b6       	in	r0, 0x3f	; 63
    4160:	f8 94       	cli
    4162:	de bf       	out	0x3e, r29	; 62
    4164:	0f be       	out	0x3f, r0	; 63
    4166:	cd bf       	out	0x3d, r28	; 61
    4168:	8c 01       	movw	r16, r24
    416a:	9e 01       	movw	r18, r28
    416c:	2f 5f       	subi	r18, 0xFF	; 255
    416e:	3f 4f       	sbci	r19, 0xFF	; 255
    4170:	0e 94 7c 20 	call	0x40f8	; 0x40f8 <find_file_in_dir>
    4174:	88 23       	and	r24, r24
    4176:	39 f0       	breq	.+14     	; 0x4186 <open_file_in_dir+0x36>
    4178:	be 01       	movw	r22, r28
    417a:	6f 5f       	subi	r22, 0xFF	; 255
    417c:	7f 4f       	sbci	r23, 0xFF	; 255
    417e:	c8 01       	movw	r24, r16
    4180:	0e 94 a8 14 	call	0x2950	; 0x2950 <fat_open_file>
    4184:	02 c0       	rjmp	.+4      	; 0x418a <open_file_in_dir+0x3a>
    4186:	80 e0       	ldi	r24, 0x00	; 0
    4188:	90 e0       	ldi	r25, 0x00	; 0
    418a:	e1 96       	adiw	r28, 0x31	; 49
    418c:	0f b6       	in	r0, 0x3f	; 63
    418e:	f8 94       	cli
    4190:	de bf       	out	0x3e, r29	; 62
    4192:	0f be       	out	0x3f, r0	; 63
    4194:	cd bf       	out	0x3d, r28	; 61
    4196:	df 91       	pop	r29
    4198:	cf 91       	pop	r28
    419a:	1f 91       	pop	r17
    419c:	0f 91       	pop	r16
    419e:	08 95       	ret

000041a0 <file_init>:
    41a0:	0f 93       	push	r16
    41a2:	cf 93       	push	r28
    41a4:	df 93       	push	r29
    41a6:	cd b7       	in	r28, 0x3d	; 61
    41a8:	de b7       	in	r29, 0x3e	; 62
    41aa:	e1 97       	sbiw	r28, 0x31	; 49
    41ac:	0f b6       	in	r0, 0x3f	; 63
    41ae:	f8 94       	cli
    41b0:	de bf       	out	0x3e, r29	; 62
    41b2:	0f be       	out	0x3f, r0	; 63
    41b4:	cd bf       	out	0x3d, r28	; 61
    41b6:	0e 94 15 33 	call	0x662a	; 0x662a <sd_raw_init>
    41ba:	81 11       	cpse	r24, r1
    41bc:	06 c0       	rjmp	.+12     	; 0x41ca <file_init+0x2a>
    41be:	86 e8       	ldi	r24, 0x86	; 134
    41c0:	9a e0       	ldi	r25, 0x0A	; 10
    41c2:	0e 94 e8 36 	call	0x6dd0	; 0x6dd0 <uart_puts_p>
    41c6:	81 e0       	ldi	r24, 0x01	; 1
    41c8:	99 c0       	rjmp	.+306    	; 0x42fc <file_init+0x15c>
    41ca:	00 e0       	ldi	r16, 0x00	; 0
    41cc:	2d e9       	ldi	r18, 0x9D	; 157
    41ce:	35 e3       	ldi	r19, 0x35	; 53
    41d0:	41 e8       	ldi	r20, 0x81	; 129
    41d2:	54 e3       	ldi	r21, 0x34	; 52
    41d4:	63 ef       	ldi	r22, 0xF3	; 243
    41d6:	73 e3       	ldi	r23, 0x33	; 51
    41d8:	8a e0       	ldi	r24, 0x0A	; 10
    41da:	92 e3       	ldi	r25, 0x32	; 50
    41dc:	0e 94 f2 2d 	call	0x5be4	; 0x5be4 <partition_open>
    41e0:	90 93 3f 04 	sts	0x043F, r25
    41e4:	80 93 3e 04 	sts	0x043E, r24
    41e8:	89 2b       	or	r24, r25
    41ea:	b9 f4       	brne	.+46     	; 0x421a <file_init+0x7a>
    41ec:	0f ef       	ldi	r16, 0xFF	; 255
    41ee:	2d e9       	ldi	r18, 0x9D	; 157
    41f0:	35 e3       	ldi	r19, 0x35	; 53
    41f2:	41 e8       	ldi	r20, 0x81	; 129
    41f4:	54 e3       	ldi	r21, 0x34	; 52
    41f6:	63 ef       	ldi	r22, 0xF3	; 243
    41f8:	73 e3       	ldi	r23, 0x33	; 51
    41fa:	8a e0       	ldi	r24, 0x0A	; 10
    41fc:	92 e3       	ldi	r25, 0x32	; 50
    41fe:	0e 94 f2 2d 	call	0x5be4	; 0x5be4 <partition_open>
    4202:	90 93 3f 04 	sts	0x043F, r25
    4206:	80 93 3e 04 	sts	0x043E, r24
    420a:	89 2b       	or	r24, r25
    420c:	31 f4       	brne	.+12     	; 0x421a <file_init+0x7a>
    420e:	8b e6       	ldi	r24, 0x6B	; 107
    4210:	9a e0       	ldi	r25, 0x0A	; 10
    4212:	0e 94 e8 36 	call	0x6dd0	; 0x6dd0 <uart_puts_p>
    4216:	82 e0       	ldi	r24, 0x02	; 2
    4218:	71 c0       	rjmp	.+226    	; 0x42fc <file_init+0x15c>
    421a:	80 91 3e 04 	lds	r24, 0x043E
    421e:	90 91 3f 04 	lds	r25, 0x043F
    4222:	0e 94 40 12 	call	0x2480	; 0x2480 <fat_open>
    4226:	90 93 3b 04 	sts	0x043B, r25
    422a:	80 93 3a 04 	sts	0x043A, r24
    422e:	00 97       	sbiw	r24, 0x00	; 0
    4230:	31 f4       	brne	.+12     	; 0x423e <file_init+0x9e>
    4232:	8f e4       	ldi	r24, 0x4F	; 79
    4234:	9a e0       	ldi	r25, 0x0A	; 10
    4236:	0e 94 e8 36 	call	0x6dd0	; 0x6dd0 <uart_puts_p>
    423a:	83 e0       	ldi	r24, 0x03	; 3
    423c:	5f c0       	rjmp	.+190    	; 0x42fc <file_init+0x15c>
    423e:	ae 01       	movw	r20, r28
    4240:	4f 5f       	subi	r20, 0xFF	; 255
    4242:	5f 4f       	sbci	r21, 0xFF	; 255
    4244:	64 e2       	ldi	r22, 0x24	; 36
    4246:	71 e0       	ldi	r23, 0x01	; 1
    4248:	0e 94 7c 1c 	call	0x38f8	; 0x38f8 <fat_get_dir_entry_of_path>
    424c:	be 01       	movw	r22, r28
    424e:	6f 5f       	subi	r22, 0xFF	; 255
    4250:	7f 4f       	sbci	r23, 0xFF	; 255
    4252:	80 91 3a 04 	lds	r24, 0x043A
    4256:	90 91 3b 04 	lds	r25, 0x043B
    425a:	0e 94 0b 1b 	call	0x3616	; 0x3616 <fat_open_dir>
    425e:	90 93 41 04 	sts	0x0441, r25
    4262:	80 93 40 04 	sts	0x0440, r24
    4266:	00 97       	sbiw	r24, 0x00	; 0
    4268:	31 f4       	brne	.+12     	; 0x4276 <file_init+0xd6>
    426a:	8f e2       	ldi	r24, 0x2F	; 47
    426c:	9a e0       	ldi	r25, 0x0A	; 10
    426e:	0e 94 e8 36 	call	0x6dd0	; 0x6dd0 <uart_puts_p>
    4272:	84 e0       	ldi	r24, 0x04	; 4
    4274:	43 c0       	rjmp	.+134    	; 0x42fc <file_init+0x15c>
    4276:	44 e0       	ldi	r20, 0x04	; 4
    4278:	51 e0       	ldi	r21, 0x01	; 1
    427a:	bc 01       	movw	r22, r24
    427c:	80 91 3a 04 	lds	r24, 0x043A
    4280:	90 91 3b 04 	lds	r25, 0x043B
    4284:	0e 94 a8 20 	call	0x4150	; 0x4150 <open_file_in_dir>
    4288:	90 93 3d 04 	sts	0x043D, r25
    428c:	80 93 3c 04 	sts	0x043C, r24
    4290:	89 2b       	or	r24, r25
    4292:	99 f4       	brne	.+38     	; 0x42ba <file_init+0x11a>
    4294:	ae 01       	movw	r20, r28
    4296:	4f 5f       	subi	r20, 0xFF	; 255
    4298:	5f 4f       	sbci	r21, 0xFF	; 255
    429a:	64 e0       	ldi	r22, 0x04	; 4
    429c:	71 e0       	ldi	r23, 0x01	; 1
    429e:	80 91 40 04 	lds	r24, 0x0440
    42a2:	90 91 41 04 	lds	r25, 0x0441
    42a6:	0e 94 05 1d 	call	0x3a0a	; 0x3a0a <fat_create_file>
    42aa:	81 11       	cpse	r24, r1
    42ac:	06 c0       	rjmp	.+12     	; 0x42ba <file_init+0x11a>
    42ae:	81 e1       	ldi	r24, 0x11	; 17
    42b0:	9a e0       	ldi	r25, 0x0A	; 10
    42b2:	0e 94 e8 36 	call	0x6dd0	; 0x6dd0 <uart_puts_p>
    42b6:	85 e0       	ldi	r24, 0x05	; 5
    42b8:	21 c0       	rjmp	.+66     	; 0x42fc <file_init+0x15c>
    42ba:	80 91 3c 04 	lds	r24, 0x043C
    42be:	90 91 3d 04 	lds	r25, 0x043D
    42c2:	0e 94 e6 14 	call	0x29cc	; 0x29cc <fat_close_file>
    42c6:	60 91 40 04 	lds	r22, 0x0440
    42ca:	70 91 41 04 	lds	r23, 0x0441
    42ce:	4c e0       	ldi	r20, 0x0C	; 12
    42d0:	51 e0       	ldi	r21, 0x01	; 1
    42d2:	80 91 3a 04 	lds	r24, 0x043A
    42d6:	90 91 3b 04 	lds	r25, 0x043B
    42da:	0e 94 a8 20 	call	0x4150	; 0x4150 <open_file_in_dir>
    42de:	90 93 3d 04 	sts	0x043D, r25
    42e2:	80 93 3c 04 	sts	0x043C, r24
    42e6:	00 97       	sbiw	r24, 0x00	; 0
    42e8:	31 f4       	brne	.+12     	; 0x42f6 <file_init+0x156>
    42ea:	82 ef       	ldi	r24, 0xF2	; 242
    42ec:	99 e0       	ldi	r25, 0x09	; 9
    42ee:	0e 94 e8 36 	call	0x6dd0	; 0x6dd0 <uart_puts_p>
    42f2:	86 e0       	ldi	r24, 0x06	; 6
    42f4:	03 c0       	rjmp	.+6      	; 0x42fc <file_init+0x15c>
    42f6:	0e 94 e6 14 	call	0x29cc	; 0x29cc <fat_close_file>
    42fa:	80 e0       	ldi	r24, 0x00	; 0
    42fc:	e1 96       	adiw	r28, 0x31	; 49
    42fe:	0f b6       	in	r0, 0x3f	; 63
    4300:	f8 94       	cli
    4302:	de bf       	out	0x3e, r29	; 62
    4304:	0f be       	out	0x3f, r0	; 63
    4306:	cd bf       	out	0x3d, r28	; 61
    4308:	df 91       	pop	r29
    430a:	cf 91       	pop	r28
    430c:	0f 91       	pop	r16
    430e:	08 95       	ret

00004310 <view_key_type>:
    4310:	61 e0       	ldi	r22, 0x01	; 1
    4312:	81 e0       	ldi	r24, 0x01	; 1
    4314:	0e 94 be 1e 	call	0x3d7c	; 0x3d7c <lcd_goto_xy>
    4318:	8c ee       	ldi	r24, 0xEC	; 236
    431a:	99 e0       	ldi	r25, 0x09	; 9
    431c:	0e 94 d1 1f 	call	0x3fa2	; 0x3fa2 <lcd_str_p>
    4320:	85 ee       	ldi	r24, 0xE5	; 229
    4322:	99 e0       	ldi	r25, 0x09	; 9
    4324:	0e 94 e8 36 	call	0x6dd0	; 0x6dd0 <uart_puts_p>
    4328:	e0 91 0b 02 	lds	r30, 0x020B
    432c:	8e 2f       	mov	r24, r30
    432e:	90 e0       	ldi	r25, 0x00	; 0
    4330:	8b 30       	cpi	r24, 0x0B	; 11
    4332:	91 05       	cpc	r25, r1
    4334:	08 f0       	brcs	.+2      	; 0x4338 <view_key_type+0x28>
    4336:	5b c0       	rjmp	.+182    	; 0x43ee <view_key_type+0xde>
    4338:	fc 01       	movw	r30, r24
    433a:	ec 5c       	subi	r30, 0xCC	; 204
    433c:	ff 4f       	sbci	r31, 0xFF	; 255
    433e:	0c 94 8d 37 	jmp	0x6f1a	; 0x6f1a <__tablejump2__>
    4342:	8e ed       	ldi	r24, 0xDE	; 222
    4344:	99 e0       	ldi	r25, 0x09	; 9
    4346:	0e 94 d1 1f 	call	0x3fa2	; 0x3fa2 <lcd_str_p>
    434a:	87 ed       	ldi	r24, 0xD7	; 215
    434c:	99 e0       	ldi	r25, 0x09	; 9
    434e:	0e 94 e8 36 	call	0x6dd0	; 0x6dd0 <uart_puts_p>
    4352:	84 e9       	ldi	r24, 0x94	; 148
    4354:	94 e0       	ldi	r25, 0x04	; 4
    4356:	0e 94 31 07 	call	0xe62	; 0xe62 <ds_crc_check>
    435a:	88 23       	and	r24, r24
    435c:	09 f4       	brne	.+2      	; 0x4360 <view_key_type+0x50>
    435e:	47 c0       	rjmp	.+142    	; 0x43ee <view_key_type+0xde>
    4360:	80 e9       	ldi	r24, 0x90	; 144
    4362:	0e 94 91 1f 	call	0x3f22	; 0x3f22 <lcd_chr>
    4366:	8a e2       	ldi	r24, 0x2A	; 42
    4368:	0e 94 c0 36 	call	0x6d80	; 0x6d80 <uart_putc>
    436c:	40 c0       	rjmp	.+128    	; 0x43ee <view_key_type+0xde>
    436e:	80 ed       	ldi	r24, 0xD0	; 208
    4370:	99 e0       	ldi	r25, 0x09	; 9
    4372:	0e 94 d1 1f 	call	0x3fa2	; 0x3fa2 <lcd_str_p>
    4376:	8b ec       	ldi	r24, 0xCB	; 203
    4378:	99 e0       	ldi	r25, 0x09	; 9
    437a:	37 c0       	rjmp	.+110    	; 0x43ea <view_key_type+0xda>
    437c:	85 ec       	ldi	r24, 0xC5	; 197
    437e:	99 e0       	ldi	r25, 0x09	; 9
    4380:	0e 94 d1 1f 	call	0x3fa2	; 0x3fa2 <lcd_str_p>
    4384:	8f eb       	ldi	r24, 0xBF	; 191
    4386:	99 e0       	ldi	r25, 0x09	; 9
    4388:	30 c0       	rjmp	.+96     	; 0x43ea <view_key_type+0xda>
    438a:	87 eb       	ldi	r24, 0xB7	; 183
    438c:	99 e0       	ldi	r25, 0x09	; 9
    438e:	0e 94 d1 1f 	call	0x3fa2	; 0x3fa2 <lcd_str_p>
    4392:	8f ea       	ldi	r24, 0xAF	; 175
    4394:	99 e0       	ldi	r25, 0x09	; 9
    4396:	29 c0       	rjmp	.+82     	; 0x43ea <view_key_type+0xda>
    4398:	86 ea       	ldi	r24, 0xA6	; 166
    439a:	99 e0       	ldi	r25, 0x09	; 9
    439c:	0e 94 d1 1f 	call	0x3fa2	; 0x3fa2 <lcd_str_p>
    43a0:	89 e9       	ldi	r24, 0x99	; 153
    43a2:	99 e0       	ldi	r25, 0x09	; 9
    43a4:	22 c0       	rjmp	.+68     	; 0x43ea <view_key_type+0xda>
    43a6:	81 e9       	ldi	r24, 0x91	; 145
    43a8:	99 e0       	ldi	r25, 0x09	; 9
    43aa:	0e 94 d1 1f 	call	0x3fa2	; 0x3fa2 <lcd_str_p>
    43ae:	85 e8       	ldi	r24, 0x85	; 133
    43b0:	99 e0       	ldi	r25, 0x09	; 9
    43b2:	1b c0       	rjmp	.+54     	; 0x43ea <view_key_type+0xda>
    43b4:	8e e7       	ldi	r24, 0x7E	; 126
    43b6:	99 e0       	ldi	r25, 0x09	; 9
    43b8:	0e 94 d1 1f 	call	0x3fa2	; 0x3fa2 <lcd_str_p>
    43bc:	87 e7       	ldi	r24, 0x77	; 119
    43be:	99 e0       	ldi	r25, 0x09	; 9
    43c0:	14 c0       	rjmp	.+40     	; 0x43ea <view_key_type+0xda>
    43c2:	8e e6       	ldi	r24, 0x6E	; 110
    43c4:	99 e0       	ldi	r25, 0x09	; 9
    43c6:	0e 94 d1 1f 	call	0x3fa2	; 0x3fa2 <lcd_str_p>
    43ca:	80 e6       	ldi	r24, 0x60	; 96
    43cc:	99 e0       	ldi	r25, 0x09	; 9
    43ce:	0d c0       	rjmp	.+26     	; 0x43ea <view_key_type+0xda>
    43d0:	86 e5       	ldi	r24, 0x56	; 86
    43d2:	99 e0       	ldi	r25, 0x09	; 9
    43d4:	0e 94 d1 1f 	call	0x3fa2	; 0x3fa2 <lcd_str_p>
    43d8:	89 e4       	ldi	r24, 0x49	; 73
    43da:	99 e0       	ldi	r25, 0x09	; 9
    43dc:	06 c0       	rjmp	.+12     	; 0x43ea <view_key_type+0xda>
    43de:	80 e4       	ldi	r24, 0x40	; 64
    43e0:	99 e0       	ldi	r25, 0x09	; 9
    43e2:	0e 94 d1 1f 	call	0x3fa2	; 0x3fa2 <lcd_str_p>
    43e6:	87 e3       	ldi	r24, 0x37	; 55
    43e8:	99 e0       	ldi	r25, 0x09	; 9
    43ea:	0e 94 e8 36 	call	0x6dd0	; 0x6dd0 <uart_puts_p>
    43ee:	84 e3       	ldi	r24, 0x34	; 52
    43f0:	99 e0       	ldi	r25, 0x09	; 9
    43f2:	0c 94 e8 36 	jmp	0x6dd0	; 0x6dd0 <uart_puts_p>
    43f6:	08 95       	ret

000043f8 <view_key_code>:
    43f8:	0f 93       	push	r16
    43fa:	1f 93       	push	r17
    43fc:	cf 93       	push	r28
    43fe:	df 93       	push	r29
    4400:	62 e0       	ldi	r22, 0x02	; 2
    4402:	81 e0       	ldi	r24, 0x01	; 1
    4404:	0e 94 be 1e 	call	0x3d7c	; 0x3d7c <lcd_goto_xy>
    4408:	80 91 0b 02 	lds	r24, 0x020B
    440c:	98 2f       	mov	r25, r24
    440e:	9d 7f       	andi	r25, 0xFD	; 253
    4410:	91 30       	cpi	r25, 0x01	; 1
    4412:	39 f0       	breq	.+14     	; 0x4422 <view_key_code+0x2a>
    4414:	98 ef       	ldi	r25, 0xF8	; 248
    4416:	98 0f       	add	r25, r24
    4418:	92 30       	cpi	r25, 0x02	; 2
    441a:	18 f0       	brcs	.+6      	; 0x4422 <view_key_code+0x2a>
    441c:	85 50       	subi	r24, 0x05	; 5
    441e:	82 30       	cpi	r24, 0x02	; 2
    4420:	d0 f5       	brcc	.+116    	; 0x4496 <view_key_code+0x9e>
    4422:	80 91 9b 04 	lds	r24, 0x049B
    4426:	0e 94 e0 1f 	call	0x3fc0	; 0x3fc0 <lcd_hex>
    442a:	89 e2       	ldi	r24, 0x29	; 41
    442c:	99 e0       	ldi	r25, 0x09	; 9
    442e:	0e 94 d1 1f 	call	0x3fa2	; 0x3fa2 <lcd_str_p>
    4432:	80 91 94 04 	lds	r24, 0x0494
    4436:	0e 94 e0 1f 	call	0x3fc0	; 0x3fc0 <lcd_hex>
    443a:	80 91 37 04 	lds	r24, 0x0437
    443e:	88 23       	and	r24, r24
    4440:	51 f1       	breq	.+84     	; 0x4496 <view_key_code+0x9e>
    4442:	80 91 0b 02 	lds	r24, 0x020B
    4446:	83 30       	cpi	r24, 0x03	; 3
    4448:	31 f1       	breq	.+76     	; 0x4496 <view_key_code+0x9e>
    444a:	64 e0       	ldi	r22, 0x04	; 4
    444c:	81 e0       	ldi	r24, 0x01	; 1
    444e:	0e 94 be 1e 	call	0x3d7c	; 0x3d7c <lcd_goto_xy>
    4452:	8f e1       	ldi	r24, 0x1F	; 31
    4454:	99 e0       	ldi	r25, 0x09	; 9
    4456:	0e 94 d1 1f 	call	0x3fa2	; 0x3fa2 <lcd_str_p>
    445a:	80 91 37 04 	lds	r24, 0x0437
    445e:	64 e6       	ldi	r22, 0x64	; 100
    4460:	0e 94 37 37 	call	0x6e6e	; 0x6e6e <__udivmodqi4>
    4464:	89 2f       	mov	r24, r25
    4466:	ca e0       	ldi	r28, 0x0A	; 10
    4468:	6c 2f       	mov	r22, r28
    446a:	0e 94 37 37 	call	0x6e6e	; 0x6e6e <__udivmodqi4>
    446e:	80 5d       	subi	r24, 0xD0	; 208
    4470:	0e 94 91 1f 	call	0x3f22	; 0x3f22 <lcd_chr>
    4474:	80 91 37 04 	lds	r24, 0x0437
    4478:	6c 2f       	mov	r22, r28
    447a:	0e 94 37 37 	call	0x6e6e	; 0x6e6e <__udivmodqi4>
    447e:	80 e3       	ldi	r24, 0x30	; 48
    4480:	89 0f       	add	r24, r25
    4482:	0e 94 91 1f 	call	0x3f22	; 0x3f22 <lcd_chr>
    4486:	81 e9       	ldi	r24, 0x91	; 145
    4488:	0e 94 91 1f 	call	0x3f22	; 0x3f22 <lcd_chr>
    448c:	83 e7       	ldi	r24, 0x73	; 115
    448e:	0e 94 91 1f 	call	0x3f22	; 0x3f22 <lcd_chr>
    4492:	10 92 37 04 	sts	0x0437, r1
    4496:	63 e0       	ldi	r22, 0x03	; 3
    4498:	81 e0       	ldi	r24, 0x01	; 1
    449a:	0e 94 be 1e 	call	0x3d7c	; 0x3d7c <lcd_goto_xy>
    449e:	0a e9       	ldi	r16, 0x9A	; 154
    44a0:	14 e0       	ldi	r17, 0x04	; 4
    44a2:	e8 01       	movw	r28, r16
    44a4:	88 81       	ld	r24, Y
    44a6:	0e 94 e0 1f 	call	0x3fc0	; 0x3fc0 <lcd_hex>
    44aa:	80 2f       	mov	r24, r16
    44ac:	8c 1b       	sub	r24, r28
    44ae:	85 30       	cpi	r24, 0x05	; 5
    44b0:	11 f0       	breq	.+4      	; 0x44b6 <view_key_code+0xbe>
    44b2:	0e 94 f5 1f 	call	0x3fea	; 0x3fea <lcd_sep>
    44b6:	21 97       	sbiw	r28, 0x01	; 1
    44b8:	84 e0       	ldi	r24, 0x04	; 4
    44ba:	c4 39       	cpi	r28, 0x94	; 148
    44bc:	d8 07       	cpc	r29, r24
    44be:	91 f7       	brne	.-28     	; 0x44a4 <view_key_code+0xac>
    44c0:	cc e9       	ldi	r28, 0x9C	; 156
    44c2:	d4 e0       	ldi	r29, 0x04	; 4
    44c4:	1c 2f       	mov	r17, r28
    44c6:	11 50       	subi	r17, 0x01	; 1
    44c8:	8a 91       	ld	r24, -Y
    44ca:	0e 94 c7 36 	call	0x6d8e	; 0x6d8e <uart_putc_hex>
    44ce:	81 2f       	mov	r24, r17
    44d0:	8c 1b       	sub	r24, r28
    44d2:	87 30       	cpi	r24, 0x07	; 7
    44d4:	19 f0       	breq	.+6      	; 0x44dc <view_key_code+0xe4>
    44d6:	8a e3       	ldi	r24, 0x3A	; 58
    44d8:	0e 94 c0 36 	call	0x6d80	; 0x6d80 <uart_putc>
    44dc:	84 e0       	ldi	r24, 0x04	; 4
    44de:	c4 39       	cpi	r28, 0x94	; 148
    44e0:	d8 07       	cpc	r29, r24
    44e2:	91 f7       	brne	.-28     	; 0x44c8 <view_key_code+0xd0>
    44e4:	8c e1       	ldi	r24, 0x1C	; 28
    44e6:	99 e0       	ldi	r25, 0x09	; 9
    44e8:	df 91       	pop	r29
    44ea:	cf 91       	pop	r28
    44ec:	1f 91       	pop	r17
    44ee:	0f 91       	pop	r16
    44f0:	0c 94 e8 36 	jmp	0x6dd0	; 0x6dd0 <uart_puts_p>

000044f4 <view_menu>:
    44f4:	cf 93       	push	r28
    44f6:	c8 2f       	mov	r28, r24
    44f8:	0e 94 55 1f 	call	0x3eaa	; 0x3eaa <lcd_clear>
    44fc:	8d e0       	ldi	r24, 0x0D	; 13
    44fe:	99 e0       	ldi	r25, 0x09	; 9
    4500:	0e 94 d1 1f 	call	0x3fa2	; 0x3fa2 <lcd_str_p>
    4504:	8e ef       	ldi	r24, 0xFE	; 254
    4506:	98 e0       	ldi	r25, 0x08	; 8
    4508:	0e 94 d1 1f 	call	0x3fa2	; 0x3fa2 <lcd_str_p>
    450c:	8f ee       	ldi	r24, 0xEF	; 239
    450e:	98 e0       	ldi	r25, 0x08	; 8
    4510:	0e 94 d1 1f 	call	0x3fa2	; 0x3fa2 <lcd_str_p>
    4514:	80 ee       	ldi	r24, 0xE0	; 224
    4516:	98 e0       	ldi	r25, 0x08	; 8
    4518:	0e 94 d1 1f 	call	0x3fa2	; 0x3fa2 <lcd_str_p>
    451c:	81 ed       	ldi	r24, 0xD1	; 209
    451e:	98 e0       	ldi	r25, 0x08	; 8
    4520:	0e 94 d1 1f 	call	0x3fa2	; 0x3fa2 <lcd_str_p>
    4524:	82 ec       	ldi	r24, 0xC2	; 194
    4526:	98 e0       	ldi	r25, 0x08	; 8
    4528:	0e 94 d1 1f 	call	0x3fa2	; 0x3fa2 <lcd_str_p>
    452c:	6e ef       	ldi	r22, 0xFE	; 254
    452e:	6c 0f       	add	r22, r28
    4530:	81 e0       	ldi	r24, 0x01	; 1
    4532:	0e 94 be 1e 	call	0x3d7c	; 0x3d7c <lcd_goto_xy>
    4536:	81 e8       	ldi	r24, 0x81	; 129
    4538:	cf 91       	pop	r28
    453a:	0c 94 91 1f 	jmp	0x3f22	; 0x3f22 <lcd_chr>

0000453e <view_write>:
    453e:	0e 94 55 1f 	call	0x3eaa	; 0x3eaa <lcd_clear>
    4542:	63 e0       	ldi	r22, 0x03	; 3
    4544:	84 e0       	ldi	r24, 0x04	; 4
    4546:	0e 94 be 1e 	call	0x3d7c	; 0x3d7c <lcd_goto_xy>
    454a:	88 eb       	ldi	r24, 0xB8	; 184
    454c:	98 e0       	ldi	r25, 0x08	; 8
    454e:	0e 94 d1 1f 	call	0x3fa2	; 0x3fa2 <lcd_str_p>
    4552:	8b ea       	ldi	r24, 0xAB	; 171
    4554:	98 e0       	ldi	r25, 0x08	; 8
    4556:	0c 94 e8 36 	jmp	0x6dd0	; 0x6dd0 <uart_puts_p>

0000455a <view_recorded>:
    455a:	0e 94 55 1f 	call	0x3eaa	; 0x3eaa <lcd_clear>
    455e:	63 e0       	ldi	r22, 0x03	; 3
    4560:	81 e0       	ldi	r24, 0x01	; 1
    4562:	0e 94 be 1e 	call	0x3d7c	; 0x3d7c <lcd_goto_xy>
    4566:	8d e9       	ldi	r24, 0x9D	; 157
    4568:	98 e0       	ldi	r25, 0x08	; 8
    456a:	0e 94 d1 1f 	call	0x3fa2	; 0x3fa2 <lcd_str_p>
    456e:	86 e8       	ldi	r24, 0x86	; 134
    4570:	98 e0       	ldi	r25, 0x08	; 8
    4572:	0e 94 e8 36 	call	0x6dd0	; 0x6dd0 <uart_puts_p>
    4576:	89 eb       	ldi	r24, 0xB9	; 185
    4578:	9a e0       	ldi	r25, 0x0A	; 10
    457a:	0e 94 5d 36 	call	0x6cba	; 0x6cba <sound_play>
    457e:	2f ef       	ldi	r18, 0xFF	; 255
    4580:	83 ed       	ldi	r24, 0xD3	; 211
    4582:	90 e3       	ldi	r25, 0x30	; 48
    4584:	21 50       	subi	r18, 0x01	; 1
    4586:	80 40       	sbci	r24, 0x00	; 0
    4588:	90 40       	sbci	r25, 0x00	; 0
    458a:	e1 f7       	brne	.-8      	; 0x4584 <view_recorded+0x2a>
    458c:	00 c0       	rjmp	.+0      	; 0x458e <view_recorded+0x34>
    458e:	00 00       	nop
    4590:	08 95       	ret

00004592 <view_error>:
    4592:	0e 94 55 1f 	call	0x3eaa	; 0x3eaa <lcd_clear>
    4596:	63 e0       	ldi	r22, 0x03	; 3
    4598:	81 e0       	ldi	r24, 0x01	; 1
    459a:	0e 94 be 1e 	call	0x3d7c	; 0x3d7c <lcd_goto_xy>
    459e:	88 e7       	ldi	r24, 0x78	; 120
    45a0:	98 e0       	ldi	r25, 0x08	; 8
    45a2:	0e 94 d1 1f 	call	0x3fa2	; 0x3fa2 <lcd_str_p>
    45a6:	8a e6       	ldi	r24, 0x6A	; 106
    45a8:	98 e0       	ldi	r25, 0x08	; 8
    45aa:	0e 94 e8 36 	call	0x6dd0	; 0x6dd0 <uart_puts_p>
    45ae:	8b eb       	ldi	r24, 0xBB	; 187
    45b0:	9a e0       	ldi	r25, 0x0A	; 10
    45b2:	0e 94 5d 36 	call	0x6cba	; 0x6cba <sound_play>
    45b6:	2f ef       	ldi	r18, 0xFF	; 255
    45b8:	83 ed       	ldi	r24, 0xD3	; 211
    45ba:	90 e3       	ldi	r25, 0x30	; 48
    45bc:	21 50       	subi	r18, 0x01	; 1
    45be:	80 40       	sbci	r24, 0x00	; 0
    45c0:	90 40       	sbci	r25, 0x00	; 0
    45c2:	e1 f7       	brne	.-8      	; 0x45bc <view_error+0x2a>
    45c4:	00 c0       	rjmp	.+0      	; 0x45c6 <view_error+0x34>
    45c6:	00 00       	nop
    45c8:	08 95       	ret

000045ca <set_mode_write>:
    45ca:	82 e0       	ldi	r24, 0x02	; 2
    45cc:	80 93 16 01 	sts	0x0116, r24
    45d0:	a4 e9       	ldi	r26, 0x94	; 148
    45d2:	b4 e0       	ldi	r27, 0x04	; 4
    45d4:	ec e4       	ldi	r30, 0x4C	; 76
    45d6:	f4 e0       	ldi	r31, 0x04	; 4
    45d8:	88 e0       	ldi	r24, 0x08	; 8
    45da:	8e 0f       	add	r24, r30
    45dc:	91 91       	ld	r25, Z+
    45de:	9d 93       	st	X+, r25
    45e0:	8e 13       	cpse	r24, r30
    45e2:	fc cf       	rjmp	.-8      	; 0x45dc <set_mode_write+0x12>
    45e4:	85 ec       	ldi	r24, 0xC5	; 197
    45e6:	9a e0       	ldi	r25, 0x0A	; 10
    45e8:	0c 94 5d 36 	jmp	0x6cba	; 0x6cba <sound_play>

000045ec <dallas_write>:
    45ec:	1f 93       	push	r17
    45ee:	cf 93       	push	r28
    45f0:	df 93       	push	r29
    45f2:	1f 92       	push	r1
    45f4:	cd b7       	in	r28, 0x3d	; 61
    45f6:	de b7       	in	r29, 0x3e	; 62
    45f8:	8c e4       	ldi	r24, 0x4C	; 76
    45fa:	94 e0       	ldi	r25, 0x04	; 4
    45fc:	0e 94 36 08 	call	0x106c	; 0x106c <ds_read_rom>
    4600:	81 30       	cpi	r24, 0x01	; 1
    4602:	a1 f1       	breq	.+104    	; 0x466c <dallas_write+0x80>
    4604:	89 83       	std	Y+1, r24	; 0x01
    4606:	0e 94 9f 22 	call	0x453e	; 0x453e <view_write>
    460a:	a4 e9       	ldi	r26, 0x94	; 148
    460c:	b4 e0       	ldi	r27, 0x04	; 4
    460e:	ec e4       	ldi	r30, 0x4C	; 76
    4610:	f4 e0       	ldi	r31, 0x04	; 4
    4612:	98 e0       	ldi	r25, 0x08	; 8
    4614:	9e 0f       	add	r25, r30
    4616:	89 81       	ldd	r24, Y+1	; 0x01
    4618:	31 91       	ld	r19, Z+
    461a:	2d 91       	ld	r18, X+
    461c:	32 13       	cpse	r19, r18
    461e:	81 e0       	ldi	r24, 0x01	; 1
    4620:	9e 13       	cpse	r25, r30
    4622:	fa cf       	rjmp	.-12     	; 0x4618 <dallas_write+0x2c>
    4624:	81 30       	cpi	r24, 0x01	; 1
    4626:	19 f0       	breq	.+6      	; 0x462e <dallas_write+0x42>
    4628:	0e 94 ad 22 	call	0x455a	; 0x455a <view_recorded>
    462c:	60 c0       	rjmp	.+192    	; 0x46ee <dallas_write+0x102>
    462e:	14 e0       	ldi	r17, 0x04	; 4
    4630:	84 e9       	ldi	r24, 0x94	; 148
    4632:	94 e0       	ldi	r25, 0x04	; 4
    4634:	0e 94 30 09 	call	0x1260	; 0x1260 <ds_program_tm2004>
    4638:	88 23       	and	r24, r24
    463a:	f9 f0       	breq	.+62     	; 0x467a <dallas_write+0x8e>
    463c:	81 30       	cpi	r24, 0x01	; 1
    463e:	09 f4       	brne	.+2      	; 0x4642 <dallas_write+0x56>
    4640:	56 c0       	rjmp	.+172    	; 0x46ee <dallas_write+0x102>
    4642:	84 e9       	ldi	r24, 0x94	; 148
    4644:	94 e0       	ldi	r25, 0x04	; 4
    4646:	0e 94 da 08 	call	0x11b4	; 0x11b4 <ds_program_tm08v2>
    464a:	88 23       	and	r24, r24
    464c:	c1 f0       	breq	.+48     	; 0x467e <dallas_write+0x92>
    464e:	81 30       	cpi	r24, 0x01	; 1
    4650:	09 f4       	brne	.+2      	; 0x4654 <dallas_write+0x68>
    4652:	4d c0       	rjmp	.+154    	; 0x46ee <dallas_write+0x102>
    4654:	84 e9       	ldi	r24, 0x94	; 148
    4656:	94 e0       	ldi	r25, 0x04	; 4
    4658:	0e 94 84 08 	call	0x1108	; 0x1108 <ds_program_RW1990_2>
    465c:	88 23       	and	r24, r24
    465e:	89 f0       	breq	.+34     	; 0x4682 <dallas_write+0x96>
    4660:	81 30       	cpi	r24, 0x01	; 1
    4662:	09 f4       	brne	.+2      	; 0x4666 <dallas_write+0x7a>
    4664:	44 c0       	rjmp	.+136    	; 0x46ee <dallas_write+0x102>
    4666:	11 50       	subi	r17, 0x01	; 1
    4668:	19 f7       	brne	.-58     	; 0x4630 <dallas_write+0x44>
    466a:	02 c0       	rjmp	.+4      	; 0x4670 <dallas_write+0x84>
    466c:	11 e0       	ldi	r17, 0x01	; 1
    466e:	40 c0       	rjmp	.+128    	; 0x46f0 <dallas_write+0x104>
    4670:	82 30       	cpi	r24, 0x02	; 2
    4672:	f1 f5       	brne	.+124    	; 0x46f0 <dallas_write+0x104>
    4674:	0e 94 c9 22 	call	0x4592	; 0x4592 <view_error>
    4678:	3b c0       	rjmp	.+118    	; 0x46f0 <dallas_write+0x104>
    467a:	12 e0       	ldi	r17, 0x02	; 2
    467c:	03 c0       	rjmp	.+6      	; 0x4684 <dallas_write+0x98>
    467e:	11 e0       	ldi	r17, 0x01	; 1
    4680:	01 c0       	rjmp	.+2      	; 0x4684 <dallas_write+0x98>
    4682:	10 e0       	ldi	r17, 0x00	; 0
    4684:	0e 94 55 1f 	call	0x3eaa	; 0x3eaa <lcd_clear>
    4688:	63 e0       	ldi	r22, 0x03	; 3
    468a:	81 e0       	ldi	r24, 0x01	; 1
    468c:	0e 94 be 1e 	call	0x3d7c	; 0x3d7c <lcd_goto_xy>
    4690:	11 11       	cpse	r17, r1
    4692:	07 c0       	rjmp	.+14     	; 0x46a2 <dallas_write+0xb6>
    4694:	83 e6       	ldi	r24, 0x63	; 99
    4696:	98 e0       	ldi	r25, 0x08	; 8
    4698:	0e 94 d1 1f 	call	0x3fa2	; 0x3fa2 <lcd_str_p>
    469c:	8c e5       	ldi	r24, 0x5C	; 92
    469e:	98 e0       	ldi	r25, 0x08	; 8
    46a0:	0f c0       	rjmp	.+30     	; 0x46c0 <dallas_write+0xd4>
    46a2:	11 30       	cpi	r17, 0x01	; 1
    46a4:	39 f4       	brne	.+14     	; 0x46b4 <dallas_write+0xc8>
    46a6:	85 e5       	ldi	r24, 0x55	; 85
    46a8:	98 e0       	ldi	r25, 0x08	; 8
    46aa:	0e 94 d1 1f 	call	0x3fa2	; 0x3fa2 <lcd_str_p>
    46ae:	8e e4       	ldi	r24, 0x4E	; 78
    46b0:	98 e0       	ldi	r25, 0x08	; 8
    46b2:	06 c0       	rjmp	.+12     	; 0x46c0 <dallas_write+0xd4>
    46b4:	87 e4       	ldi	r24, 0x47	; 71
    46b6:	98 e0       	ldi	r25, 0x08	; 8
    46b8:	0e 94 d1 1f 	call	0x3fa2	; 0x3fa2 <lcd_str_p>
    46bc:	80 e4       	ldi	r24, 0x40	; 64
    46be:	98 e0       	ldi	r25, 0x08	; 8
    46c0:	0e 94 e8 36 	call	0x6dd0	; 0x6dd0 <uart_puts_p>
    46c4:	87 e3       	ldi	r24, 0x37	; 55
    46c6:	98 e0       	ldi	r25, 0x08	; 8
    46c8:	0e 94 d1 1f 	call	0x3fa2	; 0x3fa2 <lcd_str_p>
    46cc:	88 e2       	ldi	r24, 0x28	; 40
    46ce:	98 e0       	ldi	r25, 0x08	; 8
    46d0:	0e 94 e8 36 	call	0x6dd0	; 0x6dd0 <uart_puts_p>
    46d4:	8f eb       	ldi	r24, 0xBF	; 191
    46d6:	9a e0       	ldi	r25, 0x0A	; 10
    46d8:	0e 94 5d 36 	call	0x6cba	; 0x6cba <sound_play>
    46dc:	2f ef       	ldi	r18, 0xFF	; 255
    46de:	83 ed       	ldi	r24, 0xD3	; 211
    46e0:	90 e3       	ldi	r25, 0x30	; 48
    46e2:	21 50       	subi	r18, 0x01	; 1
    46e4:	80 40       	sbci	r24, 0x00	; 0
    46e6:	90 40       	sbci	r25, 0x00	; 0
    46e8:	e1 f7       	brne	.-8      	; 0x46e2 <dallas_write+0xf6>
    46ea:	00 c0       	rjmp	.+0      	; 0x46ec <dallas_write+0x100>
    46ec:	00 00       	nop
    46ee:	10 e0       	ldi	r17, 0x00	; 0
    46f0:	81 2f       	mov	r24, r17
    46f2:	0f 90       	pop	r0
    46f4:	df 91       	pop	r29
    46f6:	cf 91       	pop	r28
    46f8:	1f 91       	pop	r17
    46fa:	08 95       	ret

000046fc <resist_read>:
    46fc:	2f 92       	push	r2
    46fe:	3f 92       	push	r3
    4700:	4f 92       	push	r4
    4702:	5f 92       	push	r5
    4704:	6f 92       	push	r6
    4706:	7f 92       	push	r7
    4708:	8f 92       	push	r8
    470a:	9f 92       	push	r9
    470c:	af 92       	push	r10
    470e:	bf 92       	push	r11
    4710:	cf 92       	push	r12
    4712:	df 92       	push	r13
    4714:	ef 92       	push	r14
    4716:	ff 92       	push	r15
    4718:	0f 93       	push	r16
    471a:	1f 93       	push	r17
    471c:	cf 93       	push	r28
    471e:	df 93       	push	r29
    4720:	8c 01       	movw	r16, r24
    4722:	80 e6       	ldi	r24, 0x60	; 96
    4724:	80 93 7c 00 	sts	0x007C, r24
    4728:	8f e8       	ldi	r24, 0x8F	; 143
    472a:	91 e0       	ldi	r25, 0x01	; 1
    472c:	01 97       	sbiw	r24, 0x01	; 1
    472e:	f1 f7       	brne	.-4      	; 0x472c <resist_read+0x30>
    4730:	00 c0       	rjmp	.+0      	; 0x4732 <resist_read+0x36>
    4732:	00 00       	nop
    4734:	80 91 79 00 	lds	r24, 0x0079
    4738:	8e 3f       	cpi	r24, 0xFE	; 254
    473a:	08 f0       	brcs	.+2      	; 0x473e <resist_read+0x42>
    473c:	92 c0       	rjmp	.+292    	; 0x4862 <resist_read+0x166>
    473e:	80 91 09 02 	lds	r24, 0x0209
    4742:	88 30       	cpi	r24, 0x08	; 8
    4744:	08 f4       	brcc	.+2      	; 0x4748 <resist_read+0x4c>
    4746:	89 c0       	rjmp	.+274    	; 0x485a <resist_read+0x15e>
    4748:	20 e0       	ldi	r18, 0x00	; 0
    474a:	80 e0       	ldi	r24, 0x00	; 0
    474c:	90 e0       	ldi	r25, 0x00	; 0
    474e:	dc 01       	movw	r26, r24
    4750:	40 91 78 00 	lds	r20, 0x0078
    4754:	50 91 79 00 	lds	r21, 0x0079
    4758:	76 e0       	ldi	r23, 0x06	; 6
    475a:	56 95       	lsr	r21
    475c:	47 95       	ror	r20
    475e:	7a 95       	dec	r23
    4760:	e1 f7       	brne	.-8      	; 0x475a <resist_read+0x5e>
    4762:	84 0f       	add	r24, r20
    4764:	95 1f       	adc	r25, r21
    4766:	a1 1d       	adc	r26, r1
    4768:	b1 1d       	adc	r27, r1
    476a:	e5 e3       	ldi	r30, 0x35	; 53
    476c:	ea 95       	dec	r30
    476e:	f1 f7       	brne	.-4      	; 0x476c <resist_read+0x70>
    4770:	00 00       	nop
    4772:	2f 5f       	subi	r18, 0xFF	; 255
    4774:	20 38       	cpi	r18, 0x80	; 128
    4776:	61 f7       	brne	.-40     	; 0x4750 <resist_read+0x54>
    4778:	6c 01       	movw	r12, r24
    477a:	7d 01       	movw	r14, r26
    477c:	67 e0       	ldi	r22, 0x07	; 7
    477e:	f6 94       	lsr	r15
    4780:	e7 94       	ror	r14
    4782:	d7 94       	ror	r13
    4784:	c7 94       	ror	r12
    4786:	6a 95       	dec	r22
    4788:	d1 f7       	brne	.-12     	; 0x477e <resist_read+0x82>
    478a:	f8 01       	movw	r30, r16
    478c:	c8 01       	movw	r24, r16
    478e:	08 96       	adiw	r24, 0x08	; 8
    4790:	11 92       	st	Z+, r1
    4792:	e8 17       	cp	r30, r24
    4794:	f9 07       	cpc	r31, r25
    4796:	e1 f7       	brne	.-8      	; 0x4790 <resist_read+0x94>
    4798:	a8 ee       	ldi	r26, 0xE8	; 232
    479a:	b3 e0       	ldi	r27, 0x03	; 3
    479c:	a7 01       	movw	r20, r14
    479e:	96 01       	movw	r18, r12
    47a0:	0e 94 93 37 	call	0x6f26	; 0x6f26 <__muluhisi3>
    47a4:	81 2c       	mov	r8, r1
    47a6:	54 e0       	ldi	r21, 0x04	; 4
    47a8:	95 2e       	mov	r9, r21
    47aa:	a1 2c       	mov	r10, r1
    47ac:	b1 2c       	mov	r11, r1
    47ae:	a5 01       	movw	r20, r10
    47b0:	94 01       	movw	r18, r8
    47b2:	2c 19       	sub	r18, r12
    47b4:	3d 09       	sbc	r19, r13
    47b6:	4e 09       	sbc	r20, r14
    47b8:	5f 09       	sbc	r21, r15
    47ba:	0e 94 6b 37 	call	0x6ed6	; 0x6ed6 <__udivmodsi4>
    47be:	ca 01       	movw	r24, r20
    47c0:	b9 01       	movw	r22, r18
    47c2:	21 33       	cpi	r18, 0x31	; 49
    47c4:	35 47       	sbci	r19, 0x75	; 117
    47c6:	41 05       	cpc	r20, r1
    47c8:	51 05       	cpc	r21, r1
    47ca:	28 f0       	brcs	.+10     	; 0x47d6 <resist_read+0xda>
    47cc:	2a e2       	ldi	r18, 0x2A	; 42
    47ce:	f8 01       	movw	r30, r16
    47d0:	20 83       	st	Z, r18
    47d2:	c1 e0       	ldi	r28, 0x01	; 1
    47d4:	01 c0       	rjmp	.+2      	; 0x47d8 <resist_read+0xdc>
    47d6:	c0 e0       	ldi	r28, 0x00	; 0
    47d8:	cf 5f       	subi	r28, 0xFF	; 255
    47da:	d1 e0       	ldi	r29, 0x01	; 1
    47dc:	33 24       	eor	r3, r3
    47de:	33 94       	inc	r3
    47e0:	20 ea       	ldi	r18, 0xA0	; 160
    47e2:	82 2e       	mov	r8, r18
    47e4:	26 e8       	ldi	r18, 0x86	; 134
    47e6:	92 2e       	mov	r9, r18
    47e8:	aa 24       	eor	r10, r10
    47ea:	a3 94       	inc	r10
    47ec:	b1 2c       	mov	r11, r1
    47ee:	30 e1       	ldi	r19, 0x10	; 16
    47f0:	43 2e       	mov	r4, r19
    47f2:	37 e2       	ldi	r19, 0x27	; 39
    47f4:	53 2e       	mov	r5, r19
    47f6:	61 2c       	mov	r6, r1
    47f8:	71 2c       	mov	r7, r1
    47fa:	40 e2       	ldi	r20, 0x20	; 32
    47fc:	24 2e       	mov	r2, r20
    47fe:	a5 01       	movw	r20, r10
    4800:	94 01       	movw	r18, r8
    4802:	0e 94 6b 37 	call	0x6ed6	; 0x6ed6 <__udivmodsi4>
    4806:	6b 01       	movw	r12, r22
    4808:	7c 01       	movw	r14, r24
    480a:	a3 01       	movw	r20, r6
    480c:	92 01       	movw	r18, r4
    480e:	0e 94 6b 37 	call	0x6ed6	; 0x6ed6 <__udivmodsi4>
    4812:	8f ef       	ldi	r24, 0xFF	; 255
    4814:	8c 0f       	add	r24, r28
    4816:	90 e0       	ldi	r25, 0x00	; 0
    4818:	21 15       	cp	r18, r1
    481a:	31 05       	cpc	r19, r1
    481c:	41 05       	cpc	r20, r1
    481e:	51 05       	cpc	r21, r1
    4820:	51 f4       	brne	.+20     	; 0x4836 <resist_read+0x13a>
    4822:	f1 e0       	ldi	r31, 0x01	; 1
    4824:	3f 12       	cpse	r3, r31
    4826:	07 c0       	rjmp	.+14     	; 0x4836 <resist_read+0x13a>
    4828:	d5 30       	cpi	r29, 0x05	; 5
    482a:	29 f0       	breq	.+10     	; 0x4836 <resist_read+0x13a>
    482c:	f8 01       	movw	r30, r16
    482e:	e8 0f       	add	r30, r24
    4830:	f9 1f       	adc	r31, r25
    4832:	20 82       	st	Z, r2
    4834:	06 c0       	rjmp	.+12     	; 0x4842 <resist_read+0x146>
    4836:	f8 01       	movw	r30, r16
    4838:	e8 0f       	add	r30, r24
    483a:	f9 1f       	adc	r31, r25
    483c:	20 5d       	subi	r18, 0xD0	; 208
    483e:	20 83       	st	Z, r18
    4840:	31 2c       	mov	r3, r1
    4842:	aa e0       	ldi	r26, 0x0A	; 10
    4844:	b0 e0       	ldi	r27, 0x00	; 0
    4846:	a7 01       	movw	r20, r14
    4848:	96 01       	movw	r18, r12
    484a:	0e 94 93 37 	call	0x6f26	; 0x6f26 <__muluhisi3>
    484e:	df 5f       	subi	r29, 0xFF	; 255
    4850:	cf 5f       	subi	r28, 0xFF	; 255
    4852:	d6 30       	cpi	r29, 0x06	; 6
    4854:	a1 f6       	brne	.-88     	; 0x47fe <resist_read+0x102>
    4856:	80 e0       	ldi	r24, 0x00	; 0
    4858:	07 c0       	rjmp	.+14     	; 0x4868 <resist_read+0x16c>
    485a:	8f 5f       	subi	r24, 0xFF	; 255
    485c:	80 93 09 02 	sts	0x0209, r24
    4860:	02 c0       	rjmp	.+4      	; 0x4866 <resist_read+0x16a>
    4862:	10 92 09 02 	sts	0x0209, r1
    4866:	81 e0       	ldi	r24, 0x01	; 1
    4868:	df 91       	pop	r29
    486a:	cf 91       	pop	r28
    486c:	1f 91       	pop	r17
    486e:	0f 91       	pop	r16
    4870:	ff 90       	pop	r15
    4872:	ef 90       	pop	r14
    4874:	df 90       	pop	r13
    4876:	cf 90       	pop	r12
    4878:	bf 90       	pop	r11
    487a:	af 90       	pop	r10
    487c:	9f 90       	pop	r9
    487e:	8f 90       	pop	r8
    4880:	7f 90       	pop	r7
    4882:	6f 90       	pop	r6
    4884:	5f 90       	pop	r5
    4886:	4f 90       	pop	r4
    4888:	3f 90       	pop	r3
    488a:	2f 90       	pop	r2
    488c:	08 95       	ret

0000488e <test_bat>:
    488e:	86 ee       	ldi	r24, 0xE6	; 230
    4890:	80 93 7c 00 	sts	0x007C, r24
    4894:	8f e9       	ldi	r24, 0x9F	; 159
    4896:	9f e0       	ldi	r25, 0x0F	; 15
    4898:	01 97       	sbiw	r24, 0x01	; 1
    489a:	f1 f7       	brne	.-4      	; 0x4898 <test_bat+0xa>
    489c:	00 c0       	rjmp	.+0      	; 0x489e <test_bat+0x10>
    489e:	00 00       	nop
    48a0:	80 91 79 00 	lds	r24, 0x0079
    48a4:	08 95       	ret

000048a6 <str_add_p>:
    48a6:	dc 01       	movw	r26, r24
    48a8:	fb 01       	movw	r30, r22
    48aa:	94 91       	lpm	r25, Z
    48ac:	9d 93       	st	X+, r25
    48ae:	31 96       	adiw	r30, 0x01	; 1
    48b0:	91 11       	cpse	r25, r1
    48b2:	fb cf       	rjmp	.-10     	; 0x48aa <str_add_p+0x4>
    48b4:	08 95       	ret

000048b6 <str_putdw_dec>:
    48b6:	2f 92       	push	r2
    48b8:	3f 92       	push	r3
    48ba:	4f 92       	push	r4
    48bc:	5f 92       	push	r5
    48be:	6f 92       	push	r6
    48c0:	7f 92       	push	r7
    48c2:	8f 92       	push	r8
    48c4:	9f 92       	push	r9
    48c6:	af 92       	push	r10
    48c8:	bf 92       	push	r11
    48ca:	cf 92       	push	r12
    48cc:	df 92       	push	r13
    48ce:	ef 92       	push	r14
    48d0:	ff 92       	push	r15
    48d2:	0f 93       	push	r16
    48d4:	1f 93       	push	r17
    48d6:	cf 93       	push	r28
    48d8:	df 93       	push	r29
    48da:	ec 01       	movw	r28, r24
    48dc:	4a 01       	movw	r8, r20
    48de:	5b 01       	movw	r10, r22
    48e0:	0a e0       	ldi	r16, 0x0A	; 10
    48e2:	10 e0       	ldi	r17, 0x00	; 0
    48e4:	31 2c       	mov	r3, r1
    48e6:	21 2c       	mov	r2, r1
    48e8:	c1 2c       	mov	r12, r1
    48ea:	8a ec       	ldi	r24, 0xCA	; 202
    48ec:	d8 2e       	mov	r13, r24
    48ee:	8a e9       	ldi	r24, 0x9A	; 154
    48f0:	e8 2e       	mov	r14, r24
    48f2:	8b e3       	ldi	r24, 0x3B	; 59
    48f4:	f8 2e       	mov	r15, r24
    48f6:	9a e0       	ldi	r25, 0x0A	; 10
    48f8:	49 2e       	mov	r4, r25
    48fa:	51 2c       	mov	r5, r1
    48fc:	61 2c       	mov	r6, r1
    48fe:	71 2c       	mov	r7, r1
    4900:	c5 01       	movw	r24, r10
    4902:	b4 01       	movw	r22, r8
    4904:	a7 01       	movw	r20, r14
    4906:	96 01       	movw	r18, r12
    4908:	0e 94 6b 37 	call	0x6ed6	; 0x6ed6 <__udivmodsi4>
    490c:	21 11       	cpse	r18, r1
    490e:	08 c0       	rjmp	.+16     	; 0x4920 <str_putdw_dec+0x6a>
    4910:	21 10       	cpse	r2, r1
    4912:	06 c0       	rjmp	.+12     	; 0x4920 <str_putdw_dec+0x6a>
    4914:	81 e0       	ldi	r24, 0x01	; 1
    4916:	c8 16       	cp	r12, r24
    4918:	d1 04       	cpc	r13, r1
    491a:	e1 04       	cpc	r14, r1
    491c:	f1 04       	cpc	r15, r1
    491e:	49 f4       	brne	.+18     	; 0x4932 <str_putdw_dec+0x7c>
    4920:	fe 01       	movw	r30, r28
    4922:	e3 0d       	add	r30, r3
    4924:	f1 1d       	adc	r31, r1
    4926:	80 e3       	ldi	r24, 0x30	; 48
    4928:	82 0f       	add	r24, r18
    492a:	80 83       	st	Z, r24
    492c:	33 94       	inc	r3
    492e:	22 24       	eor	r2, r2
    4930:	23 94       	inc	r2
    4932:	a2 2f       	mov	r26, r18
    4934:	b0 e0       	ldi	r27, 0x00	; 0
    4936:	a7 01       	movw	r20, r14
    4938:	96 01       	movw	r18, r12
    493a:	0e 94 93 37 	call	0x6f26	; 0x6f26 <__muluhisi3>
    493e:	86 1a       	sub	r8, r22
    4940:	97 0a       	sbc	r9, r23
    4942:	a8 0a       	sbc	r10, r24
    4944:	b9 0a       	sbc	r11, r25
    4946:	c7 01       	movw	r24, r14
    4948:	b6 01       	movw	r22, r12
    494a:	a3 01       	movw	r20, r6
    494c:	92 01       	movw	r18, r4
    494e:	0e 94 6b 37 	call	0x6ed6	; 0x6ed6 <__udivmodsi4>
    4952:	69 01       	movw	r12, r18
    4954:	7a 01       	movw	r14, r20
    4956:	01 50       	subi	r16, 0x01	; 1
    4958:	11 09       	sbc	r17, r1
    495a:	91 f6       	brne	.-92     	; 0x4900 <str_putdw_dec+0x4a>
    495c:	c3 0d       	add	r28, r3
    495e:	d1 1d       	adc	r29, r1
    4960:	18 82       	st	Y, r1
    4962:	df 91       	pop	r29
    4964:	cf 91       	pop	r28
    4966:	1f 91       	pop	r17
    4968:	0f 91       	pop	r16
    496a:	ff 90       	pop	r15
    496c:	ef 90       	pop	r14
    496e:	df 90       	pop	r13
    4970:	cf 90       	pop	r12
    4972:	bf 90       	pop	r11
    4974:	af 90       	pop	r10
    4976:	9f 90       	pop	r9
    4978:	8f 90       	pop	r8
    497a:	7f 90       	pop	r7
    497c:	6f 90       	pop	r6
    497e:	5f 90       	pop	r5
    4980:	4f 90       	pop	r4
    4982:	3f 90       	pop	r3
    4984:	2f 90       	pop	r2
    4986:	08 95       	ret

00004988 <str_put_hex>:
    4988:	fc 01       	movw	r30, r24
    498a:	96 2f       	mov	r25, r22
    498c:	92 95       	swap	r25
    498e:	9f 70       	andi	r25, 0x0F	; 15
    4990:	9a 30       	cpi	r25, 0x0A	; 10
    4992:	10 f4       	brcc	.+4      	; 0x4998 <str_put_hex+0x10>
    4994:	90 5d       	subi	r25, 0xD0	; 208
    4996:	01 c0       	rjmp	.+2      	; 0x499a <str_put_hex+0x12>
    4998:	99 5c       	subi	r25, 0xC9	; 201
    499a:	90 83       	st	Z, r25
    499c:	6f 70       	andi	r22, 0x0F	; 15
    499e:	6a 30       	cpi	r22, 0x0A	; 10
    49a0:	10 f4       	brcc	.+4      	; 0x49a6 <str_put_hex+0x1e>
    49a2:	60 5d       	subi	r22, 0xD0	; 208
    49a4:	01 c0       	rjmp	.+2      	; 0x49a8 <str_put_hex+0x20>
    49a6:	69 5c       	subi	r22, 0xC9	; 201
    49a8:	61 83       	std	Z+1, r22	; 0x01
    49aa:	12 82       	std	Z+2, r1	; 0x02
    49ac:	08 95       	ret

000049ae <cmd_compare>:
    49ae:	cf 93       	push	r28
    49b0:	df 93       	push	r29
    49b2:	dc 01       	movw	r26, r24
    49b4:	90 e0       	ldi	r25, 0x00	; 0
    49b6:	29 2f       	mov	r18, r25
    49b8:	30 e0       	ldi	r19, 0x00	; 0
    49ba:	fb 01       	movw	r30, r22
    49bc:	e2 0f       	add	r30, r18
    49be:	f3 1f       	adc	r31, r19
    49c0:	44 91       	lpm	r20, Z
    49c2:	44 23       	and	r20, r20
    49c4:	59 f0       	breq	.+22     	; 0x49dc <cmd_compare+0x2e>
    49c6:	ed 01       	movw	r28, r26
    49c8:	c2 0f       	add	r28, r18
    49ca:	d3 1f       	adc	r29, r19
    49cc:	28 81       	ld	r18, Y
    49ce:	22 23       	and	r18, r18
    49d0:	39 f0       	breq	.+14     	; 0x49e0 <cmd_compare+0x32>
    49d2:	e4 91       	lpm	r30, Z
    49d4:	2e 13       	cpse	r18, r30
    49d6:	06 c0       	rjmp	.+12     	; 0x49e4 <cmd_compare+0x36>
    49d8:	9f 5f       	subi	r25, 0xFF	; 255
    49da:	ed cf       	rjmp	.-38     	; 0x49b6 <cmd_compare+0x8>
    49dc:	80 e0       	ldi	r24, 0x00	; 0
    49de:	03 c0       	rjmp	.+6      	; 0x49e6 <cmd_compare+0x38>
    49e0:	82 e0       	ldi	r24, 0x02	; 2
    49e2:	01 c0       	rjmp	.+2      	; 0x49e6 <cmd_compare+0x38>
    49e4:	81 e0       	ldi	r24, 0x01	; 1
    49e6:	df 91       	pop	r29
    49e8:	cf 91       	pop	r28
    49ea:	08 95       	ret

000049ec <cmd_parse>:
    49ec:	1f 93       	push	r17
    49ee:	cf 93       	push	r28
    49f0:	df 93       	push	r29
    49f2:	ec 01       	movw	r28, r24
    49f4:	10 92 42 04 	sts	0x0442, r1
    49f8:	63 e2       	ldi	r22, 0x23	; 35
    49fa:	78 e0       	ldi	r23, 0x08	; 8
    49fc:	0e 94 d7 24 	call	0x49ae	; 0x49ae <cmd_compare>
    4a00:	81 11       	cpse	r24, r1
    4a02:	03 c0       	rjmp	.+6      	; 0x4a0a <cmd_parse+0x1e>
    4a04:	24 96       	adiw	r28, 0x04	; 4
    4a06:	13 e0       	ldi	r17, 0x03	; 3
    4a08:	0b c0       	rjmp	.+22     	; 0x4a20 <cmd_parse+0x34>
    4a0a:	6d e1       	ldi	r22, 0x1D	; 29
    4a0c:	78 e0       	ldi	r23, 0x08	; 8
    4a0e:	ce 01       	movw	r24, r28
    4a10:	0e 94 d7 24 	call	0x49ae	; 0x49ae <cmd_compare>
    4a14:	81 11       	cpse	r24, r1
    4a16:	03 c0       	rjmp	.+6      	; 0x4a1e <cmd_parse+0x32>
    4a18:	25 96       	adiw	r28, 0x05	; 5
    4a1a:	12 e0       	ldi	r17, 0x02	; 2
    4a1c:	01 c0       	rjmp	.+2      	; 0x4a20 <cmd_parse+0x34>
    4a1e:	10 e0       	ldi	r17, 0x00	; 0
    4a20:	ce 01       	movw	r24, r28
    4a22:	ec 01       	movw	r28, r24
    4a24:	01 96       	adiw	r24, 0x01	; 1
    4a26:	28 81       	ld	r18, Y
    4a28:	20 32       	cpi	r18, 0x20	; 32
    4a2a:	d9 f3       	breq	.-10     	; 0x4a22 <cmd_parse+0x36>
    4a2c:	66 e1       	ldi	r22, 0x16	; 22
    4a2e:	78 e0       	ldi	r23, 0x08	; 8
    4a30:	ce 01       	movw	r24, r28
    4a32:	0e 94 d7 24 	call	0x49ae	; 0x49ae <cmd_compare>
    4a36:	81 11       	cpse	r24, r1
    4a38:	03 c0       	rjmp	.+6      	; 0x4a40 <cmd_parse+0x54>
    4a3a:	26 96       	adiw	r28, 0x06	; 6
    4a3c:	21 e0       	ldi	r18, 0x01	; 1
    4a3e:	29 c0       	rjmp	.+82     	; 0x4a92 <cmd_parse+0xa6>
    4a40:	61 e1       	ldi	r22, 0x11	; 17
    4a42:	78 e0       	ldi	r23, 0x08	; 8
    4a44:	ce 01       	movw	r24, r28
    4a46:	0e 94 d7 24 	call	0x49ae	; 0x49ae <cmd_compare>
    4a4a:	81 11       	cpse	r24, r1
    4a4c:	03 c0       	rjmp	.+6      	; 0x4a54 <cmd_parse+0x68>
    4a4e:	24 96       	adiw	r28, 0x04	; 4
    4a50:	22 e0       	ldi	r18, 0x02	; 2
    4a52:	1f c0       	rjmp	.+62     	; 0x4a92 <cmd_parse+0xa6>
    4a54:	6b e0       	ldi	r22, 0x0B	; 11
    4a56:	78 e0       	ldi	r23, 0x08	; 8
    4a58:	ce 01       	movw	r24, r28
    4a5a:	0e 94 d7 24 	call	0x49ae	; 0x49ae <cmd_compare>
    4a5e:	81 11       	cpse	r24, r1
    4a60:	03 c0       	rjmp	.+6      	; 0x4a68 <cmd_parse+0x7c>
    4a62:	25 96       	adiw	r28, 0x05	; 5
    4a64:	23 e0       	ldi	r18, 0x03	; 3
    4a66:	15 c0       	rjmp	.+42     	; 0x4a92 <cmd_parse+0xa6>
    4a68:	63 e0       	ldi	r22, 0x03	; 3
    4a6a:	78 e0       	ldi	r23, 0x08	; 8
    4a6c:	ce 01       	movw	r24, r28
    4a6e:	0e 94 d7 24 	call	0x49ae	; 0x49ae <cmd_compare>
    4a72:	81 11       	cpse	r24, r1
    4a74:	03 c0       	rjmp	.+6      	; 0x4a7c <cmd_parse+0x90>
    4a76:	27 96       	adiw	r28, 0x07	; 7
    4a78:	24 e0       	ldi	r18, 0x04	; 4
    4a7a:	0b c0       	rjmp	.+22     	; 0x4a92 <cmd_parse+0xa6>
    4a7c:	6c ef       	ldi	r22, 0xFC	; 252
    4a7e:	77 e0       	ldi	r23, 0x07	; 7
    4a80:	ce 01       	movw	r24, r28
    4a82:	0e 94 d7 24 	call	0x49ae	; 0x49ae <cmd_compare>
    4a86:	88 23       	and	r24, r24
    4a88:	11 f0       	breq	.+4      	; 0x4a8e <cmd_parse+0xa2>
    4a8a:	20 e0       	ldi	r18, 0x00	; 0
    4a8c:	02 c0       	rjmp	.+4      	; 0x4a92 <cmd_parse+0xa6>
    4a8e:	26 96       	adiw	r28, 0x06	; 6
    4a90:	27 e0       	ldi	r18, 0x07	; 7
    4a92:	de 01       	movw	r26, r28
    4a94:	21 96       	adiw	r28, 0x01	; 1
    4a96:	8c 91       	ld	r24, X
    4a98:	80 32       	cpi	r24, 0x20	; 32
    4a9a:	d9 f3       	breq	.-10     	; 0x4a92 <cmd_parse+0xa6>
    4a9c:	cc e4       	ldi	r28, 0x4C	; 76
    4a9e:	d4 e0       	ldi	r29, 0x04	; 4
    4aa0:	fe 01       	movw	r30, r28
    4aa2:	5c 2f       	mov	r21, r28
    4aa4:	58 5f       	subi	r21, 0xF8	; 248
    4aa6:	11 92       	st	Z+, r1
    4aa8:	5e 13       	cpse	r21, r30
    4aaa:	fd cf       	rjmp	.-6      	; 0x4aa6 <cmd_parse+0xba>
    4aac:	40 e0       	ldi	r20, 0x00	; 0
    4aae:	8d 91       	ld	r24, X+
    4ab0:	88 23       	and	r24, r24
    4ab2:	21 f1       	breq	.+72     	; 0x4afc <cmd_parse+0x110>
    4ab4:	40 31       	cpi	r20, 0x10	; 16
    4ab6:	11 f1       	breq	.+68     	; 0x4afc <cmd_parse+0x110>
    4ab8:	e4 2f       	mov	r30, r20
    4aba:	e6 95       	lsr	r30
    4abc:	f0 e0       	ldi	r31, 0x00	; 0
    4abe:	e4 5b       	subi	r30, 0xB4	; 180
    4ac0:	fb 4f       	sbci	r31, 0xFB	; 251
    4ac2:	30 81       	ld	r19, Z
    4ac4:	32 95       	swap	r19
    4ac6:	30 7f       	andi	r19, 0xF0	; 240
    4ac8:	80 33       	cpi	r24, 0x30	; 48
    4aca:	10 f4       	brcc	.+4      	; 0x4ad0 <cmd_parse+0xe4>
    4acc:	30 83       	st	Z, r19
    4ace:	14 c0       	rjmp	.+40     	; 0x4af8 <cmd_parse+0x10c>
    4ad0:	8a 33       	cpi	r24, 0x3A	; 58
    4ad2:	10 f4       	brcc	.+4      	; 0x4ad8 <cmd_parse+0xec>
    4ad4:	90 ed       	ldi	r25, 0xD0	; 208
    4ad6:	05 c0       	rjmp	.+10     	; 0x4ae2 <cmd_parse+0xf6>
    4ad8:	81 34       	cpi	r24, 0x41	; 65
    4ada:	c0 f3       	brcs	.-16     	; 0x4acc <cmd_parse+0xe0>
    4adc:	87 34       	cpi	r24, 0x47	; 71
    4ade:	28 f4       	brcc	.+10     	; 0x4aea <cmd_parse+0xfe>
    4ae0:	99 ec       	ldi	r25, 0xC9	; 201
    4ae2:	98 0f       	add	r25, r24
    4ae4:	83 2f       	mov	r24, r19
    4ae6:	89 2b       	or	r24, r25
    4ae8:	06 c0       	rjmp	.+12     	; 0x4af6 <cmd_parse+0x10a>
    4aea:	9f e9       	ldi	r25, 0x9F	; 159
    4aec:	98 0f       	add	r25, r24
    4aee:	96 30       	cpi	r25, 0x06	; 6
    4af0:	68 f7       	brcc	.-38     	; 0x4acc <cmd_parse+0xe0>
    4af2:	87 55       	subi	r24, 0x57	; 87
    4af4:	83 2b       	or	r24, r19
    4af6:	80 83       	st	Z, r24
    4af8:	4f 5f       	subi	r20, 0xFF	; 255
    4afa:	d9 cf       	rjmp	.-78     	; 0x4aae <cmd_parse+0xc2>
    4afc:	11 23       	and	r17, r17
    4afe:	59 f0       	breq	.+22     	; 0x4b16 <cmd_parse+0x12a>
    4b00:	12 30       	cpi	r17, 0x02	; 2
    4b02:	39 f0       	breq	.+14     	; 0x4b12 <cmd_parse+0x126>
    4b04:	10 93 16 01 	sts	0x0116, r17
    4b08:	20 93 0b 02 	sts	0x020B, r18
    4b0c:	87 eb       	ldi	r24, 0xB7	; 183
    4b0e:	9a e0       	ldi	r25, 0x0A	; 10
    4b10:	04 c0       	rjmp	.+8      	; 0x4b1a <cmd_parse+0x12e>
    4b12:	21 11       	cpse	r18, r1
    4b14:	07 c0       	rjmp	.+14     	; 0x4b24 <cmd_parse+0x138>
    4b16:	8b eb       	ldi	r24, 0xBB	; 187
    4b18:	9a e0       	ldi	r25, 0x0A	; 10
    4b1a:	df 91       	pop	r29
    4b1c:	cf 91       	pop	r28
    4b1e:	1f 91       	pop	r17
    4b20:	0c 94 5d 36 	jmp	0x6cba	; 0x6cba <sound_play>
    4b24:	e4 e9       	ldi	r30, 0x94	; 148
    4b26:	f4 e0       	ldi	r31, 0x04	; 4
    4b28:	89 91       	ld	r24, Y+
    4b2a:	81 93       	st	Z+, r24
    4b2c:	5c 13       	cpse	r21, r28
    4b2e:	fc cf       	rjmp	.-8      	; 0x4b28 <cmd_parse+0x13c>
    4b30:	e9 cf       	rjmp	.-46     	; 0x4b04 <cmd_parse+0x118>

00004b32 <file_read>:
    4b32:	0f 93       	push	r16
    4b34:	1f 93       	push	r17
    4b36:	cf 93       	push	r28
    4b38:	df 93       	push	r29
    4b3a:	60 91 40 04 	lds	r22, 0x0440
    4b3e:	70 91 41 04 	lds	r23, 0x0441
    4b42:	ac 01       	movw	r20, r24
    4b44:	80 91 3a 04 	lds	r24, 0x043A
    4b48:	90 91 3b 04 	lds	r25, 0x043B
    4b4c:	0e 94 a8 20 	call	0x4150	; 0x4150 <open_file_in_dir>
    4b50:	90 93 3d 04 	sts	0x043D, r25
    4b54:	80 93 3c 04 	sts	0x043C, r24
    4b58:	40 e0       	ldi	r20, 0x00	; 0
    4b5a:	6c ed       	ldi	r22, 0xDC	; 220
    4b5c:	74 e0       	ldi	r23, 0x04	; 4
    4b5e:	0e 94 a7 1a 	call	0x354e	; 0x354e <fat_seek_file>
    4b62:	40 e4       	ldi	r20, 0x40	; 64
    4b64:	50 e0       	ldi	r21, 0x00	; 0
    4b66:	6c e9       	ldi	r22, 0x9C	; 156
    4b68:	74 e0       	ldi	r23, 0x04	; 4
    4b6a:	80 91 3c 04 	lds	r24, 0x043C
    4b6e:	90 91 3d 04 	lds	r25, 0x043D
    4b72:	0e 94 ec 14 	call	0x29d8	; 0x29d8 <fat_read_file>
    4b76:	ec 01       	movw	r28, r24
    4b78:	80 91 3c 04 	lds	r24, 0x043C
    4b7c:	90 91 3d 04 	lds	r25, 0x043D
    4b80:	0e 94 e6 14 	call	0x29cc	; 0x29cc <fat_close_file>
    4b84:	20 97       	sbiw	r28, 0x00	; 0
    4b86:	51 f4       	brne	.+20     	; 0x4b9c <file_read+0x6a>
    4b88:	10 92 dc 04 	sts	0x04DC, r1
    4b8c:	10 92 dd 04 	sts	0x04DD, r1
    4b90:	10 92 de 04 	sts	0x04DE, r1
    4b94:	10 92 df 04 	sts	0x04DF, r1
    4b98:	81 e0       	ldi	r24, 0x01	; 1
    4b9a:	bf c0       	rjmp	.+382    	; 0x4d1a <file_read+0x1e8>
    4b9c:	ec e9       	ldi	r30, 0x9C	; 156
    4b9e:	f4 e0       	ldi	r31, 0x04	; 4
    4ba0:	20 e0       	ldi	r18, 0x00	; 0
    4ba2:	30 e0       	ldi	r19, 0x00	; 0
    4ba4:	81 91       	ld	r24, Z+
    4ba6:	8d 30       	cpi	r24, 0x0D	; 13
    4ba8:	09 f0       	breq	.+2      	; 0x4bac <file_read+0x7a>
    4baa:	af c0       	rjmp	.+350    	; 0x4d0a <file_read+0x1d8>
    4bac:	f9 01       	movw	r30, r18
    4bae:	e4 56       	subi	r30, 0x64	; 100
    4bb0:	fb 4f       	sbci	r31, 0xFB	; 251
    4bb2:	10 82       	st	Z, r1
    4bb4:	2e 5f       	subi	r18, 0xFE	; 254
    4bb6:	3f 4f       	sbci	r19, 0xFF	; 255
    4bb8:	80 91 dc 04 	lds	r24, 0x04DC
    4bbc:	90 91 dd 04 	lds	r25, 0x04DD
    4bc0:	a0 91 de 04 	lds	r26, 0x04DE
    4bc4:	b0 91 df 04 	lds	r27, 0x04DF
    4bc8:	82 0f       	add	r24, r18
    4bca:	93 1f       	adc	r25, r19
    4bcc:	a1 1d       	adc	r26, r1
    4bce:	b1 1d       	adc	r27, r1
    4bd0:	80 93 dc 04 	sts	0x04DC, r24
    4bd4:	90 93 dd 04 	sts	0x04DD, r25
    4bd8:	a0 93 de 04 	sts	0x04DE, r26
    4bdc:	b0 93 df 04 	sts	0x04DF, r27
    4be0:	ec e9       	ldi	r30, 0x9C	; 156
    4be2:	f4 e0       	ldi	r31, 0x04	; 4
    4be4:	90 e0       	ldi	r25, 0x00	; 0
    4be6:	20 e0       	ldi	r18, 0x00	; 0
    4be8:	30 e0       	ldi	r19, 0x00	; 0
    4bea:	67 e0       	ldi	r22, 0x07	; 7
    4bec:	70 e0       	ldi	r23, 0x00	; 0
    4bee:	ef 01       	movw	r28, r30
    4bf0:	cc 59       	subi	r28, 0x9C	; 156
    4bf2:	d4 40       	sbci	r29, 0x04	; 4
    4bf4:	81 91       	ld	r24, Z+
    4bf6:	88 23       	and	r24, r24
    4bf8:	79 f0       	breq	.+30     	; 0x4c18 <file_read+0xe6>
    4bfa:	80 32       	cpi	r24, 0x20	; 32
    4bfc:	21 f0       	breq	.+8      	; 0x4c06 <file_read+0xd4>
    4bfe:	8b 33       	cpi	r24, 0x3B	; 59
    4c00:	11 f0       	breq	.+4      	; 0x4c06 <file_read+0xd4>
    4c02:	22 30       	cpi	r18, 0x02	; 2
    4c04:	f9 f4       	brne	.+62     	; 0x4c44 <file_read+0x112>
    4c06:	db 01       	movw	r26, r22
    4c08:	a3 1b       	sub	r26, r19
    4c0a:	b1 09       	sbc	r27, r1
    4c0c:	ac 56       	subi	r26, 0x6C	; 108
    4c0e:	bb 4f       	sbci	r27, 0xFB	; 251
    4c10:	9c 93       	st	X, r25
    4c12:	3f 5f       	subi	r19, 0xFF	; 255
    4c14:	8b 33       	cpi	r24, 0x3B	; 59
    4c16:	89 f4       	brne	.+34     	; 0x4c3a <file_read+0x108>
    4c18:	21 96       	adiw	r28, 0x01	; 1
    4c1a:	10 92 0b 02 	sts	0x020B, r1
    4c1e:	8e 01       	movw	r16, r28
    4c20:	04 56       	subi	r16, 0x64	; 100
    4c22:	1b 4f       	sbci	r17, 0xFB	; 251
    4c24:	65 ef       	ldi	r22, 0xF5	; 245
    4c26:	77 e0       	ldi	r23, 0x07	; 7
    4c28:	c8 01       	movw	r24, r16
    4c2a:	0e 94 d7 24 	call	0x49ae	; 0x49ae <cmd_compare>
    4c2e:	81 11       	cpse	r24, r1
    4c30:	1d c0       	rjmp	.+58     	; 0x4c6c <file_read+0x13a>
    4c32:	81 e0       	ldi	r24, 0x01	; 1
    4c34:	80 93 0b 02 	sts	0x020B, r24
    4c38:	19 c0       	rjmp	.+50     	; 0x4c6c <file_read+0x13a>
    4c3a:	38 30       	cpi	r19, 0x08	; 8
    4c3c:	68 f7       	brcc	.-38     	; 0x4c18 <file_read+0xe6>
    4c3e:	90 e0       	ldi	r25, 0x00	; 0
    4c40:	40 e0       	ldi	r20, 0x00	; 0
    4c42:	12 c0       	rjmp	.+36     	; 0x4c68 <file_read+0x136>
    4c44:	41 e0       	ldi	r20, 0x01	; 1
    4c46:	42 0f       	add	r20, r18
    4c48:	21 30       	cpi	r18, 0x01	; 1
    4c4a:	11 f4       	brne	.+4      	; 0x4c50 <file_read+0x11e>
    4c4c:	92 95       	swap	r25
    4c4e:	90 7f       	andi	r25, 0xF0	; 240
    4c50:	8a 33       	cpi	r24, 0x3A	; 58
    4c52:	10 f4       	brcc	.+4      	; 0x4c58 <file_read+0x126>
    4c54:	80 53       	subi	r24, 0x30	; 48
    4c56:	07 c0       	rjmp	.+14     	; 0x4c66 <file_read+0x134>
    4c58:	87 34       	cpi	r24, 0x47	; 71
    4c5a:	10 f4       	brcc	.+4      	; 0x4c60 <file_read+0x12e>
    4c5c:	87 53       	subi	r24, 0x37	; 55
    4c5e:	03 c0       	rjmp	.+6      	; 0x4c66 <file_read+0x134>
    4c60:	87 36       	cpi	r24, 0x67	; 103
    4c62:	10 f4       	brcc	.+4      	; 0x4c68 <file_read+0x136>
    4c64:	87 55       	subi	r24, 0x57	; 87
    4c66:	98 2b       	or	r25, r24
    4c68:	24 2f       	mov	r18, r20
    4c6a:	c1 cf       	rjmp	.-126    	; 0x4bee <file_read+0xbc>
    4c6c:	6e ee       	ldi	r22, 0xEE	; 238
    4c6e:	77 e0       	ldi	r23, 0x07	; 7
    4c70:	c8 01       	movw	r24, r16
    4c72:	0e 94 d7 24 	call	0x49ae	; 0x49ae <cmd_compare>
    4c76:	81 11       	cpse	r24, r1
    4c78:	03 c0       	rjmp	.+6      	; 0x4c80 <file_read+0x14e>
    4c7a:	82 e0       	ldi	r24, 0x02	; 2
    4c7c:	80 93 0b 02 	sts	0x020B, r24
    4c80:	67 ee       	ldi	r22, 0xE7	; 231
    4c82:	77 e0       	ldi	r23, 0x07	; 7
    4c84:	c8 01       	movw	r24, r16
    4c86:	0e 94 d7 24 	call	0x49ae	; 0x49ae <cmd_compare>
    4c8a:	81 11       	cpse	r24, r1
    4c8c:	03 c0       	rjmp	.+6      	; 0x4c94 <file_read+0x162>
    4c8e:	87 e0       	ldi	r24, 0x07	; 7
    4c90:	80 93 0b 02 	sts	0x020B, r24
    4c94:	6f ed       	ldi	r22, 0xDF	; 223
    4c96:	77 e0       	ldi	r23, 0x07	; 7
    4c98:	c8 01       	movw	r24, r16
    4c9a:	0e 94 d7 24 	call	0x49ae	; 0x49ae <cmd_compare>
    4c9e:	81 11       	cpse	r24, r1
    4ca0:	03 c0       	rjmp	.+6      	; 0x4ca8 <file_read+0x176>
    4ca2:	84 e0       	ldi	r24, 0x04	; 4
    4ca4:	80 93 0b 02 	sts	0x020B, r24
    4ca8:	69 ed       	ldi	r22, 0xD9	; 217
    4caa:	77 e0       	ldi	r23, 0x07	; 7
    4cac:	c8 01       	movw	r24, r16
    4cae:	0e 94 d7 24 	call	0x49ae	; 0x49ae <cmd_compare>
    4cb2:	81 11       	cpse	r24, r1
    4cb4:	03 c0       	rjmp	.+6      	; 0x4cbc <file_read+0x18a>
    4cb6:	83 e0       	ldi	r24, 0x03	; 3
    4cb8:	80 93 0b 02 	sts	0x020B, r24
    4cbc:	fe 01       	movw	r30, r28
    4cbe:	e4 56       	subi	r30, 0x64	; 100
    4cc0:	fb 4f       	sbci	r31, 0xFB	; 251
    4cc2:	80 81       	ld	r24, Z
    4cc4:	21 96       	adiw	r28, 0x01	; 1
    4cc6:	8b 33       	cpi	r24, 0x3B	; 59
    4cc8:	c9 f7       	brne	.-14     	; 0x4cbc <file_read+0x18a>
    4cca:	0e 94 55 1f 	call	0x3eaa	; 0x3eaa <lcd_clear>
    4cce:	10 92 37 04 	sts	0x0437, r1
    4cd2:	0e 94 88 21 	call	0x4310	; 0x4310 <view_key_type>
    4cd6:	0e 94 fc 21 	call	0x43f8	; 0x43f8 <view_key_code>
    4cda:	65 e0       	ldi	r22, 0x05	; 5
    4cdc:	81 e0       	ldi	r24, 0x01	; 1
    4cde:	0e 94 be 1e 	call	0x3d7c	; 0x3d7c <lcd_goto_xy>
    4ce2:	c4 56       	subi	r28, 0x64	; 100
    4ce4:	db 4f       	sbci	r29, 0xFB	; 251
    4ce6:	10 e0       	ldi	r17, 0x00	; 0
    4ce8:	89 91       	ld	r24, Y+
    4cea:	88 23       	and	r24, r24
    4cec:	a9 f0       	breq	.+42     	; 0x4d18 <file_read+0x1e6>
    4cee:	1c 31       	cpi	r17, 0x1C	; 28
    4cf0:	98 f4       	brcc	.+38     	; 0x4d18 <file_read+0x1e6>
    4cf2:	8b 33       	cpi	r24, 0x3B	; 59
    4cf4:	19 f0       	breq	.+6      	; 0x4cfc <file_read+0x1ca>
    4cf6:	0e 94 91 1f 	call	0x3f22	; 0x3f22 <lcd_chr>
    4cfa:	05 c0       	rjmp	.+10     	; 0x4d06 <file_read+0x1d4>
    4cfc:	66 e0       	ldi	r22, 0x06	; 6
    4cfe:	81 e0       	ldi	r24, 0x01	; 1
    4d00:	0e 94 be 1e 	call	0x3d7c	; 0x3d7c <lcd_goto_xy>
    4d04:	1d e0       	ldi	r17, 0x0D	; 13
    4d06:	1f 5f       	subi	r17, 0xFF	; 255
    4d08:	ef cf       	rjmp	.-34     	; 0x4ce8 <file_read+0x1b6>
    4d0a:	2f 5f       	subi	r18, 0xFF	; 255
    4d0c:	3f 4f       	sbci	r19, 0xFF	; 255
    4d0e:	2c 17       	cp	r18, r28
    4d10:	3d 07       	cpc	r19, r29
    4d12:	09 f0       	breq	.+2      	; 0x4d16 <file_read+0x1e4>
    4d14:	47 cf       	rjmp	.-370    	; 0x4ba4 <file_read+0x72>
    4d16:	64 cf       	rjmp	.-312    	; 0x4be0 <file_read+0xae>
    4d18:	80 e0       	ldi	r24, 0x00	; 0
    4d1a:	df 91       	pop	r29
    4d1c:	cf 91       	pop	r28
    4d1e:	1f 91       	pop	r17
    4d20:	0f 91       	pop	r16
    4d22:	08 95       	ret

00004d24 <logs_write>:
    4d24:	df 92       	push	r13
    4d26:	ef 92       	push	r14
    4d28:	ff 92       	push	r15
    4d2a:	0f 93       	push	r16
    4d2c:	1f 93       	push	r17
    4d2e:	cf 93       	push	r28
    4d30:	df 93       	push	r29
    4d32:	00 d0       	rcall	.+0      	; 0x4d34 <logs_write+0x10>
    4d34:	00 d0       	rcall	.+0      	; 0x4d36 <logs_write+0x12>
    4d36:	cd b7       	in	r28, 0x3d	; 61
    4d38:	de b7       	in	r29, 0x3e	; 62
    4d3a:	8c e9       	ldi	r24, 0x9C	; 156
    4d3c:	e8 2e       	mov	r14, r24
    4d3e:	84 e0       	ldi	r24, 0x04	; 4
    4d40:	f8 2e       	mov	r15, r24
    4d42:	0c e9       	ldi	r16, 0x9C	; 156
    4d44:	14 e0       	ldi	r17, 0x04	; 4
    4d46:	90 e2       	ldi	r25, 0x20	; 32
    4d48:	d9 2e       	mov	r13, r25
    4d4a:	f7 01       	movw	r30, r14
    4d4c:	62 91       	ld	r22, -Z
    4d4e:	7f 01       	movw	r14, r30
    4d50:	c8 01       	movw	r24, r16
    4d52:	0e 94 c4 24 	call	0x4988	; 0x4988 <str_put_hex>
    4d56:	f8 01       	movw	r30, r16
    4d58:	d2 82       	std	Z+2, r13	; 0x02
    4d5a:	0d 5f       	subi	r16, 0xFD	; 253
    4d5c:	1f 4f       	sbci	r17, 0xFF	; 255
    4d5e:	f4 e9       	ldi	r31, 0x94	; 148
    4d60:	ef 16       	cp	r14, r31
    4d62:	f4 e0       	ldi	r31, 0x04	; 4
    4d64:	ff 06       	cpc	r15, r31
    4d66:	89 f7       	brne	.-30     	; 0x4d4a <logs_write+0x26>
    4d68:	80 91 0b 02 	lds	r24, 0x020B
    4d6c:	83 30       	cpi	r24, 0x03	; 3
    4d6e:	a1 f0       	breq	.+40     	; 0x4d98 <logs_write+0x74>
    4d70:	40 f4       	brcc	.+16     	; 0x4d82 <logs_write+0x5e>
    4d72:	81 30       	cpi	r24, 0x01	; 1
    4d74:	71 f0       	breq	.+28     	; 0x4d92 <logs_write+0x6e>
    4d76:	82 30       	cpi	r24, 0x02	; 2
    4d78:	09 f0       	breq	.+2      	; 0x4d7c <logs_write+0x58>
    4d7a:	79 c0       	rjmp	.+242    	; 0x4e6e <logs_write+0x14a>
    4d7c:	67 ec       	ldi	r22, 0xC7	; 199
    4d7e:	77 e0       	ldi	r23, 0x07	; 7
    4d80:	10 c0       	rjmp	.+32     	; 0x4da2 <logs_write+0x7e>
    4d82:	84 30       	cpi	r24, 0x04	; 4
    4d84:	61 f0       	breq	.+24     	; 0x4d9e <logs_write+0x7a>
    4d86:	87 30       	cpi	r24, 0x07	; 7
    4d88:	09 f0       	breq	.+2      	; 0x4d8c <logs_write+0x68>
    4d8a:	71 c0       	rjmp	.+226    	; 0x4e6e <logs_write+0x14a>
    4d8c:	6c ea       	ldi	r22, 0xAC	; 172
    4d8e:	77 e0       	ldi	r23, 0x07	; 7
    4d90:	08 c0       	rjmp	.+16     	; 0x4da2 <logs_write+0x7e>
    4d92:	60 ed       	ldi	r22, 0xD0	; 208
    4d94:	77 e0       	ldi	r23, 0x07	; 7
    4d96:	05 c0       	rjmp	.+10     	; 0x4da2 <logs_write+0x7e>
    4d98:	6f eb       	ldi	r22, 0xBF	; 191
    4d9a:	77 e0       	ldi	r23, 0x07	; 7
    4d9c:	02 c0       	rjmp	.+4      	; 0x4da2 <logs_write+0x7e>
    4d9e:	65 eb       	ldi	r22, 0xB5	; 181
    4da0:	77 e0       	ldi	r23, 0x07	; 7
    4da2:	83 eb       	ldi	r24, 0xB3	; 179
    4da4:	94 e0       	ldi	r25, 0x04	; 4
    4da6:	0e 94 53 24 	call	0x48a6	; 0x48a6 <str_add_p>
    4daa:	19 82       	std	Y+1, r1	; 0x01
    4dac:	1a 82       	std	Y+2, r1	; 0x02
    4dae:	1b 82       	std	Y+3, r1	; 0x03
    4db0:	1c 82       	std	Y+4, r1	; 0x04
    4db2:	60 91 40 04 	lds	r22, 0x0440
    4db6:	70 91 41 04 	lds	r23, 0x0441
    4dba:	44 e0       	ldi	r20, 0x04	; 4
    4dbc:	51 e0       	ldi	r21, 0x01	; 1
    4dbe:	80 91 3a 04 	lds	r24, 0x043A
    4dc2:	90 91 3b 04 	lds	r25, 0x043B
    4dc6:	0e 94 a8 20 	call	0x4150	; 0x4150 <open_file_in_dir>
    4dca:	90 93 3d 04 	sts	0x043D, r25
    4dce:	80 93 3c 04 	sts	0x043C, r24
    4dd2:	42 e0       	ldi	r20, 0x02	; 2
    4dd4:	be 01       	movw	r22, r28
    4dd6:	6f 5f       	subi	r22, 0xFF	; 255
    4dd8:	7f 4f       	sbci	r23, 0xFF	; 255
    4dda:	0e 94 a7 1a 	call	0x354e	; 0x354e <fat_seek_file>
    4dde:	88 23       	and	r24, r24
    4de0:	09 f4       	brne	.+2      	; 0x4de4 <logs_write+0xc0>
    4de2:	3f c0       	rjmp	.+126    	; 0x4e62 <logs_write+0x13e>
    4de4:	0c e9       	ldi	r16, 0x9C	; 156
    4de6:	14 e0       	ldi	r17, 0x04	; 4
    4de8:	f8 01       	movw	r30, r16
    4dea:	01 90       	ld	r0, Z+
    4dec:	00 20       	and	r0, r0
    4dee:	e9 f7       	brne	.-6      	; 0x4dea <logs_write+0xc6>
    4df0:	31 97       	sbiw	r30, 0x01	; 1
    4df2:	cf 01       	movw	r24, r30
    4df4:	8c 59       	subi	r24, 0x9C	; 156
    4df6:	94 40       	sbci	r25, 0x04	; 4
    4df8:	7c 01       	movw	r14, r24
    4dfa:	60 91 e0 04 	lds	r22, 0x04E0
    4dfe:	70 91 e1 04 	lds	r23, 0x04E1
    4e02:	80 91 e2 04 	lds	r24, 0x04E2
    4e06:	90 91 e3 04 	lds	r25, 0x04E3
    4e0a:	23 e2       	ldi	r18, 0x23	; 35
    4e0c:	30 e0       	ldi	r19, 0x00	; 0
    4e0e:	40 e0       	ldi	r20, 0x00	; 0
    4e10:	50 e0       	ldi	r21, 0x00	; 0
    4e12:	0e 94 6b 37 	call	0x6ed6	; 0x6ed6 <__udivmodsi4>
    4e16:	ba 01       	movw	r22, r20
    4e18:	a9 01       	movw	r20, r18
    4e1a:	c7 01       	movw	r24, r14
    4e1c:	99 27       	eor	r25, r25
    4e1e:	84 56       	subi	r24, 0x64	; 100
    4e20:	9b 4f       	sbci	r25, 0xFB	; 251
    4e22:	0e 94 5b 24 	call	0x48b6	; 0x48b6 <str_putdw_dec>
    4e26:	f8 01       	movw	r30, r16
    4e28:	01 90       	ld	r0, Z+
    4e2a:	00 20       	and	r0, r0
    4e2c:	e9 f7       	brne	.-6      	; 0x4e28 <logs_write+0x104>
    4e2e:	31 97       	sbiw	r30, 0x01	; 1
    4e30:	cf 01       	movw	r24, r30
    4e32:	8c 59       	subi	r24, 0x9C	; 156
    4e34:	94 40       	sbci	r25, 0x04	; 4
    4e36:	99 27       	eor	r25, r25
    4e38:	69 ea       	ldi	r22, 0xA9	; 169
    4e3a:	77 e0       	ldi	r23, 0x07	; 7
    4e3c:	84 56       	subi	r24, 0x64	; 100
    4e3e:	9b 4f       	sbci	r25, 0xFB	; 251
    4e40:	0e 94 53 24 	call	0x48a6	; 0x48a6 <str_add_p>
    4e44:	f8 01       	movw	r30, r16
    4e46:	01 90       	ld	r0, Z+
    4e48:	00 20       	and	r0, r0
    4e4a:	e9 f7       	brne	.-6      	; 0x4e46 <logs_write+0x122>
    4e4c:	31 97       	sbiw	r30, 0x01	; 1
    4e4e:	af 01       	movw	r20, r30
    4e50:	4c 59       	subi	r20, 0x9C	; 156
    4e52:	54 40       	sbci	r21, 0x04	; 4
    4e54:	b8 01       	movw	r22, r16
    4e56:	80 91 3c 04 	lds	r24, 0x043C
    4e5a:	90 91 3d 04 	lds	r25, 0x043D
    4e5e:	0e 94 a8 16 	call	0x2d50	; 0x2d50 <fat_write_file>
    4e62:	80 91 3c 04 	lds	r24, 0x043C
    4e66:	90 91 3d 04 	lds	r25, 0x043D
    4e6a:	0e 94 e6 14 	call	0x29cc	; 0x29cc <fat_close_file>
    4e6e:	0f 90       	pop	r0
    4e70:	0f 90       	pop	r0
    4e72:	0f 90       	pop	r0
    4e74:	0f 90       	pop	r0
    4e76:	df 91       	pop	r29
    4e78:	cf 91       	pop	r28
    4e7a:	1f 91       	pop	r17
    4e7c:	0f 91       	pop	r16
    4e7e:	ff 90       	pop	r15
    4e80:	ef 90       	pop	r14
    4e82:	df 90       	pop	r13
    4e84:	08 95       	ret

00004e86 <main>:
    4e86:	cf 93       	push	r28
    4e88:	df 93       	push	r29
    4e8a:	1f 92       	push	r1
    4e8c:	cd b7       	in	r28, 0x3d	; 61
    4e8e:	de b7       	in	r29, 0x3e	; 62
    4e90:	0e 94 6a 1f 	call	0x3ed4	; 0x3ed4 <lcd_init>
    4e94:	8d e3       	ldi	r24, 0x3D	; 61
    4e96:	0e 94 0d 1f 	call	0x3e1a	; 0x3e1a <lcd_contrast>
    4e9a:	0e 94 1d 1f 	call	0x3e3a	; 0x3e3a <lcd_image>
    4e9e:	0e 94 67 20 	call	0x40ce	; 0x40ce <button_init>
    4ea2:	0e 94 73 20 	call	0x40e6	; 0x40e6 <adc_init>
    4ea6:	0e 94 b1 36 	call	0x6d62	; 0x6d62 <uart_init>
    4eaa:	0e 94 55 36 	call	0x6caa	; 0x6caa <sound_init>
    4eae:	0e 94 20 07 	call	0xe40	; 0xe40 <ds_init>
    4eb2:	0e 94 8c 2e 	call	0x5d18	; 0x5d18 <rfid_init>
    4eb6:	0e 94 63 1d 	call	0x3ac6	; 0x3ac6 <kt_init>
    4eba:	0e 94 d0 20 	call	0x41a0	; 0x41a0 <file_init>
    4ebe:	2f ef       	ldi	r18, 0xFF	; 255
    4ec0:	49 e6       	ldi	r20, 0x69	; 105
    4ec2:	58 e1       	ldi	r21, 0x18	; 24
    4ec4:	21 50       	subi	r18, 0x01	; 1
    4ec6:	40 40       	sbci	r20, 0x00	; 0
    4ec8:	50 40       	sbci	r21, 0x00	; 0
    4eca:	e1 f7       	brne	.-8      	; 0x4ec4 <main+0x3e>
    4ecc:	00 c0       	rjmp	.+0      	; 0x4ece <main+0x48>
    4ece:	00 00       	nop
    4ed0:	00 e1       	ldi	r16, 0x10	; 16
    4ed2:	17 e2       	ldi	r17, 0x27	; 39
    4ed4:	55 e9       	ldi	r21, 0x95	; 149
    4ed6:	25 2e       	mov	r2, r21
    4ed8:	54 e0       	ldi	r21, 0x04	; 4
    4eda:	35 2e       	mov	r3, r21
    4edc:	84 e9       	ldi	r24, 0x94	; 148
    4ede:	94 e0       	ldi	r25, 0x04	; 4
    4ee0:	67 e0       	ldi	r22, 0x07	; 7
    4ee2:	f6 2e       	mov	r15, r22
    4ee4:	f8 0e       	add	r15, r24
    4ee6:	75 e0       	ldi	r23, 0x05	; 5
    4ee8:	e7 2e       	mov	r14, r23
    4eea:	e2 0c       	add	r14, r2
    4eec:	80 91 16 01 	lds	r24, 0x0116
    4ef0:	82 30       	cpi	r24, 0x02	; 2
    4ef2:	39 f4       	brne	.+14     	; 0x4f02 <main+0x7c>
    4ef4:	80 91 0b 02 	lds	r24, 0x020B
    4ef8:	81 11       	cpse	r24, r1
    4efa:	11 c0       	rjmp	.+34     	; 0x4f1e <main+0x98>
    4efc:	83 e0       	ldi	r24, 0x03	; 3
    4efe:	80 93 16 01 	sts	0x0116, r24
    4f02:	82 e0       	ldi	r24, 0x02	; 2
    4f04:	78 2e       	mov	r7, r24
    4f06:	98 ee       	ldi	r25, 0xE8	; 232
    4f08:	c9 2e       	mov	r12, r25
    4f0a:	93 e0       	ldi	r25, 0x03	; 3
    4f0c:	d9 2e       	mov	r13, r25
    4f0e:	24 e6       	ldi	r18, 0x64	; 100
    4f10:	a2 2e       	mov	r10, r18
    4f12:	b1 2c       	mov	r11, r1
    4f14:	3a e0       	ldi	r19, 0x0A	; 10
    4f16:	63 2e       	mov	r6, r19
    4f18:	47 e0       	ldi	r20, 0x07	; 7
    4f1a:	54 2e       	mov	r5, r20
    4f1c:	57 c2       	rjmp	.+1198   	; 0x53cc <main+0x546>
    4f1e:	0e 94 55 1f 	call	0x3eaa	; 0x3eaa <lcd_clear>
    4f22:	0e 94 88 21 	call	0x4310	; 0x4310 <view_key_type>
    4f26:	0e 94 fc 21 	call	0x43f8	; 0x43f8 <view_key_code>
    4f2a:	0e 94 92 26 	call	0x4d24	; 0x4d24 <logs_write>
    4f2e:	80 91 0b 02 	lds	r24, 0x020B
    4f32:	81 30       	cpi	r24, 0x01	; 1
    4f34:	c9 f4       	brne	.+50     	; 0x4f68 <main+0xe2>
    4f36:	80 91 0c 02 	lds	r24, 0x020C
    4f3a:	81 30       	cpi	r24, 0x01	; 1
    4f3c:	21 f4       	brne	.+8      	; 0x4f46 <main+0xc0>
    4f3e:	10 92 0c 02 	sts	0x020C, r1
    4f42:	83 e0       	ldi	r24, 0x03	; 3
    4f44:	0f c0       	rjmp	.+30     	; 0x4f64 <main+0xde>
    4f46:	80 91 42 04 	lds	r24, 0x0442
    4f4a:	81 30       	cpi	r24, 0x01	; 1
    4f4c:	29 f4       	brne	.+10     	; 0x4f58 <main+0xd2>
    4f4e:	84 e5       	ldi	r24, 0x54	; 84
    4f50:	94 e0       	ldi	r25, 0x04	; 4
    4f52:	0e 94 f6 24 	call	0x49ec	; 0x49ec <cmd_parse>
    4f56:	08 c0       	rjmp	.+16     	; 0x4f68 <main+0xe2>
    4f58:	0e 94 f6 22 	call	0x45ec	; 0x45ec <dallas_write>
    4f5c:	81 11       	cpse	r24, r1
    4f5e:	eb cf       	rjmp	.-42     	; 0x4f36 <main+0xb0>
    4f60:	80 91 15 01 	lds	r24, 0x0115
    4f64:	80 93 16 01 	sts	0x0116, r24
    4f68:	80 91 0b 02 	lds	r24, 0x020B
    4f6c:	82 30       	cpi	r24, 0x02	; 2
    4f6e:	09 f0       	breq	.+2      	; 0x4f72 <main+0xec>
    4f70:	3d c0       	rjmp	.+122    	; 0x4fec <main+0x166>
    4f72:	8c e4       	ldi	r24, 0x4C	; 76
    4f74:	94 e0       	ldi	r25, 0x04	; 4
    4f76:	b8 e0       	ldi	r27, 0x08	; 8
    4f78:	db 2e       	mov	r13, r27
    4f7a:	d8 0e       	add	r13, r24
    4f7c:	80 91 0c 02 	lds	r24, 0x020C
    4f80:	81 30       	cpi	r24, 0x01	; 1
    4f82:	21 f4       	brne	.+8      	; 0x4f8c <main+0x106>
    4f84:	10 92 0c 02 	sts	0x020C, r1
    4f88:	83 e0       	ldi	r24, 0x03	; 3
    4f8a:	d8 c4       	rjmp	.+2480   	; 0x593c <main+0xab6>
    4f8c:	80 91 42 04 	lds	r24, 0x0442
    4f90:	81 30       	cpi	r24, 0x01	; 1
    4f92:	29 f4       	brne	.+10     	; 0x4f9e <main+0x118>
    4f94:	84 e5       	ldi	r24, 0x54	; 84
    4f96:	94 e0       	ldi	r25, 0x04	; 4
    4f98:	0e 94 f6 24 	call	0x49ec	; 0x49ec <cmd_parse>
    4f9c:	27 c0       	rjmp	.+78     	; 0x4fec <main+0x166>
    4f9e:	8c e4       	ldi	r24, 0x4C	; 76
    4fa0:	94 e0       	ldi	r25, 0x04	; 4
    4fa2:	0e 94 3b 31 	call	0x6276	; 0x6276 <rfid_force_read>
    4fa6:	81 11       	cpse	r24, r1
    4fa8:	0f c0       	rjmp	.+30     	; 0x4fc8 <main+0x142>
    4faa:	a4 e9       	ldi	r26, 0x94	; 148
    4fac:	b4 e0       	ldi	r27, 0x04	; 4
    4fae:	ec e4       	ldi	r30, 0x4C	; 76
    4fb0:	f4 e0       	ldi	r31, 0x04	; 4
    4fb2:	21 91       	ld	r18, Z+
    4fb4:	9d 91       	ld	r25, X+
    4fb6:	29 13       	cpse	r18, r25
    4fb8:	81 e0       	ldi	r24, 0x01	; 1
    4fba:	de 12       	cpse	r13, r30
    4fbc:	fa cf       	rjmp	.-12     	; 0x4fb2 <main+0x12c>
    4fbe:	81 11       	cpse	r24, r1
    4fc0:	03 c0       	rjmp	.+6      	; 0x4fc8 <main+0x142>
    4fc2:	0e 94 ad 22 	call	0x455a	; 0x455a <view_recorded>
    4fc6:	12 c0       	rjmp	.+36     	; 0x4fec <main+0x166>
    4fc8:	24 e0       	ldi	r18, 0x04	; 4
    4fca:	84 e9       	ldi	r24, 0x94	; 148
    4fcc:	94 e0       	ldi	r25, 0x04	; 4
    4fce:	29 83       	std	Y+1, r18	; 0x01
    4fd0:	0e 94 4b 31 	call	0x6296	; 0x6296 <rfid_program>
    4fd4:	29 81       	ldd	r18, Y+1	; 0x01
    4fd6:	88 23       	and	r24, r24
    4fd8:	09 f4       	brne	.+2      	; 0x4fdc <main+0x156>
    4fda:	93 c4       	rjmp	.+2342   	; 0x5902 <main+0xa7c>
    4fdc:	81 30       	cpi	r24, 0x01	; 1
    4fde:	71 f2       	breq	.-100    	; 0x4f7c <main+0xf6>
    4fe0:	21 50       	subi	r18, 0x01	; 1
    4fe2:	99 f7       	brne	.-26     	; 0x4fca <main+0x144>
    4fe4:	82 30       	cpi	r24, 0x02	; 2
    4fe6:	51 f6       	brne	.-108    	; 0x4f7c <main+0xf6>
    4fe8:	0e 94 c9 22 	call	0x4592	; 0x4592 <view_error>
    4fec:	80 91 0b 02 	lds	r24, 0x020B
    4ff0:	83 30       	cpi	r24, 0x03	; 3
    4ff2:	09 f0       	breq	.+2      	; 0x4ff6 <main+0x170>
    4ff4:	68 c0       	rjmp	.+208    	; 0x50c6 <main+0x240>
    4ff6:	64 e0       	ldi	r22, 0x04	; 4
    4ff8:	81 e0       	ldi	r24, 0x01	; 1
    4ffa:	0e 94 be 1e 	call	0x3d7c	; 0x3d7c <lcd_goto_xy>
    4ffe:	88 e7       	ldi	r24, 0x78	; 120
    5000:	97 e0       	ldi	r25, 0x07	; 7
    5002:	0e 94 d1 1f 	call	0x3fa2	; 0x3fa2 <lcd_str_p>
    5006:	8c e4       	ldi	r24, 0x4C	; 76
    5008:	94 e0       	ldi	r25, 0x04	; 4
    500a:	a8 e0       	ldi	r26, 0x08	; 8
    500c:	da 2e       	mov	r13, r26
    500e:	d8 0e       	add	r13, r24
    5010:	80 91 0c 02 	lds	r24, 0x020C
    5014:	81 30       	cpi	r24, 0x01	; 1
    5016:	31 f4       	brne	.+12     	; 0x5024 <main+0x19e>
    5018:	10 92 0c 02 	sts	0x020C, r1
    501c:	83 e0       	ldi	r24, 0x03	; 3
    501e:	80 93 16 01 	sts	0x0116, r24
    5022:	51 c0       	rjmp	.+162    	; 0x50c6 <main+0x240>
    5024:	80 91 42 04 	lds	r24, 0x0442
    5028:	81 30       	cpi	r24, 0x01	; 1
    502a:	29 f4       	brne	.+10     	; 0x5036 <main+0x1b0>
    502c:	84 e5       	ldi	r24, 0x54	; 84
    502e:	94 e0       	ldi	r25, 0x04	; 4
    5030:	0e 94 f6 24 	call	0x49ec	; 0x49ec <cmd_parse>
    5034:	48 c0       	rjmp	.+144    	; 0x50c6 <main+0x240>
    5036:	8c e4       	ldi	r24, 0x4C	; 76
    5038:	94 e0       	ldi	r25, 0x04	; 4
    503a:	0e 94 19 1e 	call	0x3c32	; 0x3c32 <kt_read_rom>
    503e:	81 30       	cpi	r24, 0x01	; 1
    5040:	39 f3       	breq	.-50     	; 0x5010 <main+0x18a>
    5042:	89 83       	std	Y+1, r24	; 0x01
    5044:	0e 94 9f 22 	call	0x453e	; 0x453e <view_write>
    5048:	89 81       	ldd	r24, Y+1	; 0x01
    504a:	81 11       	cpse	r24, r1
    504c:	0f c0       	rjmp	.+30     	; 0x506c <main+0x1e6>
    504e:	a4 e9       	ldi	r26, 0x94	; 148
    5050:	b4 e0       	ldi	r27, 0x04	; 4
    5052:	ec e4       	ldi	r30, 0x4C	; 76
    5054:	f4 e0       	ldi	r31, 0x04	; 4
    5056:	21 91       	ld	r18, Z+
    5058:	9d 91       	ld	r25, X+
    505a:	29 13       	cpse	r18, r25
    505c:	81 e0       	ldi	r24, 0x01	; 1
    505e:	de 12       	cpse	r13, r30
    5060:	fa cf       	rjmp	.-12     	; 0x5056 <main+0x1d0>
    5062:	81 11       	cpse	r24, r1
    5064:	03 c0       	rjmp	.+6      	; 0x506c <main+0x1e6>
    5066:	0e 94 ad 22 	call	0x455a	; 0x455a <view_recorded>
    506a:	2d c0       	rjmp	.+90     	; 0x50c6 <main+0x240>
    506c:	24 e0       	ldi	r18, 0x04	; 4
    506e:	84 e9       	ldi	r24, 0x94	; 148
    5070:	94 e0       	ldi	r25, 0x04	; 4
    5072:	29 83       	std	Y+1, r18	; 0x01
    5074:	0e 94 6a 1e 	call	0x3cd4	; 0x3cd4 <kt_write_rom>
    5078:	29 81       	ldd	r18, Y+1	; 0x01
    507a:	88 23       	and	r24, r24
    507c:	49 f0       	breq	.+18     	; 0x5090 <main+0x20a>
    507e:	81 30       	cpi	r24, 0x01	; 1
    5080:	11 f1       	breq	.+68     	; 0x50c6 <main+0x240>
    5082:	21 50       	subi	r18, 0x01	; 1
    5084:	a1 f7       	brne	.-24     	; 0x506e <main+0x1e8>
    5086:	82 30       	cpi	r24, 0x02	; 2
    5088:	19 f6       	brne	.-122    	; 0x5010 <main+0x18a>
    508a:	0e 94 c9 22 	call	0x4592	; 0x4592 <view_error>
    508e:	1b c0       	rjmp	.+54     	; 0x50c6 <main+0x240>
    5090:	0e 94 55 1f 	call	0x3eaa	; 0x3eaa <lcd_clear>
    5094:	63 e0       	ldi	r22, 0x03	; 3
    5096:	81 e0       	ldi	r24, 0x01	; 1
    5098:	0e 94 be 1e 	call	0x3d7c	; 0x3d7c <lcd_goto_xy>
    509c:	8a e6       	ldi	r24, 0x6A	; 106
    509e:	97 e0       	ldi	r25, 0x07	; 7
    50a0:	0e 94 d1 1f 	call	0x3fa2	; 0x3fa2 <lcd_str_p>
    50a4:	86 e5       	ldi	r24, 0x56	; 86
    50a6:	97 e0       	ldi	r25, 0x07	; 7
    50a8:	0e 94 e8 36 	call	0x6dd0	; 0x6dd0 <uart_puts_p>
    50ac:	8f eb       	ldi	r24, 0xBF	; 191
    50ae:	9a e0       	ldi	r25, 0x0A	; 10
    50b0:	0e 94 5d 36 	call	0x6cba	; 0x6cba <sound_play>
    50b4:	8f ef       	ldi	r24, 0xFF	; 255
    50b6:	93 ed       	ldi	r25, 0xD3	; 211
    50b8:	e0 e3       	ldi	r30, 0x30	; 48
    50ba:	81 50       	subi	r24, 0x01	; 1
    50bc:	90 40       	sbci	r25, 0x00	; 0
    50be:	e0 40       	sbci	r30, 0x00	; 0
    50c0:	e1 f7       	brne	.-8      	; 0x50ba <main+0x234>
    50c2:	00 c0       	rjmp	.+0      	; 0x50c4 <main+0x23e>
    50c4:	00 00       	nop
    50c6:	80 91 0b 02 	lds	r24, 0x020B
    50ca:	84 30       	cpi	r24, 0x04	; 4
    50cc:	81 f5       	brne	.+96     	; 0x512e <main+0x2a8>
    50ce:	80 91 0c 02 	lds	r24, 0x020C
    50d2:	81 30       	cpi	r24, 0x01	; 1
    50d4:	d1 f4       	brne	.+52     	; 0x510a <main+0x284>
    50d6:	10 92 0c 02 	sts	0x020C, r1
    50da:	95 e0       	ldi	r25, 0x05	; 5
    50dc:	90 93 0b 02 	sts	0x020B, r25
    50e0:	80 93 94 04 	sts	0x0494, r24
    50e4:	10 92 99 04 	sts	0x0499, r1
    50e8:	10 92 9a 04 	sts	0x049A, r1
    50ec:	f4 e9       	ldi	r31, 0x94	; 148
    50ee:	cf 2e       	mov	r12, r31
    50f0:	f4 e0       	ldi	r31, 0x04	; 4
    50f2:	df 2e       	mov	r13, r31
    50f4:	80 e0       	ldi	r24, 0x00	; 0
    50f6:	f6 01       	movw	r30, r12
    50f8:	61 91       	ld	r22, Z+
    50fa:	6f 01       	movw	r12, r30
    50fc:	0e 94 23 07 	call	0xe46	; 0xe46 <ds_crc>
    5100:	fc 10       	cpse	r15, r12
    5102:	f9 cf       	rjmp	.-14     	; 0x50f6 <main+0x270>
    5104:	80 93 9b 04 	sts	0x049B, r24
    5108:	12 c0       	rjmp	.+36     	; 0x512e <main+0x2a8>
    510a:	80 91 0c 02 	lds	r24, 0x020C
    510e:	82 30       	cpi	r24, 0x02	; 2
    5110:	31 f4       	brne	.+12     	; 0x511e <main+0x298>
    5112:	83 e0       	ldi	r24, 0x03	; 3
    5114:	80 93 16 01 	sts	0x0116, r24
    5118:	10 92 0c 02 	sts	0x020C, r1
    511c:	08 c0       	rjmp	.+16     	; 0x512e <main+0x2a8>
    511e:	80 91 42 04 	lds	r24, 0x0442
    5122:	81 30       	cpi	r24, 0x01	; 1
    5124:	a1 f6       	brne	.-88     	; 0x50ce <main+0x248>
    5126:	84 e5       	ldi	r24, 0x54	; 84
    5128:	94 e0       	ldi	r25, 0x04	; 4
    512a:	0e 94 f6 24 	call	0x49ec	; 0x49ec <cmd_parse>
    512e:	80 91 0b 02 	lds	r24, 0x020B
    5132:	85 50       	subi	r24, 0x05	; 5
    5134:	82 30       	cpi	r24, 0x02	; 2
    5136:	08 f0       	brcs	.+2      	; 0x513a <main+0x2b4>
    5138:	52 c0       	rjmp	.+164    	; 0x51de <main+0x358>
    513a:	80 91 0c 02 	lds	r24, 0x020C
    513e:	81 30       	cpi	r24, 0x01	; 1
    5140:	b9 f5       	brne	.+110    	; 0x51b0 <main+0x32a>
    5142:	10 92 0c 02 	sts	0x020C, r1
    5146:	40 91 0b 02 	lds	r20, 0x020B
    514a:	20 91 95 04 	lds	r18, 0x0495
    514e:	30 91 98 04 	lds	r19, 0x0498
    5152:	80 91 96 04 	lds	r24, 0x0496
    5156:	90 91 97 04 	lds	r25, 0x0497
    515a:	45 30       	cpi	r20, 0x05	; 5
    515c:	e9 f4       	brne	.+58     	; 0x5198 <main+0x312>
    515e:	46 e0       	ldi	r20, 0x06	; 6
    5160:	40 93 0b 02 	sts	0x020B, r20
    5164:	30 93 95 04 	sts	0x0495, r19
    5168:	20 93 98 04 	sts	0x0498, r18
    516c:	90 93 96 04 	sts	0x0496, r25
    5170:	80 93 97 04 	sts	0x0497, r24
    5174:	e4 e9       	ldi	r30, 0x94	; 148
    5176:	ce 2e       	mov	r12, r30
    5178:	e4 e0       	ldi	r30, 0x04	; 4
    517a:	de 2e       	mov	r13, r30
    517c:	20 e0       	ldi	r18, 0x00	; 0
    517e:	30 e0       	ldi	r19, 0x00	; 0
    5180:	f6 01       	movw	r30, r12
    5182:	61 91       	ld	r22, Z+
    5184:	6f 01       	movw	r12, r30
    5186:	82 2f       	mov	r24, r18
    5188:	0e 94 23 07 	call	0xe46	; 0xe46 <ds_crc>
    518c:	28 2f       	mov	r18, r24
    518e:	fc 10       	cpse	r15, r12
    5190:	f7 cf       	rjmp	.-18     	; 0x5180 <main+0x2fa>
    5192:	80 93 9b 04 	sts	0x049B, r24
    5196:	23 c0       	rjmp	.+70     	; 0x51de <main+0x358>
    5198:	44 e0       	ldi	r20, 0x04	; 4
    519a:	40 93 0b 02 	sts	0x020B, r20
    519e:	30 93 95 04 	sts	0x0495, r19
    51a2:	20 93 98 04 	sts	0x0498, r18
    51a6:	90 93 96 04 	sts	0x0496, r25
    51aa:	80 93 97 04 	sts	0x0497, r24
    51ae:	17 c0       	rjmp	.+46     	; 0x51de <main+0x358>
    51b0:	80 91 0c 02 	lds	r24, 0x020C
    51b4:	82 30       	cpi	r24, 0x02	; 2
    51b6:	31 f4       	brne	.+12     	; 0x51c4 <main+0x33e>
    51b8:	83 e0       	ldi	r24, 0x03	; 3
    51ba:	80 93 16 01 	sts	0x0116, r24
    51be:	10 92 0c 02 	sts	0x020C, r1
    51c2:	0d c0       	rjmp	.+26     	; 0x51de <main+0x358>
    51c4:	80 91 42 04 	lds	r24, 0x0442
    51c8:	81 30       	cpi	r24, 0x01	; 1
    51ca:	29 f4       	brne	.+10     	; 0x51d6 <main+0x350>
    51cc:	84 e5       	ldi	r24, 0x54	; 84
    51ce:	94 e0       	ldi	r25, 0x04	; 4
    51d0:	0e 94 f6 24 	call	0x49ec	; 0x49ec <cmd_parse>
    51d4:	04 c0       	rjmp	.+8      	; 0x51de <main+0x358>
    51d6:	0e 94 f6 22 	call	0x45ec	; 0x45ec <dallas_write>
    51da:	81 11       	cpse	r24, r1
    51dc:	ae cf       	rjmp	.-164    	; 0x513a <main+0x2b4>
    51de:	80 91 0b 02 	lds	r24, 0x020B
    51e2:	87 30       	cpi	r24, 0x07	; 7
    51e4:	79 f5       	brne	.+94     	; 0x5244 <main+0x3be>
    51e6:	80 91 0c 02 	lds	r24, 0x020C
    51ea:	81 30       	cpi	r24, 0x01	; 1
    51ec:	c9 f4       	brne	.+50     	; 0x5220 <main+0x39a>
    51ee:	10 92 0c 02 	sts	0x020C, r1
    51f2:	98 e0       	ldi	r25, 0x08	; 8
    51f4:	90 93 0b 02 	sts	0x020B, r25
    51f8:	80 93 94 04 	sts	0x0494, r24
    51fc:	74 e9       	ldi	r23, 0x94	; 148
    51fe:	c7 2e       	mov	r12, r23
    5200:	74 e0       	ldi	r23, 0x04	; 4
    5202:	d7 2e       	mov	r13, r23
    5204:	20 e0       	ldi	r18, 0x00	; 0
    5206:	30 e0       	ldi	r19, 0x00	; 0
    5208:	f6 01       	movw	r30, r12
    520a:	61 91       	ld	r22, Z+
    520c:	6f 01       	movw	r12, r30
    520e:	82 2f       	mov	r24, r18
    5210:	0e 94 23 07 	call	0xe46	; 0xe46 <ds_crc>
    5214:	28 2f       	mov	r18, r24
    5216:	fc 10       	cpse	r15, r12
    5218:	f7 cf       	rjmp	.-18     	; 0x5208 <main+0x382>
    521a:	80 93 9b 04 	sts	0x049B, r24
    521e:	12 c0       	rjmp	.+36     	; 0x5244 <main+0x3be>
    5220:	80 91 0c 02 	lds	r24, 0x020C
    5224:	82 30       	cpi	r24, 0x02	; 2
    5226:	31 f4       	brne	.+12     	; 0x5234 <main+0x3ae>
    5228:	83 e0       	ldi	r24, 0x03	; 3
    522a:	80 93 16 01 	sts	0x0116, r24
    522e:	10 92 0c 02 	sts	0x020C, r1
    5232:	08 c0       	rjmp	.+16     	; 0x5244 <main+0x3be>
    5234:	80 91 42 04 	lds	r24, 0x0442
    5238:	81 30       	cpi	r24, 0x01	; 1
    523a:	a9 f6       	brne	.-86     	; 0x51e6 <main+0x360>
    523c:	84 e5       	ldi	r24, 0x54	; 84
    523e:	94 e0       	ldi	r25, 0x04	; 4
    5240:	0e 94 f6 24 	call	0x49ec	; 0x49ec <cmd_parse>
    5244:	80 91 0b 02 	lds	r24, 0x020B
    5248:	88 50       	subi	r24, 0x08	; 8
    524a:	82 30       	cpi	r24, 0x02	; 2
    524c:	08 f0       	brcs	.+2      	; 0x5250 <main+0x3ca>
    524e:	ab c0       	rjmp	.+342    	; 0x53a6 <main+0x520>
    5250:	0e 94 55 1f 	call	0x3eaa	; 0x3eaa <lcd_clear>
    5254:	0e 94 88 21 	call	0x4310	; 0x4310 <view_key_type>
    5258:	0e 94 fc 21 	call	0x43f8	; 0x43f8 <view_key_code>
    525c:	30 91 0c 02 	lds	r19, 0x020C
    5260:	31 30       	cpi	r19, 0x01	; 1
    5262:	09 f0       	breq	.+2      	; 0x5266 <main+0x3e0>
    5264:	89 c0       	rjmp	.+274    	; 0x5378 <main+0x4f2>
    5266:	10 92 0c 02 	sts	0x020C, r1
    526a:	80 91 0b 02 	lds	r24, 0x020B
    526e:	90 91 95 04 	lds	r25, 0x0495
    5272:	20 91 96 04 	lds	r18, 0x0496
    5276:	88 30       	cpi	r24, 0x08	; 8
    5278:	09 f0       	breq	.+2      	; 0x527c <main+0x3f6>
    527a:	46 c0       	rjmp	.+140    	; 0x5308 <main+0x482>
    527c:	89 e0       	ldi	r24, 0x09	; 9
    527e:	80 93 0b 02 	sts	0x020B, r24
    5282:	e9 2f       	mov	r30, r25
    5284:	ef 70       	andi	r30, 0x0F	; 15
    5286:	f0 e0       	ldi	r31, 0x00	; 0
    5288:	eb 55       	subi	r30, 0x5B	; 91
    528a:	f5 4f       	sbci	r31, 0xF5	; 245
    528c:	34 91       	lpm	r19, Z
    528e:	e9 2f       	mov	r30, r25
    5290:	f0 e0       	ldi	r31, 0x00	; 0
    5292:	44 e0       	ldi	r20, 0x04	; 4
    5294:	f6 95       	lsr	r31
    5296:	e7 95       	ror	r30
    5298:	4a 95       	dec	r20
    529a:	e1 f7       	brne	.-8      	; 0x5294 <main+0x40e>
    529c:	eb 55       	subi	r30, 0x5B	; 91
    529e:	f5 4f       	sbci	r31, 0xF5	; 245
    52a0:	94 91       	lpm	r25, Z
    52a2:	f0 e1       	ldi	r31, 0x10	; 16
    52a4:	9f 9f       	mul	r25, r31
    52a6:	c0 01       	movw	r24, r0
    52a8:	11 24       	eor	r1, r1
    52aa:	83 2b       	or	r24, r19
    52ac:	80 93 95 04 	sts	0x0495, r24
    52b0:	e2 2f       	mov	r30, r18
    52b2:	ef 70       	andi	r30, 0x0F	; 15
    52b4:	f0 e0       	ldi	r31, 0x00	; 0
    52b6:	eb 55       	subi	r30, 0x5B	; 91
    52b8:	f5 4f       	sbci	r31, 0xF5	; 245
    52ba:	84 91       	lpm	r24, Z
    52bc:	e2 2f       	mov	r30, r18
    52be:	f0 e0       	ldi	r31, 0x00	; 0
    52c0:	54 e0       	ldi	r21, 0x04	; 4
    52c2:	f6 95       	lsr	r31
    52c4:	e7 95       	ror	r30
    52c6:	5a 95       	dec	r21
    52c8:	e1 f7       	brne	.-8      	; 0x52c2 <main+0x43c>
    52ca:	eb 55       	subi	r30, 0x5B	; 91
    52cc:	f5 4f       	sbci	r31, 0xF5	; 245
    52ce:	e4 91       	lpm	r30, Z
    52d0:	40 e1       	ldi	r20, 0x10	; 16
    52d2:	e4 9f       	mul	r30, r20
    52d4:	90 01       	movw	r18, r0
    52d6:	11 24       	eor	r1, r1
    52d8:	28 2b       	or	r18, r24
    52da:	20 93 96 04 	sts	0x0496, r18
    52de:	80 e8       	ldi	r24, 0x80	; 128
    52e0:	80 93 97 04 	sts	0x0497, r24
    52e4:	64 e9       	ldi	r22, 0x94	; 148
    52e6:	c6 2e       	mov	r12, r22
    52e8:	64 e0       	ldi	r22, 0x04	; 4
    52ea:	d6 2e       	mov	r13, r22
    52ec:	20 e0       	ldi	r18, 0x00	; 0
    52ee:	30 e0       	ldi	r19, 0x00	; 0
    52f0:	f6 01       	movw	r30, r12
    52f2:	61 91       	ld	r22, Z+
    52f4:	6f 01       	movw	r12, r30
    52f6:	82 2f       	mov	r24, r18
    52f8:	0e 94 23 07 	call	0xe46	; 0xe46 <ds_crc>
    52fc:	28 2f       	mov	r18, r24
    52fe:	fc 10       	cpse	r15, r12
    5300:	f7 cf       	rjmp	.-18     	; 0x52f0 <main+0x46a>
    5302:	80 93 9b 04 	sts	0x049B, r24
    5306:	4f c0       	rjmp	.+158    	; 0x53a6 <main+0x520>
    5308:	87 e0       	ldi	r24, 0x07	; 7
    530a:	80 93 0b 02 	sts	0x020B, r24
    530e:	e9 2f       	mov	r30, r25
    5310:	ef 70       	andi	r30, 0x0F	; 15
    5312:	f0 e0       	ldi	r31, 0x00	; 0
    5314:	eb 55       	subi	r30, 0x5B	; 91
    5316:	f5 4f       	sbci	r31, 0xF5	; 245
    5318:	44 91       	lpm	r20, Z
    531a:	e9 2f       	mov	r30, r25
    531c:	f0 e0       	ldi	r31, 0x00	; 0
    531e:	94 e0       	ldi	r25, 0x04	; 4
    5320:	f6 95       	lsr	r31
    5322:	e7 95       	ror	r30
    5324:	9a 95       	dec	r25
    5326:	e1 f7       	brne	.-8      	; 0x5320 <main+0x49a>
    5328:	eb 55       	subi	r30, 0x5B	; 91
    532a:	f5 4f       	sbci	r31, 0xF5	; 245
    532c:	94 91       	lpm	r25, Z
    532e:	f0 e1       	ldi	r31, 0x10	; 16
    5330:	9f 9f       	mul	r25, r31
    5332:	c0 01       	movw	r24, r0
    5334:	11 24       	eor	r1, r1
    5336:	84 2b       	or	r24, r20
    5338:	80 93 95 04 	sts	0x0495, r24
    533c:	e2 2f       	mov	r30, r18
    533e:	ef 70       	andi	r30, 0x0F	; 15
    5340:	f0 e0       	ldi	r31, 0x00	; 0
    5342:	eb 55       	subi	r30, 0x5B	; 91
    5344:	f5 4f       	sbci	r31, 0xF5	; 245
    5346:	44 91       	lpm	r20, Z
    5348:	e2 2f       	mov	r30, r18
    534a:	f0 e0       	ldi	r31, 0x00	; 0
    534c:	24 e0       	ldi	r18, 0x04	; 4
    534e:	f6 95       	lsr	r31
    5350:	e7 95       	ror	r30
    5352:	2a 95       	dec	r18
    5354:	e1 f7       	brne	.-8      	; 0x534e <main+0x4c8>
    5356:	eb 55       	subi	r30, 0x5B	; 91
    5358:	f5 4f       	sbci	r31, 0xF5	; 245
    535a:	e4 91       	lpm	r30, Z
    535c:	20 e1       	ldi	r18, 0x10	; 16
    535e:	e2 9f       	mul	r30, r18
    5360:	c0 01       	movw	r24, r0
    5362:	11 24       	eor	r1, r1
    5364:	84 2b       	or	r24, r20
    5366:	80 93 96 04 	sts	0x0496, r24
    536a:	10 92 94 04 	sts	0x0494, r1
    536e:	30 93 97 04 	sts	0x0497, r19
    5372:	10 92 9b 04 	sts	0x049B, r1
    5376:	17 c0       	rjmp	.+46     	; 0x53a6 <main+0x520>
    5378:	80 91 0c 02 	lds	r24, 0x020C
    537c:	82 30       	cpi	r24, 0x02	; 2
    537e:	31 f4       	brne	.+12     	; 0x538c <main+0x506>
    5380:	83 e0       	ldi	r24, 0x03	; 3
    5382:	80 93 16 01 	sts	0x0116, r24
    5386:	10 92 0c 02 	sts	0x020C, r1
    538a:	0d c0       	rjmp	.+26     	; 0x53a6 <main+0x520>
    538c:	80 91 42 04 	lds	r24, 0x0442
    5390:	81 30       	cpi	r24, 0x01	; 1
    5392:	29 f4       	brne	.+10     	; 0x539e <main+0x518>
    5394:	84 e5       	ldi	r24, 0x54	; 84
    5396:	94 e0       	ldi	r25, 0x04	; 4
    5398:	0e 94 f6 24 	call	0x49ec	; 0x49ec <cmd_parse>
    539c:	04 c0       	rjmp	.+8      	; 0x53a6 <main+0x520>
    539e:	0e 94 f6 22 	call	0x45ec	; 0x45ec <dallas_write>
    53a2:	81 11       	cpse	r24, r1
    53a4:	5b cf       	rjmp	.-330    	; 0x525c <main+0x3d6>
    53a6:	80 91 0b 02 	lds	r24, 0x020B
    53aa:	8a 30       	cpi	r24, 0x0A	; 10
    53ac:	08 f4       	brcc	.+2      	; 0x53b0 <main+0x52a>
    53ae:	9e cd       	rjmp	.-1220   	; 0x4eec <main+0x66>
    53b0:	83 e0       	ldi	r24, 0x03	; 3
    53b2:	80 93 16 01 	sts	0x0116, r24
    53b6:	9a cd       	rjmp	.-1228   	; 0x4eec <main+0x66>
    53b8:	8c e4       	ldi	r24, 0x4C	; 76
    53ba:	94 e0       	ldi	r25, 0x04	; 4
    53bc:	0e 94 78 30 	call	0x60f0	; 0x60f0 <rfid_read>
    53c0:	81 11       	cpse	r24, r1
    53c2:	77 c0       	rjmp	.+238    	; 0x54b2 <main+0x62c>
    53c4:	70 92 0b 02 	sts	0x020B, r7
    53c8:	0e 94 e5 22 	call	0x45ca	; 0x45ca <set_mode_write>
    53cc:	80 91 16 01 	lds	r24, 0x0116
    53d0:	83 30       	cpi	r24, 0x03	; 3
    53d2:	09 f0       	breq	.+2      	; 0x53d6 <main+0x550>
    53d4:	de c0       	rjmp	.+444    	; 0x5592 <main+0x70c>
    53d6:	70 92 15 01 	sts	0x0115, r7
    53da:	0e 94 55 1f 	call	0x3eaa	; 0x3eaa <lcd_clear>
    53de:	60 91 40 04 	lds	r22, 0x0440
    53e2:	70 91 41 04 	lds	r23, 0x0441
    53e6:	4c e0       	ldi	r20, 0x0C	; 12
    53e8:	51 e0       	ldi	r21, 0x01	; 1
    53ea:	80 91 3a 04 	lds	r24, 0x043A
    53ee:	90 91 3b 04 	lds	r25, 0x043B
    53f2:	0e 94 a8 20 	call	0x4150	; 0x4150 <open_file_in_dir>
    53f6:	90 93 3d 04 	sts	0x043D, r25
    53fa:	80 93 3c 04 	sts	0x043C, r24
    53fe:	89 2b       	or	r24, r25
    5400:	29 f4       	brne	.+10     	; 0x540c <main+0x586>
    5402:	84 e4       	ldi	r24, 0x44	; 68
    5404:	97 e0       	ldi	r25, 0x07	; 7
    5406:	0e 94 e8 36 	call	0x6dd0	; 0x6dd0 <uart_puts_p>
    540a:	08 c0       	rjmp	.+16     	; 0x541c <main+0x596>
    540c:	61 e0       	ldi	r22, 0x01	; 1
    540e:	81 e0       	ldi	r24, 0x01	; 1
    5410:	0e 94 be 1e 	call	0x3d7c	; 0x3d7c <lcd_goto_xy>
    5414:	81 e4       	ldi	r24, 0x41	; 65
    5416:	97 e0       	ldi	r25, 0x07	; 7
    5418:	0e 94 d1 1f 	call	0x3fa2	; 0x3fa2 <lcd_str_p>
    541c:	80 91 3c 04 	lds	r24, 0x043C
    5420:	90 91 3d 04 	lds	r25, 0x043D
    5424:	0e 94 e6 14 	call	0x29cc	; 0x29cc <fat_close_file>
    5428:	61 e0       	ldi	r22, 0x01	; 1
    542a:	8b e0       	ldi	r24, 0x0B	; 11
    542c:	0e 94 be 1e 	call	0x3d7c	; 0x3d7c <lcd_goto_xy>
    5430:	0e 94 47 24 	call	0x488e	; 0x488e <test_bat>
    5434:	42 ea       	ldi	r20, 0xA2	; 162
    5436:	84 9f       	mul	r24, r20
    5438:	40 01       	movw	r8, r0
    543a:	11 24       	eor	r1, r1
    543c:	81 14       	cp	r8, r1
    543e:	91 04       	cpc	r9, r1
    5440:	29 f4       	brne	.+10     	; 0x544c <main+0x5c6>
    5442:	8d e3       	ldi	r24, 0x3D	; 61
    5444:	97 e0       	ldi	r25, 0x07	; 7
    5446:	0e 94 d1 1f 	call	0x3fa2	; 0x3fa2 <lcd_str_p>
    544a:	1c c0       	rjmp	.+56     	; 0x5484 <main+0x5fe>
    544c:	c4 01       	movw	r24, r8
    544e:	b8 01       	movw	r22, r16
    5450:	0e 94 43 37 	call	0x6e86	; 0x6e86 <__udivmodhi4>
    5454:	b6 01       	movw	r22, r12
    5456:	0e 94 43 37 	call	0x6e86	; 0x6e86 <__udivmodhi4>
    545a:	80 e3       	ldi	r24, 0x30	; 48
    545c:	86 0f       	add	r24, r22
    545e:	0e 94 91 1f 	call	0x3f22	; 0x3f22 <lcd_chr>
    5462:	8c e2       	ldi	r24, 0x2C	; 44
    5464:	0e 94 91 1f 	call	0x3f22	; 0x3f22 <lcd_chr>
    5468:	c4 01       	movw	r24, r8
    546a:	b6 01       	movw	r22, r12
    546c:	0e 94 43 37 	call	0x6e86	; 0x6e86 <__udivmodhi4>
    5470:	b5 01       	movw	r22, r10
    5472:	0e 94 43 37 	call	0x6e86	; 0x6e86 <__udivmodhi4>
    5476:	80 e3       	ldi	r24, 0x30	; 48
    5478:	86 0f       	add	r24, r22
    547a:	0e 94 91 1f 	call	0x3f22	; 0x3f22 <lcd_chr>
    547e:	82 ee       	ldi	r24, 0xE2	; 226
    5480:	0e 94 91 1f 	call	0x3f22	; 0x3f22 <lcd_chr>
    5484:	63 e0       	ldi	r22, 0x03	; 3
    5486:	84 e0       	ldi	r24, 0x04	; 4
    5488:	0e 94 be 1e 	call	0x3d7c	; 0x3d7c <lcd_goto_xy>
    548c:	82 e3       	ldi	r24, 0x32	; 50
    548e:	97 e0       	ldi	r25, 0x07	; 7
    5490:	0e 94 d1 1f 	call	0x3fa2	; 0x3fa2 <lcd_str_p>
    5494:	81 e2       	ldi	r24, 0x21	; 33
    5496:	97 e0       	ldi	r25, 0x07	; 7
    5498:	0e 94 e8 36 	call	0x6dd0	; 0x6dd0 <uart_puts_p>
    549c:	8c e4       	ldi	r24, 0x4C	; 76
    549e:	94 e0       	ldi	r25, 0x04	; 4
    54a0:	0e 94 36 08 	call	0x106c	; 0x106c <ds_read_rom>
    54a4:	98 2e       	mov	r9, r24
    54a6:	51 e0       	ldi	r21, 0x01	; 1
    54a8:	85 17       	cp	r24, r21
    54aa:	09 f4       	brne	.+2      	; 0x54ae <main+0x628>
    54ac:	85 cf       	rjmp	.-246    	; 0x53b8 <main+0x532>
    54ae:	81 e0       	ldi	r24, 0x01	; 1
    54b0:	07 c0       	rjmp	.+14     	; 0x54c0 <main+0x63a>
    54b2:	8c e4       	ldi	r24, 0x4C	; 76
    54b4:	94 e0       	ldi	r25, 0x04	; 4
    54b6:	0e 94 19 1e 	call	0x3c32	; 0x3c32 <kt_read_rom>
    54ba:	81 11       	cpse	r24, r1
    54bc:	04 c0       	rjmp	.+8      	; 0x54c6 <main+0x640>
    54be:	83 e0       	ldi	r24, 0x03	; 3
    54c0:	80 93 0b 02 	sts	0x020B, r24
    54c4:	81 cf       	rjmp	.-254    	; 0x53c8 <main+0x542>
    54c6:	8c e4       	ldi	r24, 0x4C	; 76
    54c8:	94 e0       	ldi	r25, 0x04	; 4
    54ca:	0e 94 48 2d 	call	0x5a90	; 0x5a90 <mk_read>
    54ce:	81 11       	cpse	r24, r1
    54d0:	02 c0       	rjmp	.+4      	; 0x54d6 <main+0x650>
    54d2:	84 e0       	ldi	r24, 0x04	; 4
    54d4:	f5 cf       	rjmp	.-22     	; 0x54c0 <main+0x63a>
    54d6:	8c e4       	ldi	r24, 0x4C	; 76
    54d8:	94 e0       	ldi	r25, 0x04	; 4
    54da:	0e 94 90 06 	call	0xd20	; 0xd20 <cl_read>
    54de:	81 11       	cpse	r24, r1
    54e0:	03 c0       	rjmp	.+6      	; 0x54e8 <main+0x662>
    54e2:	50 92 0b 02 	sts	0x020B, r5
    54e6:	70 cf       	rjmp	.-288    	; 0x53c8 <main+0x542>
    54e8:	8c e4       	ldi	r24, 0x4C	; 76
    54ea:	94 e0       	ldi	r25, 0x04	; 4
    54ec:	0e 94 7e 23 	call	0x46fc	; 0x46fc <resist_read>
    54f0:	81 11       	cpse	r24, r1
    54f2:	23 c0       	rjmp	.+70     	; 0x553a <main+0x6b4>
    54f4:	60 92 0b 02 	sts	0x020B, r6
    54f8:	0e 94 55 1f 	call	0x3eaa	; 0x3eaa <lcd_clear>
    54fc:	0e 94 88 21 	call	0x4310	; 0x4310 <view_key_type>
    5500:	63 e0       	ldi	r22, 0x03	; 3
    5502:	84 e0       	ldi	r24, 0x04	; 4
    5504:	0e 94 be 1e 	call	0x3d7c	; 0x3d7c <lcd_goto_xy>
    5508:	8c e4       	ldi	r24, 0x4C	; 76
    550a:	94 e0       	ldi	r25, 0x04	; 4
    550c:	0e 94 c5 1f 	call	0x3f8a	; 0x3f8a <lcd_str>
    5510:	8c e4       	ldi	r24, 0x4C	; 76
    5512:	94 e0       	ldi	r25, 0x04	; 4
    5514:	0e 94 dc 36 	call	0x6db8	; 0x6db8 <uart_puts>
    5518:	8d e1       	ldi	r24, 0x1D	; 29
    551a:	97 e0       	ldi	r25, 0x07	; 7
    551c:	0e 94 d1 1f 	call	0x3fa2	; 0x3fa2 <lcd_str_p>
    5520:	86 e1       	ldi	r24, 0x16	; 22
    5522:	97 e0       	ldi	r25, 0x07	; 7
    5524:	0e 94 e8 36 	call	0x6dd0	; 0x6dd0 <uart_puts_p>
    5528:	85 ec       	ldi	r24, 0xC5	; 197
    552a:	9a e0       	ldi	r25, 0x0A	; 10
    552c:	0e 94 5d 36 	call	0x6cba	; 0x6cba <sound_play>
    5530:	80 91 0c 02 	lds	r24, 0x020C
    5534:	88 23       	and	r24, r24
    5536:	e1 f3       	breq	.-8      	; 0x5530 <main+0x6aa>
    5538:	49 cf       	rjmp	.-366    	; 0x53cc <main+0x546>
    553a:	80 91 0c 02 	lds	r24, 0x020C
    553e:	81 30       	cpi	r24, 0x01	; 1
    5540:	19 f4       	brne	.+6      	; 0x5548 <main+0x6c2>
    5542:	10 92 0c 02 	sts	0x020C, r1
    5546:	42 cf       	rjmp	.-380    	; 0x53cc <main+0x546>
    5548:	80 91 0c 02 	lds	r24, 0x020C
    554c:	82 30       	cpi	r24, 0x02	; 2
    554e:	29 f4       	brne	.+10     	; 0x555a <main+0x6d4>
    5550:	10 92 0c 02 	sts	0x020C, r1
    5554:	90 92 16 01 	sts	0x0116, r9
    5558:	39 cf       	rjmp	.-398    	; 0x53cc <main+0x546>
    555a:	80 91 42 04 	lds	r24, 0x0442
    555e:	81 30       	cpi	r24, 0x01	; 1
    5560:	09 f0       	breq	.+2      	; 0x5564 <main+0x6de>
    5562:	9c cf       	rjmp	.-200    	; 0x549c <main+0x616>
    5564:	84 e5       	ldi	r24, 0x54	; 84
    5566:	94 e0       	ldi	r25, 0x04	; 4
    5568:	0e 94 f6 24 	call	0x49ec	; 0x49ec <cmd_parse>
    556c:	2f cf       	rjmp	.-418    	; 0x53cc <main+0x546>
    556e:	2f 5f       	subi	r18, 0xFF	; 255
    5570:	3f 4f       	sbci	r19, 0xFF	; 255
    5572:	ef e3       	ldi	r30, 0x3F	; 63
    5574:	fc e9       	ldi	r31, 0x9C	; 156
    5576:	31 97       	sbiw	r30, 0x01	; 1
    5578:	f1 f7       	brne	.-4      	; 0x5576 <main+0x6f0>
    557a:	00 c0       	rjmp	.+0      	; 0x557c <main+0x6f6>
    557c:	00 00       	nop
    557e:	25 3f       	cpi	r18, 0xF5	; 245
    5580:	f1 e0       	ldi	r31, 0x01	; 1
    5582:	3f 07       	cpc	r19, r31
    5584:	e8 f0       	brcs	.+58     	; 0x55c0 <main+0x73a>
    5586:	90 93 16 01 	sts	0x0116, r25
    558a:	89 eb       	ldi	r24, 0xB9	; 185
    558c:	9a e0       	ldi	r25, 0x0A	; 10
    558e:	0e 94 5d 36 	call	0x6cba	; 0x6cba <sound_play>
    5592:	80 91 16 01 	lds	r24, 0x0116
    5596:	81 30       	cpi	r24, 0x01	; 1
    5598:	b1 f5       	brne	.+108    	; 0x5606 <main+0x780>
    559a:	80 91 78 00 	lds	r24, 0x0078
    559e:	90 91 79 00 	lds	r25, 0x0079
    55a2:	20 91 b2 00 	lds	r18, 0x00B2
    55a6:	82 0f       	add	r24, r18
    55a8:	91 1d       	adc	r25, r1
    55aa:	0e 94 d3 38 	call	0x71a6	; 0x71a6 <srand>
    55ae:	10 92 37 04 	sts	0x0437, r1
    55b2:	83 e0       	ldi	r24, 0x03	; 3
    55b4:	0e 94 7a 22 	call	0x44f4	; 0x44f4 <view_menu>
    55b8:	93 e0       	ldi	r25, 0x03	; 3
    55ba:	20 e0       	ldi	r18, 0x00	; 0
    55bc:	30 e0       	ldi	r19, 0x00	; 0
    55be:	d7 cf       	rjmp	.-82     	; 0x556e <main+0x6e8>
    55c0:	80 91 0c 02 	lds	r24, 0x020C
    55c4:	81 30       	cpi	r24, 0x01	; 1
    55c6:	69 f4       	brne	.+26     	; 0x55e2 <main+0x75c>
    55c8:	10 92 0c 02 	sts	0x020C, r1
    55cc:	9f 5f       	subi	r25, 0xFF	; 255
    55ce:	99 30       	cpi	r25, 0x09	; 9
    55d0:	08 f0       	brcs	.+2      	; 0x55d4 <main+0x74e>
    55d2:	93 e0       	ldi	r25, 0x03	; 3
    55d4:	89 2f       	mov	r24, r25
    55d6:	99 83       	std	Y+1, r25	; 0x01
    55d8:	0e 94 7a 22 	call	0x44f4	; 0x44f4 <view_menu>
    55dc:	20 e0       	ldi	r18, 0x00	; 0
    55de:	30 e0       	ldi	r19, 0x00	; 0
    55e0:	99 81       	ldd	r25, Y+1	; 0x01
    55e2:	80 91 0c 02 	lds	r24, 0x020C
    55e6:	82 30       	cpi	r24, 0x02	; 2
    55e8:	21 f4       	brne	.+8      	; 0x55f2 <main+0x76c>
    55ea:	83 e0       	ldi	r24, 0x03	; 3
    55ec:	80 93 16 01 	sts	0x0116, r24
    55f0:	d0 cf       	rjmp	.-96     	; 0x5592 <main+0x70c>
    55f2:	80 91 42 04 	lds	r24, 0x0442
    55f6:	81 30       	cpi	r24, 0x01	; 1
    55f8:	09 f0       	breq	.+2      	; 0x55fc <main+0x776>
    55fa:	b9 cf       	rjmp	.-142    	; 0x556e <main+0x6e8>
    55fc:	84 e5       	ldi	r24, 0x54	; 84
    55fe:	94 e0       	ldi	r25, 0x04	; 4
    5600:	0e 94 f6 24 	call	0x49ec	; 0x49ec <cmd_parse>
    5604:	c6 cf       	rjmp	.-116    	; 0x5592 <main+0x70c>
    5606:	dd 24       	eor	r13, r13
    5608:	d3 94       	inc	r13
    560a:	b3 e0       	ldi	r27, 0x03	; 3
    560c:	cb 2e       	mov	r12, r27
    560e:	82 e0       	ldi	r24, 0x02	; 2
    5610:	b8 2e       	mov	r11, r24
    5612:	80 91 16 01 	lds	r24, 0x0116
    5616:	84 30       	cpi	r24, 0x04	; 4
    5618:	c9 f4       	brne	.+50     	; 0x564c <main+0x7c6>
    561a:	60 91 40 04 	lds	r22, 0x0440
    561e:	70 91 41 04 	lds	r23, 0x0441
    5622:	4c e0       	ldi	r20, 0x0C	; 12
    5624:	51 e0       	ldi	r21, 0x01	; 1
    5626:	80 91 3a 04 	lds	r24, 0x043A
    562a:	90 91 3b 04 	lds	r25, 0x043B
    562e:	0e 94 a8 20 	call	0x4150	; 0x4150 <open_file_in_dir>
    5632:	90 93 3d 04 	sts	0x043D, r25
    5636:	80 93 3c 04 	sts	0x043C, r24
    563a:	00 97       	sbiw	r24, 0x00	; 0
    563c:	71 f4       	brne	.+28     	; 0x565a <main+0x7d4>
    563e:	84 e0       	ldi	r24, 0x04	; 4
    5640:	97 e0       	ldi	r25, 0x07	; 7
    5642:	0e 94 e8 36 	call	0x6dd0	; 0x6dd0 <uart_puts_p>
    5646:	83 e0       	ldi	r24, 0x03	; 3
    5648:	80 93 16 01 	sts	0x0116, r24
    564c:	dd 24       	eor	r13, r13
    564e:	d3 94       	inc	r13
    5650:	f3 e0       	ldi	r31, 0x03	; 3
    5652:	cf 2e       	mov	r12, r31
    5654:	a2 e0       	ldi	r26, 0x02	; 2
    5656:	ba 2e       	mov	r11, r26
    5658:	70 c0       	rjmp	.+224    	; 0x573a <main+0x8b4>
    565a:	0e 94 e6 14 	call	0x29cc	; 0x29cc <fat_close_file>
    565e:	10 92 37 04 	sts	0x0437, r1
    5662:	10 92 dc 04 	sts	0x04DC, r1
    5666:	10 92 dd 04 	sts	0x04DD, r1
    566a:	10 92 de 04 	sts	0x04DE, r1
    566e:	10 92 df 04 	sts	0x04DF, r1
    5672:	d0 92 0c 02 	sts	0x020C, r13
    5676:	80 e0       	ldi	r24, 0x00	; 0
    5678:	90 e0       	ldi	r25, 0x00	; 0
    567a:	01 96       	adiw	r24, 0x01	; 1
    567c:	ef e3       	ldi	r30, 0x3F	; 63
    567e:	fc e9       	ldi	r31, 0x9C	; 156
    5680:	31 97       	sbiw	r30, 0x01	; 1
    5682:	f1 f7       	brne	.-4      	; 0x5680 <main+0x7fa>
    5684:	00 c0       	rjmp	.+0      	; 0x5686 <main+0x800>
    5686:	00 00       	nop
    5688:	85 3f       	cpi	r24, 0xF5	; 245
    568a:	f1 e0       	ldi	r31, 0x01	; 1
    568c:	9f 07       	cpc	r25, r31
    568e:	38 f0       	brcs	.+14     	; 0x569e <main+0x818>
    5690:	b0 92 16 01 	sts	0x0116, r11
    5694:	85 ec       	ldi	r24, 0xC5	; 197
    5696:	9a e0       	ldi	r25, 0x0A	; 10
    5698:	0e 94 5d 36 	call	0x6cba	; 0x6cba <sound_play>
    569c:	ba cf       	rjmp	.-140    	; 0x5612 <main+0x78c>
    569e:	20 91 0c 02 	lds	r18, 0x020C
    56a2:	21 30       	cpi	r18, 0x01	; 1
    56a4:	69 f4       	brne	.+26     	; 0x56c0 <main+0x83a>
    56a6:	10 92 0c 02 	sts	0x020C, r1
    56aa:	8c e0       	ldi	r24, 0x0C	; 12
    56ac:	91 e0       	ldi	r25, 0x01	; 1
    56ae:	0e 94 99 25 	call	0x4b32	; 0x4b32 <file_read>
    56b2:	88 23       	and	r24, r24
    56b4:	19 f0       	breq	.+6      	; 0x56bc <main+0x836>
    56b6:	c0 92 16 01 	sts	0x0116, r12
    56ba:	ab cf       	rjmp	.-170    	; 0x5612 <main+0x78c>
    56bc:	80 e0       	ldi	r24, 0x00	; 0
    56be:	90 e0       	ldi	r25, 0x00	; 0
    56c0:	20 91 0c 02 	lds	r18, 0x020C
    56c4:	22 30       	cpi	r18, 0x02	; 2
    56c6:	79 f4       	brne	.+30     	; 0x56e6 <main+0x860>
    56c8:	8c e0       	ldi	r24, 0x0C	; 12
    56ca:	91 e0       	ldi	r25, 0x01	; 1
    56cc:	0e 94 99 25 	call	0x4b32	; 0x4b32 <file_read>
    56d0:	2f ef       	ldi	r18, 0xFF	; 255
    56d2:	41 ee       	ldi	r20, 0xE1	; 225
    56d4:	54 e0       	ldi	r21, 0x04	; 4
    56d6:	21 50       	subi	r18, 0x01	; 1
    56d8:	40 40       	sbci	r20, 0x00	; 0
    56da:	50 40       	sbci	r21, 0x00	; 0
    56dc:	e1 f7       	brne	.-8      	; 0x56d6 <main+0x850>
    56de:	00 c0       	rjmp	.+0      	; 0x56e0 <main+0x85a>
    56e0:	00 00       	nop
    56e2:	80 e0       	ldi	r24, 0x00	; 0
    56e4:	90 e0       	ldi	r25, 0x00	; 0
    56e6:	20 91 42 04 	lds	r18, 0x0442
    56ea:	21 30       	cpi	r18, 0x01	; 1
    56ec:	31 f6       	brne	.-116    	; 0x567a <main+0x7f4>
    56ee:	84 e5       	ldi	r24, 0x54	; 84
    56f0:	94 e0       	ldi	r25, 0x04	; 4
    56f2:	0e 94 f6 24 	call	0x49ec	; 0x49ec <cmd_parse>
    56f6:	8d cf       	rjmp	.-230    	; 0x5612 <main+0x78c>
    56f8:	0e 94 e6 14 	call	0x29cc	; 0x29cc <fat_close_file>
    56fc:	10 92 37 04 	sts	0x0437, r1
    5700:	10 92 dc 04 	sts	0x04DC, r1
    5704:	10 92 dd 04 	sts	0x04DD, r1
    5708:	10 92 de 04 	sts	0x04DE, r1
    570c:	10 92 df 04 	sts	0x04DF, r1
    5710:	d0 92 0c 02 	sts	0x020C, r13
    5714:	80 e0       	ldi	r24, 0x00	; 0
    5716:	90 e0       	ldi	r25, 0x00	; 0
    5718:	01 96       	adiw	r24, 0x01	; 1
    571a:	ef e3       	ldi	r30, 0x3F	; 63
    571c:	fc e9       	ldi	r31, 0x9C	; 156
    571e:	31 97       	sbiw	r30, 0x01	; 1
    5720:	f1 f7       	brne	.-4      	; 0x571e <main+0x898>
    5722:	00 c0       	rjmp	.+0      	; 0x5724 <main+0x89e>
    5724:	00 00       	nop
    5726:	85 3f       	cpi	r24, 0xF5	; 245
    5728:	f1 e0       	ldi	r31, 0x01	; 1
    572a:	9f 07       	cpc	r25, r31
    572c:	30 f1       	brcs	.+76     	; 0x577a <main+0x8f4>
    572e:	b0 92 16 01 	sts	0x0116, r11
    5732:	85 ec       	ldi	r24, 0xC5	; 197
    5734:	9a e0       	ldi	r25, 0x0A	; 10
    5736:	0e 94 5d 36 	call	0x6cba	; 0x6cba <sound_play>
    573a:	80 91 16 01 	lds	r24, 0x0116
    573e:	85 30       	cpi	r24, 0x05	; 5
    5740:	c9 f4       	brne	.+50     	; 0x5774 <main+0x8ee>
    5742:	60 91 40 04 	lds	r22, 0x0440
    5746:	70 91 41 04 	lds	r23, 0x0441
    574a:	44 e0       	ldi	r20, 0x04	; 4
    574c:	51 e0       	ldi	r21, 0x01	; 1
    574e:	80 91 3a 04 	lds	r24, 0x043A
    5752:	90 91 3b 04 	lds	r25, 0x043B
    5756:	0e 94 a8 20 	call	0x4150	; 0x4150 <open_file_in_dir>
    575a:	90 93 3d 04 	sts	0x043D, r25
    575e:	80 93 3c 04 	sts	0x043C, r24
    5762:	00 97       	sbiw	r24, 0x00	; 0
    5764:	49 f6       	brne	.-110    	; 0x56f8 <main+0x872>
    5766:	83 ef       	ldi	r24, 0xF3	; 243
    5768:	96 e0       	ldi	r25, 0x06	; 6
    576a:	0e 94 e8 36 	call	0x6dd0	; 0x6dd0 <uart_puts_p>
    576e:	83 e0       	ldi	r24, 0x03	; 3
    5770:	80 93 16 01 	sts	0x0116, r24
    5774:	e3 e0       	ldi	r30, 0x03	; 3
    5776:	de 2e       	mov	r13, r30
    5778:	4b c0       	rjmp	.+150    	; 0x5810 <main+0x98a>
    577a:	20 91 0c 02 	lds	r18, 0x020C
    577e:	21 30       	cpi	r18, 0x01	; 1
    5780:	69 f4       	brne	.+26     	; 0x579c <main+0x916>
    5782:	10 92 0c 02 	sts	0x020C, r1
    5786:	84 e0       	ldi	r24, 0x04	; 4
    5788:	91 e0       	ldi	r25, 0x01	; 1
    578a:	0e 94 99 25 	call	0x4b32	; 0x4b32 <file_read>
    578e:	88 23       	and	r24, r24
    5790:	19 f0       	breq	.+6      	; 0x5798 <main+0x912>
    5792:	c0 92 16 01 	sts	0x0116, r12
    5796:	d1 cf       	rjmp	.-94     	; 0x573a <main+0x8b4>
    5798:	80 e0       	ldi	r24, 0x00	; 0
    579a:	90 e0       	ldi	r25, 0x00	; 0
    579c:	20 91 0c 02 	lds	r18, 0x020C
    57a0:	22 30       	cpi	r18, 0x02	; 2
    57a2:	79 f4       	brne	.+30     	; 0x57c2 <main+0x93c>
    57a4:	84 e0       	ldi	r24, 0x04	; 4
    57a6:	91 e0       	ldi	r25, 0x01	; 1
    57a8:	0e 94 99 25 	call	0x4b32	; 0x4b32 <file_read>
    57ac:	2f ef       	ldi	r18, 0xFF	; 255
    57ae:	41 ee       	ldi	r20, 0xE1	; 225
    57b0:	54 e0       	ldi	r21, 0x04	; 4
    57b2:	21 50       	subi	r18, 0x01	; 1
    57b4:	40 40       	sbci	r20, 0x00	; 0
    57b6:	50 40       	sbci	r21, 0x00	; 0
    57b8:	e1 f7       	brne	.-8      	; 0x57b2 <main+0x92c>
    57ba:	00 c0       	rjmp	.+0      	; 0x57bc <main+0x936>
    57bc:	00 00       	nop
    57be:	80 e0       	ldi	r24, 0x00	; 0
    57c0:	90 e0       	ldi	r25, 0x00	; 0
    57c2:	20 91 42 04 	lds	r18, 0x0442
    57c6:	21 30       	cpi	r18, 0x01	; 1
    57c8:	09 f0       	breq	.+2      	; 0x57cc <main+0x946>
    57ca:	a6 cf       	rjmp	.-180    	; 0x5718 <main+0x892>
    57cc:	84 e5       	ldi	r24, 0x54	; 84
    57ce:	94 e0       	ldi	r25, 0x04	; 4
    57d0:	0e 94 f6 24 	call	0x49ec	; 0x49ec <cmd_parse>
    57d4:	b2 cf       	rjmp	.-156    	; 0x573a <main+0x8b4>
    57d6:	40 e0       	ldi	r20, 0x00	; 0
    57d8:	50 e0       	ldi	r21, 0x00	; 0
    57da:	ba 01       	movw	r22, r20
    57dc:	0e 94 dd 18 	call	0x31ba	; 0x31ba <fat_resize_file>
    57e0:	80 91 3c 04 	lds	r24, 0x043C
    57e4:	90 91 3d 04 	lds	r25, 0x043D
    57e8:	0e 94 e6 14 	call	0x29cc	; 0x29cc <fat_close_file>
    57ec:	10 92 dc 04 	sts	0x04DC, r1
    57f0:	10 92 dd 04 	sts	0x04DD, r1
    57f4:	10 92 de 04 	sts	0x04DE, r1
    57f8:	10 92 df 04 	sts	0x04DF, r1
    57fc:	0e 94 55 1f 	call	0x3eaa	; 0x3eaa <lcd_clear>
    5800:	63 e0       	ldi	r22, 0x03	; 3
    5802:	83 e0       	ldi	r24, 0x03	; 3
    5804:	0e 94 be 1e 	call	0x3d7c	; 0x3d7c <lcd_goto_xy>
    5808:	86 ed       	ldi	r24, 0xD6	; 214
    580a:	96 e0       	ldi	r25, 0x06	; 6
    580c:	0e 94 d1 1f 	call	0x3fa2	; 0x3fa2 <lcd_str_p>
    5810:	80 91 16 01 	lds	r24, 0x0116
    5814:	86 30       	cpi	r24, 0x06	; 6
    5816:	c1 f4       	brne	.+48     	; 0x5848 <main+0x9c2>
    5818:	d0 92 16 01 	sts	0x0116, r13
    581c:	60 91 40 04 	lds	r22, 0x0440
    5820:	70 91 41 04 	lds	r23, 0x0441
    5824:	44 e0       	ldi	r20, 0x04	; 4
    5826:	51 e0       	ldi	r21, 0x01	; 1
    5828:	80 91 3a 04 	lds	r24, 0x043A
    582c:	90 91 3b 04 	lds	r25, 0x043B
    5830:	0e 94 a8 20 	call	0x4150	; 0x4150 <open_file_in_dir>
    5834:	90 93 3d 04 	sts	0x043D, r25
    5838:	80 93 3c 04 	sts	0x043C, r24
    583c:	00 97       	sbiw	r24, 0x00	; 0
    583e:	59 f6       	brne	.-106    	; 0x57d6 <main+0x950>
    5840:	82 ee       	ldi	r24, 0xE2	; 226
    5842:	96 e0       	ldi	r25, 0x06	; 6
    5844:	0e 94 e8 36 	call	0x6dd0	; 0x6dd0 <uart_puts_p>
    5848:	bb 24       	eor	r11, r11
    584a:	b3 94       	inc	r11
    584c:	54 e0       	ldi	r21, 0x04	; 4
    584e:	a5 2e       	mov	r10, r21
    5850:	a2 0c       	add	r10, r2
    5852:	62 e0       	ldi	r22, 0x02	; 2
    5854:	96 2e       	mov	r9, r22
    5856:	77 e0       	ldi	r23, 0x07	; 7
    5858:	87 2e       	mov	r8, r23
    585a:	1f c0       	rjmp	.+62     	; 0x589a <main+0xa14>
    585c:	0e 94 ce 38 	call	0x719c	; 0x719c <rand>
    5860:	f6 01       	movw	r30, r12
    5862:	81 93       	st	Z+, r24
    5864:	6f 01       	movw	r12, r30
    5866:	ae 12       	cpse	r10, r30
    5868:	f9 cf       	rjmp	.-14     	; 0x585c <main+0x9d6>
    586a:	10 92 99 04 	sts	0x0499, r1
    586e:	10 92 9a 04 	sts	0x049A, r1
    5872:	34 e9       	ldi	r19, 0x94	; 148
    5874:	c3 2e       	mov	r12, r19
    5876:	34 e0       	ldi	r19, 0x04	; 4
    5878:	d3 2e       	mov	r13, r19
    587a:	80 e0       	ldi	r24, 0x00	; 0
    587c:	f6 01       	movw	r30, r12
    587e:	61 91       	ld	r22, Z+
    5880:	6f 01       	movw	r12, r30
    5882:	0e 94 23 07 	call	0xe46	; 0xe46 <ds_crc>
    5886:	fc 10       	cpse	r15, r12
    5888:	f9 cf       	rjmp	.-14     	; 0x587c <main+0x9f6>
    588a:	80 93 9b 04 	sts	0x049B, r24
    588e:	b0 92 0b 02 	sts	0x020B, r11
    5892:	90 92 16 01 	sts	0x0116, r9
    5896:	80 92 15 01 	sts	0x0115, r8
    589a:	80 91 16 01 	lds	r24, 0x0116
    589e:	87 30       	cpi	r24, 0x07	; 7
    58a0:	39 f4       	brne	.+14     	; 0x58b0 <main+0xa2a>
    58a2:	b0 92 94 04 	sts	0x0494, r11
    58a6:	45 e9       	ldi	r20, 0x95	; 149
    58a8:	c4 2e       	mov	r12, r20
    58aa:	44 e0       	ldi	r20, 0x04	; 4
    58ac:	d4 2e       	mov	r13, r20
    58ae:	d6 cf       	rjmp	.-84     	; 0x585c <main+0x9d6>
    58b0:	92 e0       	ldi	r25, 0x02	; 2
    58b2:	b9 2e       	mov	r11, r25
    58b4:	28 e0       	ldi	r18, 0x08	; 8
    58b6:	a2 2e       	mov	r10, r18
    58b8:	80 91 16 01 	lds	r24, 0x0116
    58bc:	88 30       	cpi	r24, 0x08	; 8
    58be:	e1 f4       	brne	.+56     	; 0x58f8 <main+0xa72>
    58c0:	10 92 95 04 	sts	0x0495, r1
    58c4:	10 92 96 04 	sts	0x0496, r1
    58c8:	10 92 97 04 	sts	0x0497, r1
    58cc:	10 92 98 04 	sts	0x0498, r1
    58d0:	10 92 99 04 	sts	0x0499, r1
    58d4:	85 e9       	ldi	r24, 0x95	; 149
    58d6:	c8 2e       	mov	r12, r24
    58d8:	84 e0       	ldi	r24, 0x04	; 4
    58da:	d8 2e       	mov	r13, r24
    58dc:	0e 94 ce 38 	call	0x719c	; 0x719c <rand>
    58e0:	f6 01       	movw	r30, r12
    58e2:	81 93       	st	Z+, r24
    58e4:	6f 01       	movw	r12, r30
    58e6:	ee 12       	cpse	r14, r30
    58e8:	f9 cf       	rjmp	.-14     	; 0x58dc <main+0xa56>
    58ea:	b0 92 0b 02 	sts	0x020B, r11
    58ee:	b0 92 16 01 	sts	0x0116, r11
    58f2:	a0 92 15 01 	sts	0x0115, r10
    58f6:	e0 cf       	rjmp	.-64     	; 0x58b8 <main+0xa32>
    58f8:	82 50       	subi	r24, 0x02	; 2
    58fa:	82 30       	cpi	r24, 0x02	; 2
    58fc:	08 f0       	brcs	.+2      	; 0x5900 <main+0xa7a>
    58fe:	58 cd       	rjmp	.-1360   	; 0x53b0 <main+0x52a>
    5900:	f5 ca       	rjmp	.-2582   	; 0x4eec <main+0x66>
    5902:	0e 94 55 1f 	call	0x3eaa	; 0x3eaa <lcd_clear>
    5906:	63 e0       	ldi	r22, 0x03	; 3
    5908:	81 e0       	ldi	r24, 0x01	; 1
    590a:	0e 94 be 1e 	call	0x3d7c	; 0x3d7c <lcd_goto_xy>
    590e:	8b e9       	ldi	r24, 0x9B	; 155
    5910:	97 e0       	ldi	r25, 0x07	; 7
    5912:	0e 94 d1 1f 	call	0x3fa2	; 0x3fa2 <lcd_str_p>
    5916:	87 e8       	ldi	r24, 0x87	; 135
    5918:	97 e0       	ldi	r25, 0x07	; 7
    591a:	0e 94 e8 36 	call	0x6dd0	; 0x6dd0 <uart_puts_p>
    591e:	8f eb       	ldi	r24, 0xBF	; 191
    5920:	9a e0       	ldi	r25, 0x0A	; 10
    5922:	0e 94 5d 36 	call	0x6cba	; 0x6cba <sound_play>
    5926:	ff ef       	ldi	r31, 0xFF	; 255
    5928:	23 ed       	ldi	r18, 0xD3	; 211
    592a:	40 e3       	ldi	r20, 0x30	; 48
    592c:	f1 50       	subi	r31, 0x01	; 1
    592e:	20 40       	sbci	r18, 0x00	; 0
    5930:	40 40       	sbci	r20, 0x00	; 0
    5932:	e1 f7       	brne	.-8      	; 0x592c <main+0xaa6>
    5934:	00 c0       	rjmp	.+0      	; 0x5936 <main+0xab0>
    5936:	00 00       	nop
    5938:	80 91 15 01 	lds	r24, 0x0115
    593c:	80 93 16 01 	sts	0x0116, r24
    5940:	55 cb       	rjmp	.-2390   	; 0x4fec <main+0x166>

00005942 <mk_crc>:
    5942:	ef 92       	push	r14
    5944:	ff 92       	push	r15
    5946:	0f 93       	push	r16
    5948:	1f 93       	push	r17
    594a:	cf 93       	push	r28
    594c:	df 93       	push	r29
    594e:	9c 01       	movw	r18, r24
    5950:	28 5f       	subi	r18, 0xF8	; 248
    5952:	3f 4f       	sbci	r19, 0xFF	; 255
    5954:	fc 01       	movw	r30, r24
    5956:	11 92       	st	Z+, r1
    5958:	e2 17       	cp	r30, r18
    595a:	f3 07       	cpc	r31, r19
    595c:	e1 f7       	brne	.-8      	; 0x5956 <mk_crc+0x14>
    595e:	e0 91 43 04 	lds	r30, 0x0443
    5962:	2e 2f       	mov	r18, r30
    5964:	20 7e       	andi	r18, 0xE0	; 224
    5966:	20 34       	cpi	r18, 0x40	; 64
    5968:	09 f0       	breq	.+2      	; 0x596c <mk_crc+0x2a>
    596a:	8a c0       	rjmp	.+276    	; 0x5a80 <mk_crc+0x13e>
    596c:	20 e0       	ldi	r18, 0x00	; 0
    596e:	30 e0       	ldi	r19, 0x00	; 0
    5970:	f0 e0       	ldi	r31, 0x00	; 0
    5972:	d9 01       	movw	r26, r18
    5974:	93 96       	adiw	r26, 0x23	; 35
    5976:	ed 01       	movw	r28, r26
    5978:	63 e0       	ldi	r22, 0x03	; 3
    597a:	d5 95       	asr	r29
    597c:	c7 95       	ror	r28
    597e:	6a 95       	dec	r22
    5980:	e1 f7       	brne	.-8      	; 0x597a <mk_crc+0x38>
    5982:	cd 5b       	subi	r28, 0xBD	; 189
    5984:	db 4f       	sbci	r29, 0xFB	; 251
    5986:	48 81       	ld	r20, Y
    5988:	50 e0       	ldi	r21, 0x00	; 0
    598a:	a7 70       	andi	r26, 0x07	; 7
    598c:	bb 27       	eor	r27, r27
    598e:	02 c0       	rjmp	.+4      	; 0x5994 <mk_crc+0x52>
    5990:	44 0f       	add	r20, r20
    5992:	55 1f       	adc	r21, r21
    5994:	aa 95       	dec	r26
    5996:	e2 f7       	brpl	.-8      	; 0x5990 <mk_crc+0x4e>
    5998:	df 01       	movw	r26, r30
    599a:	02 2e       	mov	r0, r18
    599c:	02 c0       	rjmp	.+4      	; 0x59a2 <mk_crc+0x60>
    599e:	aa 0f       	add	r26, r26
    59a0:	bb 1f       	adc	r27, r27
    59a2:	0a 94       	dec	r0
    59a4:	e2 f7       	brpl	.-8      	; 0x599e <mk_crc+0x5c>
    59a6:	4a 27       	eor	r20, r26
    59a8:	5b 27       	eor	r21, r27
    59aa:	47 fd       	sbrc	r20, 7
    59ac:	69 c0       	rjmp	.+210    	; 0x5a80 <mk_crc+0x13e>
    59ae:	2f 5f       	subi	r18, 0xFF	; 255
    59b0:	3f 4f       	sbci	r19, 0xFF	; 255
    59b2:	28 30       	cpi	r18, 0x08	; 8
    59b4:	31 05       	cpc	r19, r1
    59b6:	e9 f6       	brne	.-70     	; 0x5972 <mk_crc+0x30>
    59b8:	23 e0       	ldi	r18, 0x03	; 3
    59ba:	30 e0       	ldi	r19, 0x00	; 0
    59bc:	a0 e8       	ldi	r26, 0x80	; 128
    59be:	b0 e0       	ldi	r27, 0x00	; 0
    59c0:	c4 e0       	ldi	r28, 0x04	; 4
    59c2:	d0 e0       	ldi	r29, 0x00	; 0
    59c4:	4d ef       	ldi	r20, 0xFD	; 253
    59c6:	42 0f       	add	r20, r18
    59c8:	f9 01       	movw	r30, r18
    59ca:	53 e0       	ldi	r21, 0x03	; 3
    59cc:	f5 95       	asr	r31
    59ce:	e7 95       	ror	r30
    59d0:	5a 95       	dec	r21
    59d2:	e1 f7       	brne	.-8      	; 0x59cc <mk_crc+0x8a>
    59d4:	ed 5b       	subi	r30, 0xBD	; 189
    59d6:	fb 4f       	sbci	r31, 0xFB	; 251
    59d8:	e0 81       	ld	r30, Z
    59da:	0e 2f       	mov	r16, r30
    59dc:	10 e0       	ldi	r17, 0x00	; 0
    59de:	f9 01       	movw	r30, r18
    59e0:	e7 70       	andi	r30, 0x07	; 7
    59e2:	ff 27       	eor	r31, r31
    59e4:	7d 01       	movw	r14, r26
    59e6:	02 c0       	rjmp	.+4      	; 0x59ec <mk_crc+0xaa>
    59e8:	f5 94       	asr	r15
    59ea:	e7 94       	ror	r14
    59ec:	ea 95       	dec	r30
    59ee:	e2 f7       	brpl	.-8      	; 0x59e8 <mk_crc+0xa6>
    59f0:	f7 01       	movw	r30, r14
    59f2:	e0 23       	and	r30, r16
    59f4:	f1 23       	and	r31, r17
    59f6:	ef 2b       	or	r30, r31
    59f8:	a1 f0       	breq	.+40     	; 0x5a22 <mk_crc+0xe0>
    59fa:	54 2f       	mov	r21, r20
    59fc:	56 95       	lsr	r21
    59fe:	56 95       	lsr	r21
    5a00:	56 95       	lsr	r21
    5a02:	fe 01       	movw	r30, r28
    5a04:	e5 1b       	sub	r30, r21
    5a06:	f1 09       	sbc	r31, r1
    5a08:	e8 0f       	add	r30, r24
    5a0a:	f9 1f       	adc	r31, r25
    5a0c:	47 70       	andi	r20, 0x07	; 7
    5a0e:	8d 01       	movw	r16, r26
    5a10:	02 c0       	rjmp	.+4      	; 0x5a16 <mk_crc+0xd4>
    5a12:	15 95       	asr	r17
    5a14:	07 95       	ror	r16
    5a16:	4a 95       	dec	r20
    5a18:	e2 f7       	brpl	.-8      	; 0x5a12 <mk_crc+0xd0>
    5a1a:	a8 01       	movw	r20, r16
    5a1c:	50 81       	ld	r21, Z
    5a1e:	45 2b       	or	r20, r21
    5a20:	40 83       	st	Z, r20
    5a22:	2f 5f       	subi	r18, 0xFF	; 255
    5a24:	3f 4f       	sbci	r19, 0xFF	; 255
    5a26:	23 32       	cpi	r18, 0x23	; 35
    5a28:	31 05       	cpc	r19, r1
    5a2a:	61 f6       	brne	.-104    	; 0x59c4 <mk_crc+0x82>
    5a2c:	fc 01       	movw	r30, r24
    5a2e:	34 96       	adiw	r30, 0x04	; 4
    5a30:	00 e8       	ldi	r16, 0x80	; 128
    5a32:	10 e0       	ldi	r17, 0x00	; 0
    5a34:	ff 24       	eor	r15, r15
    5a36:	f3 94       	inc	r15
    5a38:	30 81       	ld	r19, Z
    5a3a:	c3 2f       	mov	r28, r19
    5a3c:	d0 e0       	ldi	r29, 0x00	; 0
    5a3e:	40 e0       	ldi	r20, 0x00	; 0
    5a40:	50 e0       	ldi	r21, 0x00	; 0
    5a42:	20 e0       	ldi	r18, 0x00	; 0
    5a44:	d8 01       	movw	r26, r16
    5a46:	04 2e       	mov	r0, r20
    5a48:	02 c0       	rjmp	.+4      	; 0x5a4e <mk_crc+0x10c>
    5a4a:	b5 95       	asr	r27
    5a4c:	a7 95       	ror	r26
    5a4e:	0a 94       	dec	r0
    5a50:	e2 f7       	brpl	.-8      	; 0x5a4a <mk_crc+0x108>
    5a52:	ac 23       	and	r26, r28
    5a54:	bd 23       	and	r27, r29
    5a56:	ab 2b       	or	r26, r27
    5a58:	09 f0       	breq	.+2      	; 0x5a5c <mk_crc+0x11a>
    5a5a:	2f 25       	eor	r18, r15
    5a5c:	4f 5f       	subi	r20, 0xFF	; 255
    5a5e:	5f 4f       	sbci	r21, 0xFF	; 255
    5a60:	47 30       	cpi	r20, 0x07	; 7
    5a62:	51 05       	cpc	r21, r1
    5a64:	79 f7       	brne	.-34     	; 0x5a44 <mk_crc+0x102>
    5a66:	63 2f       	mov	r22, r19
    5a68:	61 70       	andi	r22, 0x01	; 1
    5a6a:	70 e0       	ldi	r23, 0x00	; 0
    5a6c:	30 e0       	ldi	r19, 0x00	; 0
    5a6e:	62 17       	cp	r22, r18
    5a70:	73 07       	cpc	r23, r19
    5a72:	31 f4       	brne	.+12     	; 0x5a80 <mk_crc+0x13e>
    5a74:	31 97       	sbiw	r30, 0x01	; 1
    5a76:	e8 17       	cp	r30, r24
    5a78:	f9 07       	cpc	r31, r25
    5a7a:	f1 f6       	brne	.-68     	; 0x5a38 <mk_crc+0xf6>
    5a7c:	80 e0       	ldi	r24, 0x00	; 0
    5a7e:	01 c0       	rjmp	.+2      	; 0x5a82 <mk_crc+0x140>
    5a80:	81 e0       	ldi	r24, 0x01	; 1
    5a82:	df 91       	pop	r29
    5a84:	cf 91       	pop	r28
    5a86:	1f 91       	pop	r17
    5a88:	0f 91       	pop	r16
    5a8a:	ff 90       	pop	r15
    5a8c:	ef 90       	pop	r14
    5a8e:	08 95       	ret

00005a90 <mk_read>:
    5a90:	cf 93       	push	r28
    5a92:	df 93       	push	r29
    5a94:	ec 01       	movw	r28, r24
    5a96:	80 e6       	ldi	r24, 0x60	; 96
    5a98:	80 93 7c 00 	sts	0x007C, r24
    5a9c:	3a e6       	ldi	r19, 0x6A	; 106
    5a9e:	3a 95       	dec	r19
    5aa0:	f1 f7       	brne	.-4      	; 0x5a9e <mk_read+0xe>
    5aa2:	00 c0       	rjmp	.+0      	; 0x5aa4 <mk_read+0x14>
    5aa4:	e3 e4       	ldi	r30, 0x43	; 67
    5aa6:	f4 e0       	ldi	r31, 0x04	; 4
    5aa8:	89 e0       	ldi	r24, 0x09	; 9
    5aaa:	8e 0f       	add	r24, r30
    5aac:	11 92       	st	Z+, r1
    5aae:	8e 13       	cpse	r24, r30
    5ab0:	fd cf       	rjmp	.-6      	; 0x5aac <mk_read+0x1c>
    5ab2:	24 e6       	ldi	r18, 0x64	; 100
    5ab4:	80 e0       	ldi	r24, 0x00	; 0
    5ab6:	90 e0       	ldi	r25, 0x00	; 0
    5ab8:	30 91 79 00 	lds	r19, 0x0079
    5abc:	83 0f       	add	r24, r19
    5abe:	91 1d       	adc	r25, r1
    5ac0:	65 e3       	ldi	r22, 0x35	; 53
    5ac2:	6a 95       	dec	r22
    5ac4:	f1 f7       	brne	.-4      	; 0x5ac2 <mk_read+0x32>
    5ac6:	00 00       	nop
    5ac8:	21 50       	subi	r18, 0x01	; 1
    5aca:	b1 f7       	brne	.-20     	; 0x5ab8 <mk_read+0x28>
    5acc:	64 e6       	ldi	r22, 0x64	; 100
    5ace:	70 e0       	ldi	r23, 0x00	; 0
    5ad0:	0e 94 43 37 	call	0x6e86	; 0x6e86 <__udivmodhi4>
    5ad4:	26 2f       	mov	r18, r22
    5ad6:	34 e6       	ldi	r19, 0x64	; 100
    5ad8:	80 e0       	ldi	r24, 0x00	; 0
    5ada:	40 e0       	ldi	r20, 0x00	; 0
    5adc:	50 e0       	ldi	r21, 0x00	; 0
    5ade:	90 e0       	ldi	r25, 0x00	; 0
    5ae0:	60 91 79 00 	lds	r22, 0x0079
    5ae4:	62 17       	cp	r22, r18
    5ae6:	30 f4       	brcc	.+12     	; 0x5af4 <mk_read+0x64>
    5ae8:	88 23       	and	r24, r24
    5aea:	21 f0       	breq	.+8      	; 0x5af4 <mk_read+0x64>
    5aec:	49 0f       	add	r20, r25
    5aee:	51 1d       	adc	r21, r1
    5af0:	80 e0       	ldi	r24, 0x00	; 0
    5af2:	11 c0       	rjmp	.+34     	; 0x5b16 <mk_read+0x86>
    5af4:	60 91 79 00 	lds	r22, 0x0079
    5af8:	26 17       	cp	r18, r22
    5afa:	30 f4       	brcc	.+12     	; 0x5b08 <mk_read+0x78>
    5afc:	81 11       	cpse	r24, r1
    5afe:	04 c0       	rjmp	.+8      	; 0x5b08 <mk_read+0x78>
    5b00:	49 0f       	add	r20, r25
    5b02:	51 1d       	adc	r21, r1
    5b04:	81 e0       	ldi	r24, 0x01	; 1
    5b06:	07 c0       	rjmp	.+14     	; 0x5b16 <mk_read+0x86>
    5b08:	65 e1       	ldi	r22, 0x15	; 21
    5b0a:	6a 95       	dec	r22
    5b0c:	f1 f7       	brne	.-4      	; 0x5b0a <mk_read+0x7a>
    5b0e:	00 00       	nop
    5b10:	9f 5f       	subi	r25, 0xFF	; 255
    5b12:	98 3c       	cpi	r25, 0xC8	; 200
    5b14:	29 f7       	brne	.-54     	; 0x5ae0 <mk_read+0x50>
    5b16:	31 50       	subi	r19, 0x01	; 1
    5b18:	11 f7       	brne	.-60     	; 0x5ade <mk_read+0x4e>
    5b1a:	ca 01       	movw	r24, r20
    5b1c:	64 e6       	ldi	r22, 0x64	; 100
    5b1e:	70 e0       	ldi	r23, 0x00	; 0
    5b20:	0e 94 43 37 	call	0x6e86	; 0x6e86 <__udivmodhi4>
    5b24:	76 2f       	mov	r23, r22
    5b26:	65 50       	subi	r22, 0x05	; 5
    5b28:	63 31       	cpi	r22, 0x13	; 19
    5b2a:	08 f0       	brcs	.+2      	; 0x5b2e <mk_read+0x9e>
    5b2c:	57 c0       	rjmp	.+174    	; 0x5bdc <mk_read+0x14c>
    5b2e:	9f ef       	ldi	r25, 0xFF	; 255
    5b30:	85 e3       	ldi	r24, 0x35	; 53
    5b32:	8a 95       	dec	r24
    5b34:	f1 f7       	brne	.-4      	; 0x5b32 <mk_read+0xa2>
    5b36:	00 00       	nop
    5b38:	80 91 79 00 	lds	r24, 0x0079
    5b3c:	82 17       	cp	r24, r18
    5b3e:	18 f0       	brcs	.+6      	; 0x5b46 <mk_read+0xb6>
    5b40:	91 50       	subi	r25, 0x01	; 1
    5b42:	b1 f7       	brne	.-20     	; 0x5b30 <mk_read+0xa0>
    5b44:	4b c0       	rjmp	.+150    	; 0x5bdc <mk_read+0x14c>
    5b46:	80 e0       	ldi	r24, 0x00	; 0
    5b48:	35 e3       	ldi	r19, 0x35	; 53
    5b4a:	3a 95       	dec	r19
    5b4c:	f1 f7       	brne	.-4      	; 0x5b4a <mk_read+0xba>
    5b4e:	00 00       	nop
    5b50:	30 91 79 00 	lds	r19, 0x0079
    5b54:	23 17       	cp	r18, r19
    5b56:	20 f0       	brcs	.+8      	; 0x5b60 <mk_read+0xd0>
    5b58:	8f 5f       	subi	r24, 0xFF	; 255
    5b5a:	84 36       	cpi	r24, 0x64	; 100
    5b5c:	a9 f7       	brne	.-22     	; 0x5b48 <mk_read+0xb8>
    5b5e:	02 c0       	rjmp	.+4      	; 0x5b64 <mk_read+0xd4>
    5b60:	78 17       	cp	r23, r24
    5b62:	70 f7       	brcc	.-36     	; 0x5b40 <mk_read+0xb0>
    5b64:	90 e0       	ldi	r25, 0x00	; 0
    5b66:	a0 e8       	ldi	r26, 0x80	; 128
    5b68:	b0 e0       	ldi	r27, 0x00	; 0
    5b6a:	30 e0       	ldi	r19, 0x00	; 0
    5b6c:	80 91 79 00 	lds	r24, 0x0079
    5b70:	82 17       	cp	r24, r18
    5b72:	40 f0       	brcs	.+16     	; 0x5b84 <mk_read+0xf4>
    5b74:	65 e1       	ldi	r22, 0x15	; 21
    5b76:	6a 95       	dec	r22
    5b78:	f1 f7       	brne	.-4      	; 0x5b76 <mk_read+0xe6>
    5b7a:	00 00       	nop
    5b7c:	3f 5f       	subi	r19, 0xFF	; 255
    5b7e:	37 39       	cpi	r19, 0x97	; 151
    5b80:	a9 f7       	brne	.-22     	; 0x5b6c <mk_read+0xdc>
    5b82:	04 c0       	rjmp	.+8      	; 0x5b8c <mk_read+0xfc>
    5b84:	36 39       	cpi	r19, 0x96	; 150
    5b86:	51 f1       	breq	.+84     	; 0x5bdc <mk_read+0x14c>
    5b88:	73 17       	cp	r23, r19
    5b8a:	90 f4       	brcc	.+36     	; 0x5bb0 <mk_read+0x120>
    5b8c:	e9 2f       	mov	r30, r25
    5b8e:	e6 95       	lsr	r30
    5b90:	e6 95       	lsr	r30
    5b92:	e6 95       	lsr	r30
    5b94:	f0 e0       	ldi	r31, 0x00	; 0
    5b96:	ed 5b       	subi	r30, 0xBD	; 189
    5b98:	fb 4f       	sbci	r31, 0xFB	; 251
    5b9a:	89 2f       	mov	r24, r25
    5b9c:	87 70       	andi	r24, 0x07	; 7
    5b9e:	ad 01       	movw	r20, r26
    5ba0:	02 c0       	rjmp	.+4      	; 0x5ba6 <mk_read+0x116>
    5ba2:	55 95       	asr	r21
    5ba4:	47 95       	ror	r20
    5ba6:	8a 95       	dec	r24
    5ba8:	e2 f7       	brpl	.-8      	; 0x5ba2 <mk_read+0x112>
    5baa:	80 81       	ld	r24, Z
    5bac:	48 2b       	or	r20, r24
    5bae:	40 83       	st	Z, r20
    5bb0:	30 e0       	ldi	r19, 0x00	; 0
    5bb2:	80 91 79 00 	lds	r24, 0x0079
    5bb6:	28 17       	cp	r18, r24
    5bb8:	78 f0       	brcs	.+30     	; 0x5bd8 <mk_read+0x148>
    5bba:	85 e1       	ldi	r24, 0x15	; 21
    5bbc:	8a 95       	dec	r24
    5bbe:	f1 f7       	brne	.-4      	; 0x5bbc <mk_read+0x12c>
    5bc0:	00 00       	nop
    5bc2:	3f 5f       	subi	r19, 0xFF	; 255
    5bc4:	37 39       	cpi	r19, 0x97	; 151
    5bc6:	a9 f7       	brne	.-22     	; 0x5bb2 <mk_read+0x122>
    5bc8:	9f 5f       	subi	r25, 0xFF	; 255
    5bca:	96 34       	cpi	r25, 0x46	; 70
    5bcc:	71 f6       	brne	.-100    	; 0x5b6a <mk_read+0xda>
    5bce:	ce 01       	movw	r24, r28
    5bd0:	df 91       	pop	r29
    5bd2:	cf 91       	pop	r28
    5bd4:	0c 94 a1 2c 	jmp	0x5942	; 0x5942 <mk_crc>
    5bd8:	36 39       	cpi	r19, 0x96	; 150
    5bda:	b1 f7       	brne	.-20     	; 0x5bc8 <mk_read+0x138>
    5bdc:	81 e0       	ldi	r24, 0x01	; 1
    5bde:	df 91       	pop	r29
    5be0:	cf 91       	pop	r28
    5be2:	08 95       	ret

00005be4 <partition_open>:
    5be4:	5f 92       	push	r5
    5be6:	6f 92       	push	r6
    5be8:	7f 92       	push	r7
    5bea:	8f 92       	push	r8
    5bec:	9f 92       	push	r9
    5bee:	af 92       	push	r10
    5bf0:	bf 92       	push	r11
    5bf2:	cf 92       	push	r12
    5bf4:	df 92       	push	r13
    5bf6:	ef 92       	push	r14
    5bf8:	ff 92       	push	r15
    5bfa:	0f 93       	push	r16
    5bfc:	1f 93       	push	r17
    5bfe:	cf 93       	push	r28
    5c00:	df 93       	push	r29
    5c02:	cd b7       	in	r28, 0x3d	; 61
    5c04:	de b7       	in	r29, 0x3e	; 62
    5c06:	60 97       	sbiw	r28, 0x10	; 16
    5c08:	0f b6       	in	r0, 0x3f	; 63
    5c0a:	f8 94       	cli
    5c0c:	de bf       	out	0x3e, r29	; 62
    5c0e:	0f be       	out	0x3f, r0	; 63
    5c10:	cd bf       	out	0x3d, r28	; 61
    5c12:	00 97       	sbiw	r24, 0x00	; 0
    5c14:	19 f4       	brne	.+6      	; 0x5c1c <partition_open+0x38>
    5c16:	80 e0       	ldi	r24, 0x00	; 0
    5c18:	90 e0       	ldi	r25, 0x00	; 0
    5c1a:	68 c0       	rjmp	.+208    	; 0x5cec <partition_open+0x108>
    5c1c:	61 15       	cp	r22, r1
    5c1e:	71 05       	cpc	r23, r1
    5c20:	d1 f3       	breq	.-12     	; 0x5c16 <partition_open+0x32>
    5c22:	04 30       	cpi	r16, 0x04	; 4
    5c24:	c4 f7       	brge	.-16     	; 0x5c16 <partition_open+0x32>
    5c26:	50 2e       	mov	r5, r16
    5c28:	49 01       	movw	r8, r18
    5c2a:	3a 01       	movw	r6, r20
    5c2c:	5b 01       	movw	r10, r22
    5c2e:	6c 01       	movw	r12, r24
    5c30:	07 ff       	sbrs	r16, 7
    5c32:	05 c0       	rjmp	.+10     	; 0x5c3e <partition_open+0x5a>
    5c34:	80 91 15 02 	lds	r24, 0x0215
    5c38:	81 11       	cpse	r24, r1
    5c3a:	ed cf       	rjmp	.-38     	; 0x5c16 <partition_open+0x32>
    5c3c:	1d c0       	rjmp	.+58     	; 0x5c78 <partition_open+0x94>
    5c3e:	90 e1       	ldi	r25, 0x10	; 16
    5c40:	09 02       	muls	r16, r25
    5c42:	a0 01       	movw	r20, r0
    5c44:	11 24       	eor	r1, r1
    5c46:	42 54       	subi	r20, 0x42	; 66
    5c48:	5e 4f       	sbci	r21, 0xFE	; 254
    5c4a:	95 2f       	mov	r25, r21
    5c4c:	99 0f       	add	r25, r25
    5c4e:	99 0b       	sbc	r25, r25
    5c50:	80 e1       	ldi	r24, 0x10	; 16
    5c52:	e8 2e       	mov	r14, r24
    5c54:	f1 2c       	mov	r15, r1
    5c56:	8e 01       	movw	r16, r28
    5c58:	0f 5f       	subi	r16, 0xFF	; 255
    5c5a:	1f 4f       	sbci	r17, 0xFF	; 255
    5c5c:	9a 01       	movw	r18, r20
    5c5e:	49 2f       	mov	r20, r25
    5c60:	59 2f       	mov	r21, r25
    5c62:	69 2f       	mov	r22, r25
    5c64:	79 2f       	mov	r23, r25
    5c66:	89 2f       	mov	r24, r25
    5c68:	f6 01       	movw	r30, r12
    5c6a:	09 95       	icall
    5c6c:	88 23       	and	r24, r24
    5c6e:	99 f2       	breq	.-90     	; 0x5c16 <partition_open+0x32>
    5c70:	8d 81       	ldd	r24, Y+5	; 0x05
    5c72:	81 11       	cpse	r24, r1
    5c74:	df cf       	rjmp	.-66     	; 0x5c34 <partition_open+0x50>
    5c76:	cf cf       	rjmp	.-98     	; 0x5c16 <partition_open+0x32>
    5c78:	81 e1       	ldi	r24, 0x11	; 17
    5c7a:	ed e0       	ldi	r30, 0x0D	; 13
    5c7c:	f2 e0       	ldi	r31, 0x02	; 2
    5c7e:	df 01       	movw	r26, r30
    5c80:	1d 92       	st	X+, r1
    5c82:	8a 95       	dec	r24
    5c84:	e9 f7       	brne	.-6      	; 0x5c80 <partition_open+0x9c>
    5c86:	d0 92 0e 02 	sts	0x020E, r13
    5c8a:	c0 92 0d 02 	sts	0x020D, r12
    5c8e:	b0 92 10 02 	sts	0x0210, r11
    5c92:	a0 92 0f 02 	sts	0x020F, r10
    5c96:	70 92 12 02 	sts	0x0212, r7
    5c9a:	60 92 11 02 	sts	0x0211, r6
    5c9e:	90 92 14 02 	sts	0x0214, r9
    5ca2:	80 92 13 02 	sts	0x0213, r8
    5ca6:	57 fc       	sbrc	r5, 7
    5ca8:	1c c0       	rjmp	.+56     	; 0x5ce2 <partition_open+0xfe>
    5caa:	8d 81       	ldd	r24, Y+5	; 0x05
    5cac:	80 93 15 02 	sts	0x0215, r24
    5cb0:	ce 01       	movw	r24, r28
    5cb2:	09 96       	adiw	r24, 0x09	; 9
    5cb4:	0e 94 b7 05 	call	0xb6e	; 0xb6e <read32>
    5cb8:	60 93 16 02 	sts	0x0216, r22
    5cbc:	70 93 17 02 	sts	0x0217, r23
    5cc0:	80 93 18 02 	sts	0x0218, r24
    5cc4:	90 93 19 02 	sts	0x0219, r25
    5cc8:	ce 01       	movw	r24, r28
    5cca:	0d 96       	adiw	r24, 0x0d	; 13
    5ccc:	0e 94 b7 05 	call	0xb6e	; 0xb6e <read32>
    5cd0:	60 93 1a 02 	sts	0x021A, r22
    5cd4:	70 93 1b 02 	sts	0x021B, r23
    5cd8:	80 93 1c 02 	sts	0x021C, r24
    5cdc:	90 93 1d 02 	sts	0x021D, r25
    5ce0:	03 c0       	rjmp	.+6      	; 0x5ce8 <partition_open+0x104>
    5ce2:	8f ef       	ldi	r24, 0xFF	; 255
    5ce4:	80 93 15 02 	sts	0x0215, r24
    5ce8:	8d e0       	ldi	r24, 0x0D	; 13
    5cea:	92 e0       	ldi	r25, 0x02	; 2
    5cec:	60 96       	adiw	r28, 0x10	; 16
    5cee:	0f b6       	in	r0, 0x3f	; 63
    5cf0:	f8 94       	cli
    5cf2:	de bf       	out	0x3e, r29	; 62
    5cf4:	0f be       	out	0x3f, r0	; 63
    5cf6:	cd bf       	out	0x3d, r28	; 61
    5cf8:	df 91       	pop	r29
    5cfa:	cf 91       	pop	r28
    5cfc:	1f 91       	pop	r17
    5cfe:	0f 91       	pop	r16
    5d00:	ff 90       	pop	r15
    5d02:	ef 90       	pop	r14
    5d04:	df 90       	pop	r13
    5d06:	cf 90       	pop	r12
    5d08:	bf 90       	pop	r11
    5d0a:	af 90       	pop	r10
    5d0c:	9f 90       	pop	r9
    5d0e:	8f 90       	pop	r8
    5d10:	7f 90       	pop	r7
    5d12:	6f 90       	pop	r6
    5d14:	5f 90       	pop	r5
    5d16:	08 95       	ret

00005d18 <rfid_init>:
    5d18:	82 e4       	ldi	r24, 0x42	; 66
    5d1a:	84 bd       	out	0x24, r24	; 36
    5d1c:	81 e0       	ldi	r24, 0x01	; 1
    5d1e:	85 bd       	out	0x25, r24	; 37
    5d20:	8f e3       	ldi	r24, 0x3F	; 63
    5d22:	87 bd       	out	0x27, r24	; 39
    5d24:	56 9a       	sbi	0x0a, 6	; 10
    5d26:	3b 9a       	sbi	0x07, 3	; 7
    5d28:	3a 98       	cbi	0x07, 2	; 7
    5d2a:	43 9a       	sbi	0x08, 3	; 8
    5d2c:	08 95       	ret

00005d2e <rfid_write>:
    5d2e:	88 23       	and	r24, r24
    5d30:	31 f0       	breq	.+12     	; 0x5d3e <rfid_write+0x10>
    5d32:	87 ee       	ldi	r24, 0xE7	; 231
    5d34:	93 e0       	ldi	r25, 0x03	; 3
    5d36:	01 97       	sbiw	r24, 0x01	; 1
    5d38:	f1 f7       	brne	.-4      	; 0x5d36 <rfid_write+0x8>
    5d3a:	00 c0       	rjmp	.+0      	; 0x5d3c <rfid_write+0xe>
    5d3c:	00 00       	nop
    5d3e:	8f ec       	ldi	r24, 0xCF	; 207
    5d40:	92 e0       	ldi	r25, 0x02	; 2
    5d42:	01 97       	sbiw	r24, 0x01	; 1
    5d44:	f1 f7       	brne	.-4      	; 0x5d42 <rfid_write+0x14>
    5d46:	00 c0       	rjmp	.+0      	; 0x5d48 <rfid_write+0x1a>
    5d48:	00 00       	nop
    5d4a:	56 98       	cbi	0x0a, 6	; 10
    5d4c:	43 98       	cbi	0x08, 3	; 8
    5d4e:	8f e7       	ldi	r24, 0x7F	; 127
    5d50:	92 e0       	ldi	r25, 0x02	; 2
    5d52:	01 97       	sbiw	r24, 0x01	; 1
    5d54:	f1 f7       	brne	.-4      	; 0x5d52 <rfid_write+0x24>
    5d56:	00 c0       	rjmp	.+0      	; 0x5d58 <rfid_write+0x2a>
    5d58:	00 00       	nop
    5d5a:	56 9a       	sbi	0x0a, 6	; 10
    5d5c:	43 9a       	sbi	0x08, 3	; 8
    5d5e:	08 95       	ret

00005d60 <rfid_write_block>:
    5d60:	cf 92       	push	r12
    5d62:	df 92       	push	r13
    5d64:	ef 92       	push	r14
    5d66:	ff 92       	push	r15
    5d68:	1f 93       	push	r17
    5d6a:	cf 93       	push	r28
    5d6c:	df 93       	push	r29
    5d6e:	1f 92       	push	r1
    5d70:	cd b7       	in	r28, 0x3d	; 61
    5d72:	de b7       	in	r29, 0x3e	; 62
    5d74:	f8 2e       	mov	r15, r24
    5d76:	16 2f       	mov	r17, r22
    5d78:	56 98       	cbi	0x0a, 6	; 10
    5d7a:	43 98       	cbi	0x08, 3	; 8
    5d7c:	ef eb       	ldi	r30, 0xBF	; 191
    5d7e:	f3 e0       	ldi	r31, 0x03	; 3
    5d80:	31 97       	sbiw	r30, 0x01	; 1
    5d82:	f1 f7       	brne	.-4      	; 0x5d80 <rfid_write_block+0x20>
    5d84:	00 c0       	rjmp	.+0      	; 0x5d86 <rfid_write_block+0x26>
    5d86:	00 00       	nop
    5d88:	56 9a       	sbi	0x0a, 6	; 10
    5d8a:	43 9a       	sbi	0x08, 3	; 8
    5d8c:	81 e0       	ldi	r24, 0x01	; 1
    5d8e:	99 83       	std	Y+1, r25	; 0x01
    5d90:	0e 94 97 2e 	call	0x5d2e	; 0x5d2e <rfid_write>
    5d94:	80 e0       	ldi	r24, 0x00	; 0
    5d96:	0e 94 97 2e 	call	0x5d2e	; 0x5d2e <rfid_write>
    5d9a:	80 e0       	ldi	r24, 0x00	; 0
    5d9c:	0e 94 97 2e 	call	0x5d2e	; 0x5d2e <rfid_write>
    5da0:	cf 2c       	mov	r12, r15
    5da2:	99 81       	ldd	r25, Y+1	; 0x01
    5da4:	d9 2e       	mov	r13, r25
    5da6:	76 01       	movw	r14, r12
    5da8:	f0 e2       	ldi	r31, 0x20	; 32
    5daa:	ef 0e       	add	r14, r31
    5dac:	f1 1c       	adc	r15, r1
    5dae:	f6 01       	movw	r30, r12
    5db0:	81 91       	ld	r24, Z+
    5db2:	6f 01       	movw	r12, r30
    5db4:	0e 94 97 2e 	call	0x5d2e	; 0x5d2e <rfid_write>
    5db8:	ce 14       	cp	r12, r14
    5dba:	df 04       	cpc	r13, r15
    5dbc:	c1 f7       	brne	.-16     	; 0x5dae <rfid_write_block+0x4e>
    5dbe:	81 2f       	mov	r24, r17
    5dc0:	84 70       	andi	r24, 0x04	; 4
    5dc2:	0e 94 97 2e 	call	0x5d2e	; 0x5d2e <rfid_write>
    5dc6:	81 2f       	mov	r24, r17
    5dc8:	82 70       	andi	r24, 0x02	; 2
    5dca:	0e 94 97 2e 	call	0x5d2e	; 0x5d2e <rfid_write>
    5dce:	81 2f       	mov	r24, r17
    5dd0:	81 70       	andi	r24, 0x01	; 1
    5dd2:	0e 94 97 2e 	call	0x5d2e	; 0x5d2e <rfid_write>
    5dd6:	ff ef       	ldi	r31, 0xFF	; 255
    5dd8:	26 e7       	ldi	r18, 0x76	; 118
    5dda:	81 e0       	ldi	r24, 0x01	; 1
    5ddc:	f1 50       	subi	r31, 0x01	; 1
    5dde:	20 40       	sbci	r18, 0x00	; 0
    5de0:	80 40       	sbci	r24, 0x00	; 0
    5de2:	e1 f7       	brne	.-8      	; 0x5ddc <rfid_write_block+0x7c>
    5de4:	00 c0       	rjmp	.+0      	; 0x5de6 <rfid_write_block+0x86>
    5de6:	00 00       	nop
    5de8:	0f 90       	pop	r0
    5dea:	df 91       	pop	r29
    5dec:	cf 91       	pop	r28
    5dee:	1f 91       	pop	r17
    5df0:	ff 90       	pop	r15
    5df2:	ef 90       	pop	r14
    5df4:	df 90       	pop	r13
    5df6:	cf 90       	pop	r12
    5df8:	08 95       	ret

00005dfa <rfid_encode>:
    5dfa:	af 92       	push	r10
    5dfc:	bf 92       	push	r11
    5dfe:	cf 92       	push	r12
    5e00:	df 92       	push	r13
    5e02:	ef 92       	push	r14
    5e04:	ff 92       	push	r15
    5e06:	0f 93       	push	r16
    5e08:	1f 93       	push	r17
    5e0a:	cf 93       	push	r28
    5e0c:	df 93       	push	r29
    5e0e:	e4 ee       	ldi	r30, 0xE4	; 228
    5e10:	f4 e0       	ldi	r31, 0x04	; 4
    5e12:	31 e0       	ldi	r19, 0x01	; 1
    5e14:	29 e0       	ldi	r18, 0x09	; 9
    5e16:	2e 0f       	add	r18, r30
    5e18:	31 93       	st	Z+, r19
    5e1a:	2e 13       	cpse	r18, r30
    5e1c:	fd cf       	rjmp	.-6      	; 0x5e18 <rfid_encode+0x1e>
    5e1e:	e0 e0       	ldi	r30, 0x00	; 0
    5e20:	f0 e0       	ldi	r31, 0x00	; 0
    5e22:	60 e0       	ldi	r22, 0x00	; 0
    5e24:	70 e0       	ldi	r23, 0x00	; 0
    5e26:	d0 e8       	ldi	r29, 0x80	; 128
    5e28:	ad 2e       	mov	r10, r29
    5e2a:	b1 2c       	mov	r11, r1
    5e2c:	ee 24       	eor	r14, r14
    5e2e:	e3 94       	inc	r14
    5e30:	40 e0       	ldi	r20, 0x00	; 0
    5e32:	50 e0       	ldi	r21, 0x00	; 0
    5e34:	f1 2c       	mov	r15, r1
    5e36:	db 01       	movw	r26, r22
    5e38:	ac 51       	subi	r26, 0x1C	; 28
    5e3a:	bb 4f       	sbci	r27, 0xFB	; 251
    5e3c:	9a 01       	movw	r18, r20
    5e3e:	2e 0f       	add	r18, r30
    5e40:	3f 1f       	adc	r19, r31
    5e42:	89 01       	movw	r16, r18
    5e44:	37 ff       	sbrs	r19, 7
    5e46:	02 c0       	rjmp	.+4      	; 0x5e4c <rfid_encode+0x52>
    5e48:	09 5f       	subi	r16, 0xF9	; 249
    5e4a:	1f 4f       	sbci	r17, 0xFF	; 255
    5e4c:	c3 e0       	ldi	r28, 0x03	; 3
    5e4e:	15 95       	asr	r17
    5e50:	07 95       	ror	r16
    5e52:	ca 95       	dec	r28
    5e54:	e1 f7       	brne	.-8      	; 0x5e4e <rfid_encode+0x54>
    5e56:	6c 01       	movw	r12, r24
    5e58:	c0 1a       	sub	r12, r16
    5e5a:	d1 0a       	sbc	r13, r17
    5e5c:	27 70       	andi	r18, 0x07	; 7
    5e5e:	33 27       	eor	r19, r19
    5e60:	e5 01       	movw	r28, r10
    5e62:	02 c0       	rjmp	.+4      	; 0x5e68 <rfid_encode+0x6e>
    5e64:	d5 95       	asr	r29
    5e66:	c7 95       	ror	r28
    5e68:	2a 95       	dec	r18
    5e6a:	e2 f7       	brpl	.-8      	; 0x5e64 <rfid_encode+0x6a>
    5e6c:	9e 01       	movw	r18, r28
    5e6e:	e6 01       	movw	r28, r12
    5e70:	3d 81       	ldd	r19, Y+5	; 0x05
    5e72:	23 23       	and	r18, r19
    5e74:	8d 01       	movw	r16, r26
    5e76:	04 0f       	add	r16, r20
    5e78:	15 1f       	adc	r17, r21
    5e7a:	e8 01       	movw	r28, r16
    5e7c:	29 87       	std	Y+9, r18	; 0x09
    5e7e:	21 11       	cpse	r18, r1
    5e80:	fe 24       	eor	r15, r14
    5e82:	4f 5f       	subi	r20, 0xFF	; 255
    5e84:	5f 4f       	sbci	r21, 0xFF	; 255
    5e86:	44 30       	cpi	r20, 0x04	; 4
    5e88:	51 05       	cpc	r21, r1
    5e8a:	c1 f6       	brne	.-80     	; 0x5e3c <rfid_encode+0x42>
    5e8c:	1d 96       	adiw	r26, 0x0d	; 13
    5e8e:	fc 92       	st	X, r15
    5e90:	6b 5f       	subi	r22, 0xFB	; 251
    5e92:	7f 4f       	sbci	r23, 0xFF	; 255
    5e94:	34 96       	adiw	r30, 0x04	; 4
    5e96:	62 33       	cpi	r22, 0x32	; 50
    5e98:	71 05       	cpc	r23, r1
    5e9a:	51 f6       	brne	.-108    	; 0x5e30 <rfid_encode+0x36>
    5e9c:	ef e1       	ldi	r30, 0x1F	; 31
    5e9e:	f5 e0       	ldi	r31, 0x05	; 5
    5ea0:	31 e0       	ldi	r19, 0x01	; 1
    5ea2:	64 e0       	ldi	r22, 0x04	; 4
    5ea4:	6e 0f       	add	r22, r30
    5ea6:	80 e0       	ldi	r24, 0x00	; 0
    5ea8:	90 e0       	ldi	r25, 0x00	; 0
    5eaa:	20 e0       	ldi	r18, 0x00	; 0
    5eac:	af 01       	movw	r20, r30
    5eae:	4b 53       	subi	r20, 0x3B	; 59
    5eb0:	51 09       	sbc	r21, r1
    5eb2:	da 01       	movw	r26, r20
    5eb4:	a8 0f       	add	r26, r24
    5eb6:	b9 1f       	adc	r27, r25
    5eb8:	19 96       	adiw	r26, 0x09	; 9
    5eba:	7c 91       	ld	r23, X
    5ebc:	71 11       	cpse	r23, r1
    5ebe:	23 27       	eor	r18, r19
    5ec0:	05 96       	adiw	r24, 0x05	; 5
    5ec2:	82 33       	cpi	r24, 0x32	; 50
    5ec4:	91 05       	cpc	r25, r1
    5ec6:	a9 f7       	brne	.-22     	; 0x5eb2 <rfid_encode+0xb8>
    5ec8:	21 93       	st	Z+, r18
    5eca:	6e 13       	cpse	r22, r30
    5ecc:	ec cf       	rjmp	.-40     	; 0x5ea6 <rfid_encode+0xac>
    5ece:	10 92 23 05 	sts	0x0523, r1
    5ed2:	df 91       	pop	r29
    5ed4:	cf 91       	pop	r28
    5ed6:	1f 91       	pop	r17
    5ed8:	0f 91       	pop	r16
    5eda:	ff 90       	pop	r15
    5edc:	ef 90       	pop	r14
    5ede:	df 90       	pop	r13
    5ee0:	cf 90       	pop	r12
    5ee2:	bf 90       	pop	r11
    5ee4:	af 90       	pop	r10
    5ee6:	08 95       	ret

00005ee8 <rfid_config>:
    5ee8:	cf 93       	push	r28
    5eea:	df 93       	push	r29
    5eec:	00 d0       	rcall	.+0      	; 0x5eee <rfid_config+0x6>
    5eee:	00 d0       	rcall	.+0      	; 0x5ef0 <rfid_config+0x8>
    5ef0:	cd b7       	in	r28, 0x3d	; 61
    5ef2:	de b7       	in	r29, 0x3e	; 62
    5ef4:	19 82       	std	Y+1, r1	; 0x01
    5ef6:	84 e1       	ldi	r24, 0x14	; 20
    5ef8:	8a 83       	std	Y+2, r24	; 0x02
    5efa:	80 e8       	ldi	r24, 0x80	; 128
    5efc:	8b 83       	std	Y+3, r24	; 0x03
    5efe:	80 e4       	ldi	r24, 0x40	; 64
    5f00:	8c 83       	std	Y+4, r24	; 0x04
    5f02:	e4 ee       	ldi	r30, 0xE4	; 228
    5f04:	f4 e0       	ldi	r31, 0x04	; 4
    5f06:	80 e0       	ldi	r24, 0x00	; 0
    5f08:	60 e8       	ldi	r22, 0x80	; 128
    5f0a:	70 e0       	ldi	r23, 0x00	; 0
    5f0c:	91 e0       	ldi	r25, 0x01	; 1
    5f0e:	28 2f       	mov	r18, r24
    5f10:	26 95       	lsr	r18
    5f12:	26 95       	lsr	r18
    5f14:	26 95       	lsr	r18
    5f16:	a1 e0       	ldi	r26, 0x01	; 1
    5f18:	b0 e0       	ldi	r27, 0x00	; 0
    5f1a:	ac 0f       	add	r26, r28
    5f1c:	bd 1f       	adc	r27, r29
    5f1e:	a2 0f       	add	r26, r18
    5f20:	b1 1d       	adc	r27, r1
    5f22:	2c 91       	ld	r18, X
    5f24:	42 2f       	mov	r20, r18
    5f26:	50 e0       	ldi	r21, 0x00	; 0
    5f28:	28 2f       	mov	r18, r24
    5f2a:	27 70       	andi	r18, 0x07	; 7
    5f2c:	db 01       	movw	r26, r22
    5f2e:	02 c0       	rjmp	.+4      	; 0x5f34 <rfid_config+0x4c>
    5f30:	b5 95       	asr	r27
    5f32:	a7 95       	ror	r26
    5f34:	2a 95       	dec	r18
    5f36:	e2 f7       	brpl	.-8      	; 0x5f30 <rfid_config+0x48>
    5f38:	9d 01       	movw	r18, r26
    5f3a:	24 23       	and	r18, r20
    5f3c:	35 23       	and	r19, r21
    5f3e:	23 2b       	or	r18, r19
    5f40:	11 f0       	breq	.+4      	; 0x5f46 <rfid_config+0x5e>
    5f42:	90 83       	st	Z, r25
    5f44:	01 c0       	rjmp	.+2      	; 0x5f48 <rfid_config+0x60>
    5f46:	10 82       	st	Z, r1
    5f48:	8f 5f       	subi	r24, 0xFF	; 255
    5f4a:	31 96       	adiw	r30, 0x01	; 1
    5f4c:	80 32       	cpi	r24, 0x20	; 32
    5f4e:	f9 f6       	brne	.-66     	; 0x5f0e <rfid_config+0x26>
    5f50:	0f 90       	pop	r0
    5f52:	0f 90       	pop	r0
    5f54:	0f 90       	pop	r0
    5f56:	0f 90       	pop	r0
    5f58:	df 91       	pop	r29
    5f5a:	cf 91       	pop	r28
    5f5c:	08 95       	ret

00005f5e <rfid_in>:
    5f5e:	20 91 79 00 	lds	r18, 0x0079
    5f62:	81 e0       	ldi	r24, 0x01	; 1
    5f64:	90 91 4c 05 	lds	r25, 0x054C
    5f68:	92 17       	cp	r25, r18
    5f6a:	08 f0       	brcs	.+2      	; 0x5f6e <rfid_in+0x10>
    5f6c:	80 e0       	ldi	r24, 0x00	; 0
    5f6e:	08 95       	ret

00005f70 <rfid_decode>:
    5f70:	cf 92       	push	r12
    5f72:	df 92       	push	r13
    5f74:	ef 92       	push	r14
    5f76:	ff 92       	push	r15
    5f78:	0f 93       	push	r16
    5f7a:	1f 93       	push	r17
    5f7c:	cf 93       	push	r28
    5f7e:	df 93       	push	r29
    5f80:	e0 e0       	ldi	r30, 0x00	; 0
    5f82:	f0 e0       	ldi	r31, 0x00	; 0
    5f84:	61 e0       	ldi	r22, 0x01	; 1
    5f86:	70 e0       	ldi	r23, 0x00	; 0
    5f88:	a0 e0       	ldi	r26, 0x00	; 0
    5f8a:	d1 2c       	mov	r13, r1
    5f8c:	b0 e0       	ldi	r27, 0x00	; 0
    5f8e:	cf 01       	movw	r24, r30
    5f90:	23 e0       	ldi	r18, 0x03	; 3
    5f92:	96 95       	lsr	r25
    5f94:	87 95       	ror	r24
    5f96:	2a 95       	dec	r18
    5f98:	e1 f7       	brne	.-8      	; 0x5f92 <rfid_decode+0x22>
    5f9a:	8c 5d       	subi	r24, 0xDC	; 220
    5f9c:	9a 4f       	sbci	r25, 0xFA	; 250
    5f9e:	ec 01       	movw	r28, r24
    5fa0:	88 81       	ld	r24, Y
    5fa2:	90 e0       	ldi	r25, 0x00	; 0
    5fa4:	9f 01       	movw	r18, r30
    5fa6:	27 70       	andi	r18, 0x07	; 7
    5fa8:	33 27       	eor	r19, r19
    5faa:	02 c0       	rjmp	.+4      	; 0x5fb0 <rfid_decode+0x40>
    5fac:	95 95       	asr	r25
    5fae:	87 95       	ror	r24
    5fb0:	2a 95       	dec	r18
    5fb2:	e2 f7       	brpl	.-8      	; 0x5fac <rfid_decode+0x3c>
    5fb4:	81 70       	andi	r24, 0x01	; 1
    5fb6:	99 27       	eor	r25, r25
    5fb8:	9b 01       	movw	r18, r22
    5fba:	43 e0       	ldi	r20, 0x03	; 3
    5fbc:	36 95       	lsr	r19
    5fbe:	27 95       	ror	r18
    5fc0:	4a 95       	dec	r20
    5fc2:	e1 f7       	brne	.-8      	; 0x5fbc <rfid_decode+0x4c>
    5fc4:	2c 5d       	subi	r18, 0xDC	; 220
    5fc6:	3a 4f       	sbci	r19, 0xFA	; 250
    5fc8:	e9 01       	movw	r28, r18
    5fca:	48 81       	ld	r20, Y
    5fcc:	50 e0       	ldi	r21, 0x00	; 0
    5fce:	9b 01       	movw	r18, r22
    5fd0:	27 70       	andi	r18, 0x07	; 7
    5fd2:	33 27       	eor	r19, r19
    5fd4:	02 c0       	rjmp	.+4      	; 0x5fda <rfid_decode+0x6a>
    5fd6:	55 95       	asr	r21
    5fd8:	47 95       	ror	r20
    5fda:	2a 95       	dec	r18
    5fdc:	e2 f7       	brpl	.-8      	; 0x5fd6 <rfid_decode+0x66>
    5fde:	41 70       	andi	r20, 0x01	; 1
    5fe0:	55 27       	eor	r21, r21
    5fe2:	6f 5f       	subi	r22, 0xFF	; 255
    5fe4:	7f 4f       	sbci	r23, 0xFF	; 255
    5fe6:	9b 01       	movw	r18, r22
    5fe8:	c3 e0       	ldi	r28, 0x03	; 3
    5fea:	36 95       	lsr	r19
    5fec:	27 95       	ror	r18
    5fee:	ca 95       	dec	r28
    5ff0:	e1 f7       	brne	.-8      	; 0x5fea <rfid_decode+0x7a>
    5ff2:	2c 5d       	subi	r18, 0xDC	; 220
    5ff4:	3a 4f       	sbci	r19, 0xFA	; 250
    5ff6:	e9 01       	movw	r28, r18
    5ff8:	28 81       	ld	r18, Y
    5ffa:	30 e0       	ldi	r19, 0x00	; 0
    5ffc:	7b 01       	movw	r14, r22
    5ffe:	d7 e0       	ldi	r29, 0x07	; 7
    6000:	ed 22       	and	r14, r29
    6002:	ff 24       	eor	r15, r15
    6004:	02 c0       	rjmp	.+4      	; 0x600a <rfid_decode+0x9a>
    6006:	35 95       	asr	r19
    6008:	27 95       	ror	r18
    600a:	ea 94       	dec	r14
    600c:	e2 f7       	brpl	.-8      	; 0x6006 <rfid_decode+0x96>
    600e:	21 70       	andi	r18, 0x01	; 1
    6010:	33 27       	eor	r19, r19
    6012:	41 15       	cp	r20, r1
    6014:	51 05       	cpc	r21, r1
    6016:	19 f4       	brne	.+6      	; 0x601e <rfid_decode+0xae>
    6018:	89 2b       	or	r24, r25
    601a:	c9 f4       	brne	.+50     	; 0x604e <rfid_decode+0xde>
    601c:	22 c0       	rjmp	.+68     	; 0x6062 <rfid_decode+0xf2>
    601e:	21 30       	cpi	r18, 0x01	; 1
    6020:	b1 f0       	breq	.+44     	; 0x604e <rfid_decode+0xde>
    6022:	84 13       	cpse	r24, r20
    6024:	01 c0       	rjmp	.+2      	; 0x6028 <rfid_decode+0xb8>
    6026:	a8 2f       	mov	r26, r24
    6028:	8b 2f       	mov	r24, r27
    602a:	90 e0       	ldi	r25, 0x00	; 0
    602c:	8c 51       	subi	r24, 0x1C	; 28
    602e:	9b 4f       	sbci	r25, 0xFB	; 251
    6030:	ec 01       	movw	r28, r24
    6032:	a8 83       	st	Y, r26
    6034:	bf 5f       	subi	r27, 0xFF	; 255
    6036:	b0 34       	cpi	r27, 0x40	; 64
    6038:	90 f4       	brcc	.+36     	; 0x605e <rfid_decode+0xee>
    603a:	d8 e0       	ldi	r29, 0x08	; 8
    603c:	dd 15       	cp	r29, r13
    603e:	38 f0       	brcs	.+14     	; 0x604e <rfid_decode+0xde>
    6040:	a1 30       	cpi	r26, 0x01	; 1
    6042:	11 f4       	brne	.+4      	; 0x6048 <rfid_decode+0xd8>
    6044:	d3 94       	inc	r13
    6046:	03 c0       	rjmp	.+6      	; 0x604e <rfid_decode+0xde>
    6048:	a0 e0       	ldi	r26, 0x00	; 0
    604a:	d1 2c       	mov	r13, r1
    604c:	b0 e0       	ldi	r27, 0x00	; 0
    604e:	31 96       	adiw	r30, 0x01	; 1
    6050:	6f 33       	cpi	r22, 0x3F	; 63
    6052:	81 e0       	ldi	r24, 0x01	; 1
    6054:	78 07       	cpc	r23, r24
    6056:	09 f0       	breq	.+2      	; 0x605a <rfid_decode+0xea>
    6058:	9a cf       	rjmp	.-204    	; 0x5f8e <rfid_decode+0x1e>
    605a:	82 e0       	ldi	r24, 0x02	; 2
    605c:	06 c0       	rjmp	.+12     	; 0x606a <rfid_decode+0xfa>
    605e:	80 e0       	ldi	r24, 0x00	; 0
    6060:	04 c0       	rjmp	.+8      	; 0x606a <rfid_decode+0xfa>
    6062:	23 2b       	or	r18, r19
    6064:	a1 f3       	breq	.-24     	; 0x604e <rfid_decode+0xde>
    6066:	a0 e0       	ldi	r26, 0x00	; 0
    6068:	df cf       	rjmp	.-66     	; 0x6028 <rfid_decode+0xb8>
    606a:	df 91       	pop	r29
    606c:	cf 91       	pop	r28
    606e:	1f 91       	pop	r17
    6070:	0f 91       	pop	r16
    6072:	ff 90       	pop	r15
    6074:	ef 90       	pop	r14
    6076:	df 90       	pop	r13
    6078:	cf 90       	pop	r12
    607a:	08 95       	ret

0000607c <rfid_check>:
    607c:	80 e0       	ldi	r24, 0x00	; 0
    607e:	90 e0       	ldi	r25, 0x00	; 0
    6080:	20 e0       	ldi	r18, 0x00	; 0
    6082:	30 e0       	ldi	r19, 0x00	; 0
    6084:	40 e0       	ldi	r20, 0x00	; 0
    6086:	fc 01       	movw	r30, r24
    6088:	ec 51       	subi	r30, 0x1C	; 28
    608a:	fb 4f       	sbci	r31, 0xFB	; 251
    608c:	df 01       	movw	r26, r30
    608e:	a2 0f       	add	r26, r18
    6090:	b3 1f       	adc	r27, r19
    6092:	19 96       	adiw	r26, 0x09	; 9
    6094:	5c 91       	ld	r21, X
    6096:	45 27       	eor	r20, r21
    6098:	2f 5f       	subi	r18, 0xFF	; 255
    609a:	3f 4f       	sbci	r19, 0xFF	; 255
    609c:	24 30       	cpi	r18, 0x04	; 4
    609e:	31 05       	cpc	r19, r1
    60a0:	a9 f7       	brne	.-22     	; 0x608c <rfid_check+0x10>
    60a2:	25 85       	ldd	r18, Z+13	; 0x0d
    60a4:	24 13       	cpse	r18, r20
    60a6:	22 c0       	rjmp	.+68     	; 0x60ec <rfid_check+0x70>
    60a8:	05 96       	adiw	r24, 0x05	; 5
    60aa:	82 33       	cpi	r24, 0x32	; 50
    60ac:	91 05       	cpc	r25, r1
    60ae:	41 f7       	brne	.-48     	; 0x6080 <rfid_check+0x4>
    60b0:	ef e1       	ldi	r30, 0x1F	; 31
    60b2:	f5 e0       	ldi	r31, 0x05	; 5
    60b4:	34 e0       	ldi	r19, 0x04	; 4
    60b6:	3e 0f       	add	r19, r30
    60b8:	80 e0       	ldi	r24, 0x00	; 0
    60ba:	90 e0       	ldi	r25, 0x00	; 0
    60bc:	20 e0       	ldi	r18, 0x00	; 0
    60be:	af 01       	movw	r20, r30
    60c0:	4b 53       	subi	r20, 0x3B	; 59
    60c2:	51 09       	sbc	r21, r1
    60c4:	da 01       	movw	r26, r20
    60c6:	a8 0f       	add	r26, r24
    60c8:	b9 1f       	adc	r27, r25
    60ca:	19 96       	adiw	r26, 0x09	; 9
    60cc:	6c 91       	ld	r22, X
    60ce:	26 27       	eor	r18, r22
    60d0:	05 96       	adiw	r24, 0x05	; 5
    60d2:	82 33       	cpi	r24, 0x32	; 50
    60d4:	91 05       	cpc	r25, r1
    60d6:	b1 f7       	brne	.-20     	; 0x60c4 <rfid_check+0x48>
    60d8:	81 91       	ld	r24, Z+
    60da:	82 13       	cpse	r24, r18
    60dc:	07 c0       	rjmp	.+14     	; 0x60ec <rfid_check+0x70>
    60de:	3e 13       	cpse	r19, r30
    60e0:	eb cf       	rjmp	.-42     	; 0x60b8 <rfid_check+0x3c>
    60e2:	80 91 23 05 	lds	r24, 0x0523
    60e6:	81 11       	cpse	r24, r1
    60e8:	01 c0       	rjmp	.+2      	; 0x60ec <rfid_check+0x70>
    60ea:	08 95       	ret
    60ec:	82 e0       	ldi	r24, 0x02	; 2
    60ee:	08 95       	ret

000060f0 <rfid_read>:
    60f0:	cf 92       	push	r12
    60f2:	df 92       	push	r13
    60f4:	ff 92       	push	r15
    60f6:	0f 93       	push	r16
    60f8:	1f 93       	push	r17
    60fa:	cf 93       	push	r28
    60fc:	df 93       	push	r29
    60fe:	1f 92       	push	r1
    6100:	cd b7       	in	r28, 0x3d	; 61
    6102:	de b7       	in	r29, 0x3e	; 62
    6104:	8c 01       	movw	r16, r24
    6106:	82 e6       	ldi	r24, 0x62	; 98
    6108:	80 93 7c 00 	sts	0x007C, r24
    610c:	24 e6       	ldi	r18, 0x64	; 100
    610e:	80 e0       	ldi	r24, 0x00	; 0
    6110:	90 e0       	ldi	r25, 0x00	; 0
    6112:	30 91 79 00 	lds	r19, 0x0079
    6116:	83 0f       	add	r24, r19
    6118:	91 1d       	adc	r25, r1
    611a:	3a e6       	ldi	r19, 0x6A	; 106
    611c:	3a 95       	dec	r19
    611e:	f1 f7       	brne	.-4      	; 0x611c <rfid_read+0x2c>
    6120:	00 c0       	rjmp	.+0      	; 0x6122 <rfid_read+0x32>
    6122:	21 50       	subi	r18, 0x01	; 1
    6124:	b1 f7       	brne	.-20     	; 0x6112 <rfid_read+0x22>
    6126:	64 e6       	ldi	r22, 0x64	; 100
    6128:	70 e0       	ldi	r23, 0x00	; 0
    612a:	0e 94 43 37 	call	0x6e86	; 0x6e86 <__udivmodhi4>
    612e:	60 93 4c 05 	sts	0x054C, r22
    6132:	e4 e2       	ldi	r30, 0x24	; 36
    6134:	f5 e0       	ldi	r31, 0x05	; 5
    6136:	88 e2       	ldi	r24, 0x28	; 40
    6138:	8e 0f       	add	r24, r30
    613a:	11 92       	st	Z+, r1
    613c:	8e 13       	cpse	r24, r30
    613e:	fd cf       	rjmp	.-6      	; 0x613a <rfid_read+0x4a>
    6140:	c1 2c       	mov	r12, r1
    6142:	d1 2c       	mov	r13, r1
    6144:	0e 94 af 2f 	call	0x5f5e	; 0x5f5e <rfid_in>
    6148:	f8 2e       	mov	r15, r24
    614a:	95 e0       	ldi	r25, 0x05	; 5
    614c:	65 e3       	ldi	r22, 0x35	; 53
    614e:	6a 95       	dec	r22
    6150:	f1 f7       	brne	.-4      	; 0x614e <rfid_read+0x5e>
    6152:	00 00       	nop
    6154:	99 83       	std	Y+1, r25	; 0x01
    6156:	0e 94 af 2f 	call	0x5f5e	; 0x5f5e <rfid_in>
    615a:	99 81       	ldd	r25, Y+1	; 0x01
    615c:	f8 16       	cp	r15, r24
    615e:	39 f0       	breq	.+14     	; 0x616e <rfid_read+0x7e>
    6160:	e7 ec       	ldi	r30, 0xC7	; 199
    6162:	f0 e0       	ldi	r31, 0x00	; 0
    6164:	31 97       	sbiw	r30, 0x01	; 1
    6166:	f1 f7       	brne	.-4      	; 0x6164 <rfid_read+0x74>
    6168:	00 c0       	rjmp	.+0      	; 0x616a <rfid_read+0x7a>
    616a:	00 00       	nop
    616c:	03 c0       	rjmp	.+6      	; 0x6174 <rfid_read+0x84>
    616e:	9f 5f       	subi	r25, 0xFF	; 255
    6170:	96 34       	cpi	r25, 0x46	; 70
    6172:	61 f7       	brne	.-40     	; 0x614c <rfid_read+0x5c>
    6174:	87 ef       	ldi	r24, 0xF7	; 247
    6176:	89 0f       	add	r24, r25
    6178:	88 33       	cpi	r24, 0x38	; 56
    617a:	08 f0       	brcs	.+2      	; 0x617e <rfid_read+0x8e>
    617c:	70 c0       	rjmp	.+224    	; 0x625e <rfid_read+0x16e>
    617e:	2f 2d       	mov	r18, r15
    6180:	30 e0       	ldi	r19, 0x00	; 0
    6182:	f6 01       	movw	r30, r12
    6184:	43 e0       	ldi	r20, 0x03	; 3
    6186:	f6 95       	lsr	r31
    6188:	e7 95       	ror	r30
    618a:	4a 95       	dec	r20
    618c:	e1 f7       	brne	.-8      	; 0x6186 <rfid_read+0x96>
    618e:	ec 5d       	subi	r30, 0xDC	; 220
    6190:	fa 4f       	sbci	r31, 0xFA	; 250
    6192:	a6 01       	movw	r20, r12
    6194:	47 70       	andi	r20, 0x07	; 7
    6196:	55 27       	eor	r21, r21
    6198:	b9 01       	movw	r22, r18
    619a:	02 c0       	rjmp	.+4      	; 0x61a0 <rfid_read+0xb0>
    619c:	66 0f       	add	r22, r22
    619e:	77 1f       	adc	r23, r23
    61a0:	4a 95       	dec	r20
    61a2:	e2 f7       	brpl	.-8      	; 0x619c <rfid_read+0xac>
    61a4:	ab 01       	movw	r20, r22
    61a6:	80 81       	ld	r24, Z
    61a8:	48 2b       	or	r20, r24
    61aa:	40 83       	st	Z, r20
    61ac:	96 32       	cpi	r25, 0x26	; 38
    61ae:	a8 f0       	brcs	.+42     	; 0x61da <rfid_read+0xea>
    61b0:	7f ef       	ldi	r23, 0xFF	; 255
    61b2:	c7 1a       	sub	r12, r23
    61b4:	d7 0a       	sbc	r13, r23
    61b6:	f6 01       	movw	r30, r12
    61b8:	83 e0       	ldi	r24, 0x03	; 3
    61ba:	f6 95       	lsr	r31
    61bc:	e7 95       	ror	r30
    61be:	8a 95       	dec	r24
    61c0:	e1 f7       	brne	.-8      	; 0x61ba <rfid_read+0xca>
    61c2:	ec 5d       	subi	r30, 0xDC	; 220
    61c4:	fa 4f       	sbci	r31, 0xFA	; 250
    61c6:	c6 01       	movw	r24, r12
    61c8:	87 70       	andi	r24, 0x07	; 7
    61ca:	99 27       	eor	r25, r25
    61cc:	01 c0       	rjmp	.+2      	; 0x61d0 <rfid_read+0xe0>
    61ce:	22 0f       	add	r18, r18
    61d0:	8a 95       	dec	r24
    61d2:	ea f7       	brpl	.-6      	; 0x61ce <rfid_read+0xde>
    61d4:	80 81       	ld	r24, Z
    61d6:	28 2b       	or	r18, r24
    61d8:	20 83       	st	Z, r18
    61da:	8f ef       	ldi	r24, 0xFF	; 255
    61dc:	c8 1a       	sub	r12, r24
    61de:	d8 0a       	sbc	r13, r24
    61e0:	90 e4       	ldi	r25, 0x40	; 64
    61e2:	c9 16       	cp	r12, r25
    61e4:	91 e0       	ldi	r25, 0x01	; 1
    61e6:	d9 06       	cpc	r13, r25
    61e8:	08 f4       	brcc	.+2      	; 0x61ec <rfid_read+0xfc>
    61ea:	ac cf       	rjmp	.-168    	; 0x6144 <rfid_read+0x54>
    61ec:	0e 94 b8 2f 	call	0x5f70	; 0x5f70 <rfid_decode>
    61f0:	81 11       	cpse	r24, r1
    61f2:	37 c0       	rjmp	.+110    	; 0x6262 <rfid_read+0x172>
    61f4:	0e 94 3e 30 	call	0x607c	; 0x607c <rfid_check>
    61f8:	81 11       	cpse	r24, r1
    61fa:	33 c0       	rjmp	.+102    	; 0x6262 <rfid_read+0x172>
    61fc:	f8 01       	movw	r30, r16
    61fe:	10 82       	st	Z, r1
    6200:	36 96       	adiw	r30, 0x06	; 6
    6202:	60 e0       	ldi	r22, 0x00	; 0
    6204:	70 e0       	ldi	r23, 0x00	; 0
    6206:	12 92       	st	-Z, r1
    6208:	db 01       	movw	r26, r22
    620a:	a3 51       	subi	r26, 0x13	; 19
    620c:	bb 4f       	sbci	r27, 0xFB	; 251
    620e:	27 e0       	ldi	r18, 0x07	; 7
    6210:	30 e0       	ldi	r19, 0x00	; 0
    6212:	4d 91       	ld	r20, X+
    6214:	02 2e       	mov	r0, r18
    6216:	01 c0       	rjmp	.+2      	; 0x621a <rfid_read+0x12a>
    6218:	44 0f       	add	r20, r20
    621a:	0a 94       	dec	r0
    621c:	ea f7       	brpl	.-6      	; 0x6218 <rfid_read+0x128>
    621e:	90 81       	ld	r25, Z
    6220:	49 2b       	or	r20, r25
    6222:	40 83       	st	Z, r20
    6224:	21 50       	subi	r18, 0x01	; 1
    6226:	31 09       	sbc	r19, r1
    6228:	23 30       	cpi	r18, 0x03	; 3
    622a:	31 05       	cpc	r19, r1
    622c:	91 f7       	brne	.-28     	; 0x6212 <rfid_read+0x122>
    622e:	db 01       	movw	r26, r22
    6230:	ae 50       	subi	r26, 0x0E	; 14
    6232:	bb 4f       	sbci	r27, 0xFB	; 251
    6234:	4d 91       	ld	r20, X+
    6236:	02 2e       	mov	r0, r18
    6238:	01 c0       	rjmp	.+2      	; 0x623c <rfid_read+0x14c>
    623a:	44 0f       	add	r20, r20
    623c:	0a 94       	dec	r0
    623e:	ea f7       	brpl	.-6      	; 0x623a <rfid_read+0x14a>
    6240:	90 81       	ld	r25, Z
    6242:	49 2b       	or	r20, r25
    6244:	40 83       	st	Z, r20
    6246:	21 50       	subi	r18, 0x01	; 1
    6248:	31 09       	sbc	r19, r1
    624a:	a0 f7       	brcc	.-24     	; 0x6234 <rfid_read+0x144>
    624c:	66 5f       	subi	r22, 0xF6	; 246
    624e:	7f 4f       	sbci	r23, 0xFF	; 255
    6250:	62 33       	cpi	r22, 0x32	; 50
    6252:	71 05       	cpc	r23, r1
    6254:	c1 f6       	brne	.-80     	; 0x6206 <rfid_read+0x116>
    6256:	f8 01       	movw	r30, r16
    6258:	16 82       	std	Z+6, r1	; 0x06
    625a:	17 82       	std	Z+7, r1	; 0x07
    625c:	03 c0       	rjmp	.+6      	; 0x6264 <rfid_read+0x174>
    625e:	81 e0       	ldi	r24, 0x01	; 1
    6260:	01 c0       	rjmp	.+2      	; 0x6264 <rfid_read+0x174>
    6262:	82 e0       	ldi	r24, 0x02	; 2
    6264:	0f 90       	pop	r0
    6266:	df 91       	pop	r29
    6268:	cf 91       	pop	r28
    626a:	1f 91       	pop	r17
    626c:	0f 91       	pop	r16
    626e:	ff 90       	pop	r15
    6270:	df 90       	pop	r13
    6272:	cf 90       	pop	r12
    6274:	08 95       	ret

00006276 <rfid_force_read>:
    6276:	0f 93       	push	r16
    6278:	1f 93       	push	r17
    627a:	cf 93       	push	r28
    627c:	8c 01       	movw	r16, r24
    627e:	c0 e1       	ldi	r28, 0x10	; 16
    6280:	c8 01       	movw	r24, r16
    6282:	0e 94 78 30 	call	0x60f0	; 0x60f0 <rfid_read>
    6286:	88 23       	and	r24, r24
    6288:	11 f0       	breq	.+4      	; 0x628e <rfid_force_read+0x18>
    628a:	c1 50       	subi	r28, 0x01	; 1
    628c:	c9 f7       	brne	.-14     	; 0x6280 <rfid_force_read+0xa>
    628e:	cf 91       	pop	r28
    6290:	1f 91       	pop	r17
    6292:	0f 91       	pop	r16
    6294:	08 95       	ret

00006296 <rfid_program>:
    6296:	cf 92       	push	r12
    6298:	df 92       	push	r13
    629a:	ef 92       	push	r14
    629c:	ff 92       	push	r15
    629e:	0f 93       	push	r16
    62a0:	1f 93       	push	r17
    62a2:	cf 93       	push	r28
    62a4:	df 93       	push	r29
    62a6:	cd b7       	in	r28, 0x3d	; 61
    62a8:	de b7       	in	r29, 0x3e	; 62
    62aa:	28 97       	sbiw	r28, 0x08	; 8
    62ac:	0f b6       	in	r0, 0x3f	; 63
    62ae:	f8 94       	cli
    62b0:	de bf       	out	0x3e, r29	; 62
    62b2:	0f be       	out	0x3f, r0	; 63
    62b4:	cd bf       	out	0x3d, r28	; 61
    62b6:	8c 01       	movw	r16, r24
    62b8:	0e 94 74 2f 	call	0x5ee8	; 0x5ee8 <rfid_config>
    62bc:	60 e0       	ldi	r22, 0x00	; 0
    62be:	84 ee       	ldi	r24, 0xE4	; 228
    62c0:	94 e0       	ldi	r25, 0x04	; 4
    62c2:	0e 94 b0 2e 	call	0x5d60	; 0x5d60 <rfid_write_block>
    62c6:	c8 01       	movw	r24, r16
    62c8:	0e 94 fd 2e 	call	0x5dfa	; 0x5dfa <rfid_encode>
    62cc:	61 e0       	ldi	r22, 0x01	; 1
    62ce:	84 ee       	ldi	r24, 0xE4	; 228
    62d0:	94 e0       	ldi	r25, 0x04	; 4
    62d2:	0e 94 b0 2e 	call	0x5d60	; 0x5d60 <rfid_write_block>
    62d6:	62 e0       	ldi	r22, 0x02	; 2
    62d8:	84 e0       	ldi	r24, 0x04	; 4
    62da:	95 e0       	ldi	r25, 0x05	; 5
    62dc:	0e 94 b0 2e 	call	0x5d60	; 0x5d60 <rfid_write_block>
    62e0:	56 98       	cbi	0x0a, 6	; 10
    62e2:	43 98       	cbi	0x08, 3	; 8
    62e4:	2f ef       	ldi	r18, 0xFF	; 255
    62e6:	89 ef       	ldi	r24, 0xF9	; 249
    62e8:	90 e0       	ldi	r25, 0x00	; 0
    62ea:	21 50       	subi	r18, 0x01	; 1
    62ec:	80 40       	sbci	r24, 0x00	; 0
    62ee:	90 40       	sbci	r25, 0x00	; 0
    62f0:	e1 f7       	brne	.-8      	; 0x62ea <rfid_program+0x54>
    62f2:	00 c0       	rjmp	.+0      	; 0x62f4 <rfid_program+0x5e>
    62f4:	00 00       	nop
    62f6:	56 9a       	sbi	0x0a, 6	; 10
    62f8:	43 9a       	sbi	0x08, 3	; 8
    62fa:	ef ef       	ldi	r30, 0xFF	; 255
    62fc:	f9 ef       	ldi	r31, 0xF9	; 249
    62fe:	20 e0       	ldi	r18, 0x00	; 0
    6300:	e1 50       	subi	r30, 0x01	; 1
    6302:	f0 40       	sbci	r31, 0x00	; 0
    6304:	20 40       	sbci	r18, 0x00	; 0
    6306:	e1 f7       	brne	.-8      	; 0x6300 <rfid_program+0x6a>
    6308:	00 c0       	rjmp	.+0      	; 0x630a <rfid_program+0x74>
    630a:	00 00       	nop
    630c:	78 01       	movw	r14, r16
    630e:	8f ef       	ldi	r24, 0xFF	; 255
    6310:	e8 1a       	sub	r14, r24
    6312:	f8 0a       	sbc	r15, r24
    6314:	6e 01       	movw	r12, r28
    6316:	92 e0       	ldi	r25, 0x02	; 2
    6318:	c9 0e       	add	r12, r25
    631a:	d1 1c       	adc	r13, r1
    631c:	0a 5f       	subi	r16, 0xFA	; 250
    631e:	1f 4f       	sbci	r17, 0xFF	; 255
    6320:	d6 01       	movw	r26, r12
    6322:	f7 01       	movw	r30, r14
    6324:	91 91       	ld	r25, Z+
    6326:	90 95       	com	r25
    6328:	9d 93       	st	X+, r25
    632a:	e0 17       	cp	r30, r16
    632c:	f1 07       	cpc	r31, r17
    632e:	d1 f7       	brne	.-12     	; 0x6324 <rfid_program+0x8e>
    6330:	ce 01       	movw	r24, r28
    6332:	01 96       	adiw	r24, 0x01	; 1
    6334:	0e 94 3b 31 	call	0x6276	; 0x6276 <rfid_force_read>
    6338:	81 11       	cpse	r24, r1
    633a:	0e c0       	rjmp	.+28     	; 0x6358 <rfid_program+0xc2>
    633c:	f7 01       	movw	r30, r14
    633e:	91 91       	ld	r25, Z+
    6340:	7f 01       	movw	r14, r30
    6342:	f6 01       	movw	r30, r12
    6344:	81 91       	ld	r24, Z+
    6346:	6f 01       	movw	r12, r30
    6348:	98 13       	cpse	r25, r24
    634a:	05 c0       	rjmp	.+10     	; 0x6356 <rfid_program+0xc0>
    634c:	e0 16       	cp	r14, r16
    634e:	f1 06       	cpc	r15, r17
    6350:	a9 f7       	brne	.-22     	; 0x633c <rfid_program+0xa6>
    6352:	80 e0       	ldi	r24, 0x00	; 0
    6354:	01 c0       	rjmp	.+2      	; 0x6358 <rfid_program+0xc2>
    6356:	82 e0       	ldi	r24, 0x02	; 2
    6358:	28 96       	adiw	r28, 0x08	; 8
    635a:	0f b6       	in	r0, 0x3f	; 63
    635c:	f8 94       	cli
    635e:	de bf       	out	0x3e, r29	; 62
    6360:	0f be       	out	0x3f, r0	; 63
    6362:	cd bf       	out	0x3d, r28	; 61
    6364:	df 91       	pop	r29
    6366:	cf 91       	pop	r28
    6368:	1f 91       	pop	r17
    636a:	0f 91       	pop	r16
    636c:	ff 90       	pop	r15
    636e:	ef 90       	pop	r14
    6370:	df 90       	pop	r13
    6372:	cf 90       	pop	r12
    6374:	08 95       	ret

00006376 <sd_raw_send_byte>:
    6376:	8e bd       	out	0x2e, r24	; 46
    6378:	0d b4       	in	r0, 0x2d	; 45
    637a:	07 fe       	sbrs	r0, 7
    637c:	fd cf       	rjmp	.-6      	; 0x6378 <sd_raw_send_byte+0x2>
    637e:	8d b5       	in	r24, 0x2d	; 45
    6380:	8f 77       	andi	r24, 0x7F	; 127
    6382:	8d bd       	out	0x2d, r24	; 45
    6384:	08 95       	ret

00006386 <sd_raw_rec_byte>:
    6386:	8f ef       	ldi	r24, 0xFF	; 255
    6388:	8e bd       	out	0x2e, r24	; 46
    638a:	0d b4       	in	r0, 0x2d	; 45
    638c:	07 fe       	sbrs	r0, 7
    638e:	fd cf       	rjmp	.-6      	; 0x638a <sd_raw_rec_byte+0x4>
    6390:	8d b5       	in	r24, 0x2d	; 45
    6392:	8f 77       	andi	r24, 0x7F	; 127
    6394:	8d bd       	out	0x2d, r24	; 45
    6396:	8e b5       	in	r24, 0x2e	; 46
    6398:	08 95       	ret

0000639a <sd_raw_send_command>:
    639a:	1f 93       	push	r17
    639c:	cf 93       	push	r28
    639e:	df 93       	push	r29
    63a0:	00 d0       	rcall	.+0      	; 0x63a2 <sd_raw_send_command+0x8>
    63a2:	00 d0       	rcall	.+0      	; 0x63a4 <sd_raw_send_command+0xa>
    63a4:	cd b7       	in	r28, 0x3d	; 61
    63a6:	de b7       	in	r29, 0x3e	; 62
    63a8:	18 2f       	mov	r17, r24
    63aa:	4c 83       	std	Y+4, r20	; 0x04
    63ac:	5b 83       	std	Y+3, r21	; 0x03
    63ae:	6a 83       	std	Y+2, r22	; 0x02
    63b0:	79 83       	std	Y+1, r23	; 0x01
    63b2:	0e 94 c3 31 	call	0x6386	; 0x6386 <sd_raw_rec_byte>
    63b6:	81 2f       	mov	r24, r17
    63b8:	80 64       	ori	r24, 0x40	; 64
    63ba:	0e 94 bb 31 	call	0x6376	; 0x6376 <sd_raw_send_byte>
    63be:	79 81       	ldd	r23, Y+1	; 0x01
    63c0:	87 2f       	mov	r24, r23
    63c2:	0e 94 bb 31 	call	0x6376	; 0x6376 <sd_raw_send_byte>
    63c6:	6a 81       	ldd	r22, Y+2	; 0x02
    63c8:	86 2f       	mov	r24, r22
    63ca:	0e 94 bb 31 	call	0x6376	; 0x6376 <sd_raw_send_byte>
    63ce:	5b 81       	ldd	r21, Y+3	; 0x03
    63d0:	85 2f       	mov	r24, r21
    63d2:	0e 94 bb 31 	call	0x6376	; 0x6376 <sd_raw_send_byte>
    63d6:	4c 81       	ldd	r20, Y+4	; 0x04
    63d8:	84 2f       	mov	r24, r20
    63da:	0e 94 bb 31 	call	0x6376	; 0x6376 <sd_raw_send_byte>
    63de:	11 23       	and	r17, r17
    63e0:	21 f0       	breq	.+8      	; 0x63ea <sd_raw_send_command+0x50>
    63e2:	18 30       	cpi	r17, 0x08	; 8
    63e4:	39 f4       	brne	.+14     	; 0x63f4 <sd_raw_send_command+0x5a>
    63e6:	87 e8       	ldi	r24, 0x87	; 135
    63e8:	01 c0       	rjmp	.+2      	; 0x63ec <sd_raw_send_command+0x52>
    63ea:	85 e9       	ldi	r24, 0x95	; 149
    63ec:	0e 94 bb 31 	call	0x6376	; 0x6376 <sd_raw_send_byte>
    63f0:	1a e0       	ldi	r17, 0x0A	; 10
    63f2:	04 c0       	rjmp	.+8      	; 0x63fc <sd_raw_send_command+0x62>
    63f4:	8f ef       	ldi	r24, 0xFF	; 255
    63f6:	fa cf       	rjmp	.-12     	; 0x63ec <sd_raw_send_command+0x52>
    63f8:	11 50       	subi	r17, 0x01	; 1
    63fa:	21 f0       	breq	.+8      	; 0x6404 <sd_raw_send_command+0x6a>
    63fc:	0e 94 c3 31 	call	0x6386	; 0x6386 <sd_raw_rec_byte>
    6400:	8f 3f       	cpi	r24, 0xFF	; 255
    6402:	d1 f3       	breq	.-12     	; 0x63f8 <sd_raw_send_command+0x5e>
    6404:	0f 90       	pop	r0
    6406:	0f 90       	pop	r0
    6408:	0f 90       	pop	r0
    640a:	0f 90       	pop	r0
    640c:	df 91       	pop	r29
    640e:	cf 91       	pop	r28
    6410:	1f 91       	pop	r17
    6412:	08 95       	ret

00006414 <sd_raw_read>:
    6414:	2f 92       	push	r2
    6416:	3f 92       	push	r3
    6418:	4f 92       	push	r4
    641a:	5f 92       	push	r5
    641c:	6f 92       	push	r6
    641e:	7f 92       	push	r7
    6420:	8f 92       	push	r8
    6422:	9f 92       	push	r9
    6424:	af 92       	push	r10
    6426:	bf 92       	push	r11
    6428:	cf 92       	push	r12
    642a:	df 92       	push	r13
    642c:	ef 92       	push	r14
    642e:	ff 92       	push	r15
    6430:	0f 93       	push	r16
    6432:	1f 93       	push	r17
    6434:	cf 93       	push	r28
    6436:	df 93       	push	r29
    6438:	cd b7       	in	r28, 0x3d	; 61
    643a:	de b7       	in	r29, 0x3e	; 62
    643c:	60 97       	sbiw	r28, 0x10	; 16
    643e:	0f b6       	in	r0, 0x3f	; 63
    6440:	f8 94       	cli
    6442:	de bf       	out	0x3e, r29	; 62
    6444:	0f be       	out	0x3f, r0	; 63
    6446:	cd bf       	out	0x3d, r28	; 61
    6448:	29 83       	std	Y+1, r18	; 0x01
    644a:	3a 83       	std	Y+2, r19	; 0x02
    644c:	4b 83       	std	Y+3, r20	; 0x03
    644e:	5c 83       	std	Y+4, r21	; 0x04
    6450:	6d 83       	std	Y+5, r22	; 0x05
    6452:	7e 83       	std	Y+6, r23	; 0x06
    6454:	8f 83       	std	Y+7, r24	; 0x07
    6456:	98 87       	std	Y+8, r25	; 0x08
    6458:	1a 87       	std	Y+10, r17	; 0x0a
    645a:	09 87       	std	Y+9, r16	; 0x09
    645c:	fc 86       	std	Y+12, r15	; 0x0c
    645e:	eb 86       	std	Y+11, r14	; 0x0b
    6460:	2b 85       	ldd	r18, Y+11	; 0x0b
    6462:	3c 85       	ldd	r19, Y+12	; 0x0c
    6464:	23 2b       	or	r18, r19
    6466:	09 f4       	brne	.+2      	; 0x646a <sd_raw_read+0x56>
    6468:	c6 c0       	rjmp	.+396    	; 0x65f6 <sd_raw_read+0x1e2>
    646a:	29 81       	ldd	r18, Y+1	; 0x01
    646c:	3a 81       	ldd	r19, Y+2	; 0x02
    646e:	31 70       	andi	r19, 0x01	; 1
    6470:	3e 87       	std	Y+14, r19	; 0x0e
    6472:	2d 87       	std	Y+13, r18	; 0x0d
    6474:	19 01       	movw	r2, r18
    6476:	29 81       	ldd	r18, Y+1	; 0x01
    6478:	3a 81       	ldd	r19, Y+2	; 0x02
    647a:	4b 81       	ldd	r20, Y+3	; 0x03
    647c:	5c 81       	ldd	r21, Y+4	; 0x04
    647e:	6d 81       	ldd	r22, Y+5	; 0x05
    6480:	7e 81       	ldd	r23, Y+6	; 0x06
    6482:	8f 81       	ldd	r24, Y+7	; 0x07
    6484:	98 85       	ldd	r25, Y+8	; 0x08
    6486:	51 01       	movw	r10, r2
    6488:	c1 2c       	mov	r12, r1
    648a:	d1 2c       	mov	r13, r1
    648c:	e1 2c       	mov	r14, r1
    648e:	f1 2c       	mov	r15, r1
    6490:	00 e0       	ldi	r16, 0x00	; 0
    6492:	10 e0       	ldi	r17, 0x00	; 0
    6494:	0e 94 55 38 	call	0x70aa	; 0x70aa <__subdi3>
    6498:	39 01       	movw	r6, r18
    649a:	4a 01       	movw	r8, r20
    649c:	1b 01       	movw	r2, r22
    649e:	2c 01       	movw	r4, r24
    64a0:	80 e0       	ldi	r24, 0x00	; 0
    64a2:	92 e0       	ldi	r25, 0x02	; 2
    64a4:	ed 85       	ldd	r30, Y+13	; 0x0d
    64a6:	fe 85       	ldd	r31, Y+14	; 0x0e
    64a8:	8e 1b       	sub	r24, r30
    64aa:	9f 0b       	sbc	r25, r31
    64ac:	98 8b       	std	Y+16, r25	; 0x10
    64ae:	8f 87       	std	Y+15, r24	; 0x0f
    64b0:	2b 85       	ldd	r18, Y+11	; 0x0b
    64b2:	3c 85       	ldd	r19, Y+12	; 0x0c
    64b4:	28 17       	cp	r18, r24
    64b6:	39 07       	cpc	r19, r25
    64b8:	10 f4       	brcc	.+4      	; 0x64be <sd_raw_read+0xaa>
    64ba:	38 8b       	std	Y+16, r19	; 0x10
    64bc:	2f 87       	std	Y+15, r18	; 0x0f
    64be:	a0 90 1f 02 	lds	r10, 0x021F
    64c2:	b0 90 20 02 	lds	r11, 0x0220
    64c6:	c0 90 21 02 	lds	r12, 0x0221
    64ca:	d0 90 22 02 	lds	r13, 0x0222
    64ce:	e0 90 23 02 	lds	r14, 0x0223
    64d2:	f0 90 24 02 	lds	r15, 0x0224
    64d6:	00 91 25 02 	lds	r16, 0x0225
    64da:	10 91 26 02 	lds	r17, 0x0226
    64de:	93 01       	movw	r18, r6
    64e0:	a4 01       	movw	r20, r8
    64e2:	b1 01       	movw	r22, r2
    64e4:	c2 01       	movw	r24, r4
    64e6:	0e 94 5e 38 	call	0x70bc	; 0x70bc <__cmpdi2>
    64ea:	09 f4       	brne	.+2      	; 0x64ee <sd_raw_read+0xda>
    64ec:	50 c0       	rjmp	.+160    	; 0x658e <sd_raw_read+0x17a>
    64ee:	2a 98       	cbi	0x05, 2	; 5
    64f0:	80 91 1e 02 	lds	r24, 0x021E
    64f4:	82 ff       	sbrs	r24, 2
    64f6:	08 c0       	rjmp	.+16     	; 0x6508 <sd_raw_read+0xf4>
    64f8:	84 2d       	mov	r24, r4
    64fa:	09 e0       	ldi	r16, 0x09	; 9
    64fc:	0e 94 24 38 	call	0x7048	; 0x7048 <__lshrdi3>
    6500:	ba 01       	movw	r22, r20
    6502:	42 2f       	mov	r20, r18
    6504:	53 2f       	mov	r21, r19
    6506:	02 c0       	rjmp	.+4      	; 0x650c <sd_raw_read+0xf8>
    6508:	a3 01       	movw	r20, r6
    650a:	b4 01       	movw	r22, r8
    650c:	81 e1       	ldi	r24, 0x11	; 17
    650e:	0e 94 cd 31 	call	0x639a	; 0x639a <sd_raw_send_command>
    6512:	88 23       	and	r24, r24
    6514:	19 f0       	breq	.+6      	; 0x651c <sd_raw_read+0x108>
    6516:	2a 9a       	sbi	0x05, 2	; 5
    6518:	80 e0       	ldi	r24, 0x00	; 0
    651a:	6e c0       	rjmp	.+220    	; 0x65f8 <sd_raw_read+0x1e4>
    651c:	0e 94 c3 31 	call	0x6386	; 0x6386 <sd_raw_rec_byte>
    6520:	8e 3f       	cpi	r24, 0xFE	; 254
    6522:	e1 f7       	brne	.-8      	; 0x651c <sd_raw_read+0x108>
    6524:	07 e2       	ldi	r16, 0x27	; 39
    6526:	12 e0       	ldi	r17, 0x02	; 2
    6528:	0e 94 c3 31 	call	0x6386	; 0x6386 <sd_raw_rec_byte>
    652c:	f8 01       	movw	r30, r16
    652e:	81 93       	st	Z+, r24
    6530:	8f 01       	movw	r16, r30
    6532:	f4 e0       	ldi	r31, 0x04	; 4
    6534:	07 32       	cpi	r16, 0x27	; 39
    6536:	1f 07       	cpc	r17, r31
    6538:	b9 f7       	brne	.-18     	; 0x6528 <sd_raw_read+0x114>
    653a:	60 92 1f 02 	sts	0x021F, r6
    653e:	70 92 20 02 	sts	0x0220, r7
    6542:	80 92 21 02 	sts	0x0221, r8
    6546:	90 92 22 02 	sts	0x0222, r9
    654a:	20 92 23 02 	sts	0x0223, r2
    654e:	30 92 24 02 	sts	0x0224, r3
    6552:	40 92 25 02 	sts	0x0225, r4
    6556:	50 92 26 02 	sts	0x0226, r5
    655a:	6d 85       	ldd	r22, Y+13	; 0x0d
    655c:	7e 85       	ldd	r23, Y+14	; 0x0e
    655e:	69 5d       	subi	r22, 0xD9	; 217
    6560:	7d 4f       	sbci	r23, 0xFD	; 253
    6562:	4f 85       	ldd	r20, Y+15	; 0x0f
    6564:	58 89       	ldd	r21, Y+16	; 0x10
    6566:	89 85       	ldd	r24, Y+9	; 0x09
    6568:	9a 85       	ldd	r25, Y+10	; 0x0a
    656a:	0e 94 de 38 	call	0x71bc	; 0x71bc <memcpy>
    656e:	29 85       	ldd	r18, Y+9	; 0x09
    6570:	3a 85       	ldd	r19, Y+10	; 0x0a
    6572:	8f 85       	ldd	r24, Y+15	; 0x0f
    6574:	98 89       	ldd	r25, Y+16	; 0x10
    6576:	28 0f       	add	r18, r24
    6578:	39 1f       	adc	r19, r25
    657a:	3a 87       	std	Y+10, r19	; 0x0a
    657c:	29 87       	std	Y+9, r18	; 0x09
    657e:	0e 94 c3 31 	call	0x6386	; 0x6386 <sd_raw_rec_byte>
    6582:	0e 94 c3 31 	call	0x6386	; 0x6386 <sd_raw_rec_byte>
    6586:	2a 9a       	sbi	0x05, 2	; 5
    6588:	0e 94 c3 31 	call	0x6386	; 0x6386 <sd_raw_rec_byte>
    658c:	12 c0       	rjmp	.+36     	; 0x65b2 <sd_raw_read+0x19e>
    658e:	6d 85       	ldd	r22, Y+13	; 0x0d
    6590:	7e 85       	ldd	r23, Y+14	; 0x0e
    6592:	69 5d       	subi	r22, 0xD9	; 217
    6594:	7d 4f       	sbci	r23, 0xFD	; 253
    6596:	4f 85       	ldd	r20, Y+15	; 0x0f
    6598:	58 89       	ldd	r21, Y+16	; 0x10
    659a:	89 85       	ldd	r24, Y+9	; 0x09
    659c:	9a 85       	ldd	r25, Y+10	; 0x0a
    659e:	0e 94 de 38 	call	0x71bc	; 0x71bc <memcpy>
    65a2:	e9 85       	ldd	r30, Y+9	; 0x09
    65a4:	fa 85       	ldd	r31, Y+10	; 0x0a
    65a6:	2f 85       	ldd	r18, Y+15	; 0x0f
    65a8:	38 89       	ldd	r19, Y+16	; 0x10
    65aa:	e2 0f       	add	r30, r18
    65ac:	f3 1f       	adc	r31, r19
    65ae:	fa 87       	std	Y+10, r31	; 0x0a
    65b0:	e9 87       	std	Y+9, r30	; 0x09
    65b2:	8b 85       	ldd	r24, Y+11	; 0x0b
    65b4:	9c 85       	ldd	r25, Y+12	; 0x0c
    65b6:	ef 85       	ldd	r30, Y+15	; 0x0f
    65b8:	f8 89       	ldd	r31, Y+16	; 0x10
    65ba:	8e 1b       	sub	r24, r30
    65bc:	9f 0b       	sbc	r25, r31
    65be:	9c 87       	std	Y+12, r25	; 0x0c
    65c0:	8b 87       	std	Y+11, r24	; 0x0b
    65c2:	9f 01       	movw	r18, r30
    65c4:	40 e0       	ldi	r20, 0x00	; 0
    65c6:	50 e0       	ldi	r21, 0x00	; 0
    65c8:	60 e0       	ldi	r22, 0x00	; 0
    65ca:	70 e0       	ldi	r23, 0x00	; 0
    65cc:	80 e0       	ldi	r24, 0x00	; 0
    65ce:	90 e0       	ldi	r25, 0x00	; 0
    65d0:	a9 80       	ldd	r10, Y+1	; 0x01
    65d2:	ba 80       	ldd	r11, Y+2	; 0x02
    65d4:	cb 80       	ldd	r12, Y+3	; 0x03
    65d6:	dc 80       	ldd	r13, Y+4	; 0x04
    65d8:	ed 80       	ldd	r14, Y+5	; 0x05
    65da:	fe 80       	ldd	r15, Y+6	; 0x06
    65dc:	0f 81       	ldd	r16, Y+7	; 0x07
    65de:	18 85       	ldd	r17, Y+8	; 0x08
    65e0:	0e 94 40 38 	call	0x7080	; 0x7080 <__adddi3>
    65e4:	29 83       	std	Y+1, r18	; 0x01
    65e6:	3a 83       	std	Y+2, r19	; 0x02
    65e8:	4b 83       	std	Y+3, r20	; 0x03
    65ea:	5c 83       	std	Y+4, r21	; 0x04
    65ec:	6d 83       	std	Y+5, r22	; 0x05
    65ee:	7e 83       	std	Y+6, r23	; 0x06
    65f0:	8f 83       	std	Y+7, r24	; 0x07
    65f2:	98 87       	std	Y+8, r25	; 0x08
    65f4:	35 cf       	rjmp	.-406    	; 0x6460 <sd_raw_read+0x4c>
    65f6:	81 e0       	ldi	r24, 0x01	; 1
    65f8:	60 96       	adiw	r28, 0x10	; 16
    65fa:	0f b6       	in	r0, 0x3f	; 63
    65fc:	f8 94       	cli
    65fe:	de bf       	out	0x3e, r29	; 62
    6600:	0f be       	out	0x3f, r0	; 63
    6602:	cd bf       	out	0x3d, r28	; 61
    6604:	df 91       	pop	r29
    6606:	cf 91       	pop	r28
    6608:	1f 91       	pop	r17
    660a:	0f 91       	pop	r16
    660c:	ff 90       	pop	r15
    660e:	ef 90       	pop	r14
    6610:	df 90       	pop	r13
    6612:	cf 90       	pop	r12
    6614:	bf 90       	pop	r11
    6616:	af 90       	pop	r10
    6618:	9f 90       	pop	r9
    661a:	8f 90       	pop	r8
    661c:	7f 90       	pop	r7
    661e:	6f 90       	pop	r6
    6620:	5f 90       	pop	r5
    6622:	4f 90       	pop	r4
    6624:	3f 90       	pop	r3
    6626:	2f 90       	pop	r2
    6628:	08 95       	ret

0000662a <sd_raw_init>:
    662a:	cf 92       	push	r12
    662c:	df 92       	push	r13
    662e:	ef 92       	push	r14
    6630:	ff 92       	push	r15
    6632:	0f 93       	push	r16
    6634:	1f 93       	push	r17
    6636:	cf 93       	push	r28
    6638:	df 93       	push	r29
    663a:	3c 98       	cbi	0x07, 4	; 7
    663c:	3d 98       	cbi	0x07, 5	; 7
    663e:	23 9a       	sbi	0x04, 3	; 4
    6640:	25 9a       	sbi	0x04, 5	; 4
    6642:	22 9a       	sbi	0x04, 2	; 4
    6644:	24 98       	cbi	0x04, 4	; 4
    6646:	2a 9a       	sbi	0x05, 2	; 5
    6648:	83 e5       	ldi	r24, 0x53	; 83
    664a:	8c bd       	out	0x2c, r24	; 44
    664c:	8d b5       	in	r24, 0x2d	; 45
    664e:	8e 7f       	andi	r24, 0xFE	; 254
    6650:	8d bd       	out	0x2d, r24	; 45
    6652:	10 92 1e 02 	sts	0x021E, r1
    6656:	ca e0       	ldi	r28, 0x0A	; 10
    6658:	0e 94 c3 31 	call	0x6386	; 0x6386 <sd_raw_rec_byte>
    665c:	c1 50       	subi	r28, 0x01	; 1
    665e:	e1 f7       	brne	.-8      	; 0x6658 <sd_raw_init+0x2e>
    6660:	2a 98       	cbi	0x05, 2	; 5
    6662:	c0 e0       	ldi	r28, 0x00	; 0
    6664:	d2 e0       	ldi	r29, 0x02	; 2
    6666:	40 e0       	ldi	r20, 0x00	; 0
    6668:	50 e0       	ldi	r21, 0x00	; 0
    666a:	ba 01       	movw	r22, r20
    666c:	80 e0       	ldi	r24, 0x00	; 0
    666e:	0e 94 cd 31 	call	0x639a	; 0x639a <sd_raw_send_command>
    6672:	81 30       	cpi	r24, 0x01	; 1
    6674:	19 f0       	breq	.+6      	; 0x667c <sd_raw_init+0x52>
    6676:	21 97       	sbiw	r28, 0x01	; 1
    6678:	b1 f7       	brne	.-20     	; 0x6666 <sd_raw_init+0x3c>
    667a:	5a c0       	rjmp	.+180    	; 0x6730 <sd_raw_init+0x106>
    667c:	4a ea       	ldi	r20, 0xAA	; 170
    667e:	51 e0       	ldi	r21, 0x01	; 1
    6680:	60 e0       	ldi	r22, 0x00	; 0
    6682:	70 e0       	ldi	r23, 0x00	; 0
    6684:	88 e0       	ldi	r24, 0x08	; 8
    6686:	0e 94 cd 31 	call	0x639a	; 0x639a <sd_raw_send_command>
    668a:	c8 2f       	mov	r28, r24
    668c:	c4 70       	andi	r28, 0x04	; 4
    668e:	82 fd       	sbrc	r24, 2
    6690:	15 c0       	rjmp	.+42     	; 0x66bc <sd_raw_init+0x92>
    6692:	0e 94 c3 31 	call	0x6386	; 0x6386 <sd_raw_rec_byte>
    6696:	0e 94 c3 31 	call	0x6386	; 0x6386 <sd_raw_rec_byte>
    669a:	0e 94 c3 31 	call	0x6386	; 0x6386 <sd_raw_rec_byte>
    669e:	80 ff       	sbrs	r24, 0
    66a0:	98 c0       	rjmp	.+304    	; 0x67d2 <sd_raw_init+0x1a8>
    66a2:	0e 94 c3 31 	call	0x6386	; 0x6386 <sd_raw_rec_byte>
    66a6:	8a 3a       	cpi	r24, 0xAA	; 170
    66a8:	09 f0       	breq	.+2      	; 0x66ac <sd_raw_init+0x82>
    66aa:	93 c0       	rjmp	.+294    	; 0x67d2 <sd_raw_init+0x1a8>
    66ac:	80 91 1e 02 	lds	r24, 0x021E
    66b0:	82 60       	ori	r24, 0x02	; 2
    66b2:	80 93 1e 02 	sts	0x021E, r24
    66b6:	00 e0       	ldi	r16, 0x00	; 0
    66b8:	10 e8       	ldi	r17, 0x80	; 128
    66ba:	2b c0       	rjmp	.+86     	; 0x6712 <sd_raw_init+0xe8>
    66bc:	40 e0       	ldi	r20, 0x00	; 0
    66be:	50 e0       	ldi	r21, 0x00	; 0
    66c0:	ba 01       	movw	r22, r20
    66c2:	87 e3       	ldi	r24, 0x37	; 55
    66c4:	0e 94 cd 31 	call	0x639a	; 0x639a <sd_raw_send_command>
    66c8:	40 e0       	ldi	r20, 0x00	; 0
    66ca:	50 e0       	ldi	r21, 0x00	; 0
    66cc:	ba 01       	movw	r22, r20
    66ce:	89 e2       	ldi	r24, 0x29	; 41
    66d0:	0e 94 cd 31 	call	0x639a	; 0x639a <sd_raw_send_command>
    66d4:	82 fd       	sbrc	r24, 2
    66d6:	ef cf       	rjmp	.-34     	; 0x66b6 <sd_raw_init+0x8c>
    66d8:	80 91 1e 02 	lds	r24, 0x021E
    66dc:	81 60       	ori	r24, 0x01	; 1
    66de:	e9 cf       	rjmp	.-46     	; 0x66b2 <sd_raw_init+0x88>
    66e0:	81 ff       	sbrs	r24, 1
    66e2:	1d c0       	rjmp	.+58     	; 0x671e <sd_raw_init+0xf4>
    66e4:	c1 2c       	mov	r12, r1
    66e6:	d1 2c       	mov	r13, r1
    66e8:	e1 2c       	mov	r14, r1
    66ea:	90 e4       	ldi	r25, 0x40	; 64
    66ec:	f9 2e       	mov	r15, r25
    66ee:	40 e0       	ldi	r20, 0x00	; 0
    66f0:	50 e0       	ldi	r21, 0x00	; 0
    66f2:	ba 01       	movw	r22, r20
    66f4:	87 e3       	ldi	r24, 0x37	; 55
    66f6:	0e 94 cd 31 	call	0x639a	; 0x639a <sd_raw_send_command>
    66fa:	b7 01       	movw	r22, r14
    66fc:	a6 01       	movw	r20, r12
    66fe:	89 e2       	ldi	r24, 0x29	; 41
    6700:	0e 94 cd 31 	call	0x639a	; 0x639a <sd_raw_send_command>
    6704:	c8 2f       	mov	r28, r24
    6706:	c1 70       	andi	r28, 0x01	; 1
    6708:	80 ff       	sbrs	r24, 0
    670a:	14 c0       	rjmp	.+40     	; 0x6734 <sd_raw_init+0x10a>
    670c:	01 50       	subi	r16, 0x01	; 1
    670e:	11 09       	sbc	r17, r1
    6710:	79 f0       	breq	.+30     	; 0x6730 <sd_raw_init+0x106>
    6712:	80 91 1e 02 	lds	r24, 0x021E
    6716:	98 2f       	mov	r25, r24
    6718:	93 70       	andi	r25, 0x03	; 3
    671a:	11 f7       	brne	.-60     	; 0x66e0 <sd_raw_init+0xb6>
    671c:	04 c0       	rjmp	.+8      	; 0x6726 <sd_raw_init+0xfc>
    671e:	c1 2c       	mov	r12, r1
    6720:	d1 2c       	mov	r13, r1
    6722:	76 01       	movw	r14, r12
    6724:	e4 cf       	rjmp	.-56     	; 0x66ee <sd_raw_init+0xc4>
    6726:	40 e0       	ldi	r20, 0x00	; 0
    6728:	50 e0       	ldi	r21, 0x00	; 0
    672a:	ba 01       	movw	r22, r20
    672c:	81 e0       	ldi	r24, 0x01	; 1
    672e:	e8 cf       	rjmp	.-48     	; 0x6700 <sd_raw_init+0xd6>
    6730:	2a 9a       	sbi	0x05, 2	; 5
    6732:	4e c0       	rjmp	.+156    	; 0x67d0 <sd_raw_init+0x1a6>
    6734:	d0 91 1e 02 	lds	r29, 0x021E
    6738:	d1 ff       	sbrs	r29, 1
    673a:	17 c0       	rjmp	.+46     	; 0x676a <sd_raw_init+0x140>
    673c:	40 e0       	ldi	r20, 0x00	; 0
    673e:	50 e0       	ldi	r21, 0x00	; 0
    6740:	ba 01       	movw	r22, r20
    6742:	8a e3       	ldi	r24, 0x3A	; 58
    6744:	0e 94 cd 31 	call	0x639a	; 0x639a <sd_raw_send_command>
    6748:	88 23       	and	r24, r24
    674a:	11 f0       	breq	.+4      	; 0x6750 <sd_raw_init+0x126>
    674c:	2a 9a       	sbi	0x05, 2	; 5
    674e:	41 c0       	rjmp	.+130    	; 0x67d2 <sd_raw_init+0x1a8>
    6750:	0e 94 c3 31 	call	0x6386	; 0x6386 <sd_raw_rec_byte>
    6754:	86 ff       	sbrs	r24, 6
    6756:	03 c0       	rjmp	.+6      	; 0x675e <sd_raw_init+0x134>
    6758:	d4 60       	ori	r29, 0x04	; 4
    675a:	d0 93 1e 02 	sts	0x021E, r29
    675e:	0e 94 c3 31 	call	0x6386	; 0x6386 <sd_raw_rec_byte>
    6762:	0e 94 c3 31 	call	0x6386	; 0x6386 <sd_raw_rec_byte>
    6766:	0e 94 c3 31 	call	0x6386	; 0x6386 <sd_raw_rec_byte>
    676a:	40 e0       	ldi	r20, 0x00	; 0
    676c:	52 e0       	ldi	r21, 0x02	; 2
    676e:	60 e0       	ldi	r22, 0x00	; 0
    6770:	70 e0       	ldi	r23, 0x00	; 0
    6772:	80 e1       	ldi	r24, 0x10	; 16
    6774:	0e 94 cd 31 	call	0x639a	; 0x639a <sd_raw_send_command>
    6778:	2a 9a       	sbi	0x05, 2	; 5
    677a:	81 11       	cpse	r24, r1
    677c:	2a c0       	rjmp	.+84     	; 0x67d2 <sd_raw_init+0x1a8>
    677e:	8c b5       	in	r24, 0x2c	; 44
    6780:	8c 7f       	andi	r24, 0xFC	; 252
    6782:	8c bd       	out	0x2c, r24	; 44
    6784:	8d b5       	in	r24, 0x2d	; 45
    6786:	81 60       	ori	r24, 0x01	; 1
    6788:	8d bd       	out	0x2d, r24	; 45
    678a:	8f ef       	ldi	r24, 0xFF	; 255
    678c:	80 93 1f 02 	sts	0x021F, r24
    6790:	80 93 20 02 	sts	0x0220, r24
    6794:	80 93 21 02 	sts	0x0221, r24
    6798:	80 93 22 02 	sts	0x0222, r24
    679c:	80 93 23 02 	sts	0x0223, r24
    67a0:	80 93 24 02 	sts	0x0224, r24
    67a4:	80 93 25 02 	sts	0x0225, r24
    67a8:	80 93 26 02 	sts	0x0226, r24
    67ac:	e1 2c       	mov	r14, r1
    67ae:	82 e0       	ldi	r24, 0x02	; 2
    67b0:	f8 2e       	mov	r15, r24
    67b2:	07 e2       	ldi	r16, 0x27	; 39
    67b4:	12 e0       	ldi	r17, 0x02	; 2
    67b6:	20 e0       	ldi	r18, 0x00	; 0
    67b8:	30 e0       	ldi	r19, 0x00	; 0
    67ba:	40 e0       	ldi	r20, 0x00	; 0
    67bc:	50 e0       	ldi	r21, 0x00	; 0
    67be:	60 e0       	ldi	r22, 0x00	; 0
    67c0:	70 e0       	ldi	r23, 0x00	; 0
    67c2:	80 e0       	ldi	r24, 0x00	; 0
    67c4:	90 e0       	ldi	r25, 0x00	; 0
    67c6:	0e 94 0a 32 	call	0x6414	; 0x6414 <sd_raw_read>
    67ca:	c1 e0       	ldi	r28, 0x01	; 1
    67cc:	81 11       	cpse	r24, r1
    67ce:	01 c0       	rjmp	.+2      	; 0x67d2 <sd_raw_init+0x1a8>
    67d0:	c0 e0       	ldi	r28, 0x00	; 0
    67d2:	8c 2f       	mov	r24, r28
    67d4:	df 91       	pop	r29
    67d6:	cf 91       	pop	r28
    67d8:	1f 91       	pop	r17
    67da:	0f 91       	pop	r16
    67dc:	ff 90       	pop	r15
    67de:	ef 90       	pop	r14
    67e0:	df 90       	pop	r13
    67e2:	cf 90       	pop	r12
    67e4:	08 95       	ret

000067e6 <sd_raw_read_interval>:
    67e6:	2f 92       	push	r2
    67e8:	3f 92       	push	r3
    67ea:	4f 92       	push	r4
    67ec:	5f 92       	push	r5
    67ee:	6f 92       	push	r6
    67f0:	7f 92       	push	r7
    67f2:	8f 92       	push	r8
    67f4:	9f 92       	push	r9
    67f6:	af 92       	push	r10
    67f8:	bf 92       	push	r11
    67fa:	cf 92       	push	r12
    67fc:	df 92       	push	r13
    67fe:	ef 92       	push	r14
    6800:	ff 92       	push	r15
    6802:	0f 93       	push	r16
    6804:	1f 93       	push	r17
    6806:	cf 93       	push	r28
    6808:	df 93       	push	r29
    680a:	cd b7       	in	r28, 0x3d	; 61
    680c:	de b7       	in	r29, 0x3e	; 62
    680e:	62 97       	sbiw	r28, 0x12	; 18
    6810:	0f b6       	in	r0, 0x3f	; 63
    6812:	f8 94       	cli
    6814:	de bf       	out	0x3e, r29	; 62
    6816:	0f be       	out	0x3f, r0	; 63
    6818:	cd bf       	out	0x3d, r28	; 61
    681a:	29 01       	movw	r4, r18
    681c:	4b 83       	std	Y+3, r20	; 0x03
    681e:	5c 83       	std	Y+4, r21	; 0x04
    6820:	6d 83       	std	Y+5, r22	; 0x05
    6822:	7e 83       	std	Y+6, r23	; 0x06
    6824:	1c 01       	movw	r2, r24
    6826:	18 87       	std	Y+8, r17	; 0x08
    6828:	0f 83       	std	Y+7, r16	; 0x07
    682a:	37 01       	movw	r6, r14
    682c:	da 82       	std	Y+2, r13	; 0x02
    682e:	c9 82       	std	Y+1, r12	; 0x01
    6830:	ba 86       	std	Y+10, r11	; 0x0a
    6832:	a9 86       	std	Y+9, r10	; 0x09
    6834:	01 2b       	or	r16, r17
    6836:	11 f4       	brne	.+4      	; 0x683c <sd_raw_read_interval+0x56>
    6838:	80 e0       	ldi	r24, 0x00	; 0
    683a:	4a c0       	rjmp	.+148    	; 0x68d0 <sd_raw_read_interval+0xea>
    683c:	e1 14       	cp	r14, r1
    683e:	f1 04       	cpc	r15, r1
    6840:	d9 f3       	breq	.-10     	; 0x6838 <sd_raw_read_interval+0x52>
    6842:	29 81       	ldd	r18, Y+1	; 0x01
    6844:	3a 81       	ldd	r19, Y+2	; 0x02
    6846:	2e 15       	cp	r18, r14
    6848:	3f 05       	cpc	r19, r15
    684a:	b0 f3       	brcs	.-20     	; 0x6838 <sd_raw_read_interval+0x52>
    684c:	49 85       	ldd	r20, Y+9	; 0x09
    684e:	5a 85       	ldd	r21, Y+10	; 0x0a
    6850:	45 2b       	or	r20, r21
    6852:	91 f3       	breq	.-28     	; 0x6838 <sd_raw_read_interval+0x52>
    6854:	97 01       	movw	r18, r14
    6856:	eb 86       	std	Y+11, r14	; 0x0b
    6858:	3c 87       	std	Y+12, r19	; 0x0c
    685a:	73 01       	movw	r14, r6
    685c:	0f 81       	ldd	r16, Y+7	; 0x07
    685e:	18 85       	ldd	r17, Y+8	; 0x08
    6860:	92 01       	movw	r18, r4
    6862:	4b 81       	ldd	r20, Y+3	; 0x03
    6864:	5c 81       	ldd	r21, Y+4	; 0x04
    6866:	6d 81       	ldd	r22, Y+5	; 0x05
    6868:	7e 81       	ldd	r23, Y+6	; 0x06
    686a:	c1 01       	movw	r24, r2
    686c:	0e 94 0a 32 	call	0x6414	; 0x6414 <sd_raw_read>
    6870:	88 23       	and	r24, r24
    6872:	11 f3       	breq	.-60     	; 0x6838 <sd_raw_read_interval+0x52>
    6874:	74 01       	movw	r14, r8
    6876:	82 01       	movw	r16, r4
    6878:	2b 81       	ldd	r18, Y+3	; 0x03
    687a:	3c 81       	ldd	r19, Y+4	; 0x04
    687c:	4d 81       	ldd	r20, Y+5	; 0x05
    687e:	5e 81       	ldd	r21, Y+6	; 0x06
    6880:	b1 01       	movw	r22, r2
    6882:	8f 81       	ldd	r24, Y+7	; 0x07
    6884:	98 85       	ldd	r25, Y+8	; 0x08
    6886:	e9 85       	ldd	r30, Y+9	; 0x09
    6888:	fa 85       	ldd	r31, Y+10	; 0x0a
    688a:	09 95       	icall
    688c:	88 23       	and	r24, r24
    688e:	f9 f0       	breq	.+62     	; 0x68ce <sd_raw_read_interval+0xe8>
    6890:	92 01       	movw	r18, r4
    6892:	4b 81       	ldd	r20, Y+3	; 0x03
    6894:	5c 81       	ldd	r21, Y+4	; 0x04
    6896:	6d 81       	ldd	r22, Y+5	; 0x05
    6898:	7e 81       	ldd	r23, Y+6	; 0x06
    689a:	c1 01       	movw	r24, r2
    689c:	ab 84       	ldd	r10, Y+11	; 0x0b
    689e:	bc 84       	ldd	r11, Y+12	; 0x0c
    68a0:	c1 2c       	mov	r12, r1
    68a2:	d1 2c       	mov	r13, r1
    68a4:	e1 2c       	mov	r14, r1
    68a6:	f1 2c       	mov	r15, r1
    68a8:	00 e0       	ldi	r16, 0x00	; 0
    68aa:	10 e0       	ldi	r17, 0x00	; 0
    68ac:	0e 94 40 38 	call	0x7080	; 0x7080 <__adddi3>
    68b0:	29 01       	movw	r4, r18
    68b2:	4b 83       	std	Y+3, r20	; 0x03
    68b4:	5c 83       	std	Y+4, r21	; 0x04
    68b6:	6d 83       	std	Y+5, r22	; 0x05
    68b8:	7e 83       	std	Y+6, r23	; 0x06
    68ba:	1c 01       	movw	r2, r24
    68bc:	29 81       	ldd	r18, Y+1	; 0x01
    68be:	3a 81       	ldd	r19, Y+2	; 0x02
    68c0:	26 19       	sub	r18, r6
    68c2:	37 09       	sbc	r19, r7
    68c4:	3a 83       	std	Y+2, r19	; 0x02
    68c6:	29 83       	std	Y+1, r18	; 0x01
    68c8:	26 15       	cp	r18, r6
    68ca:	37 05       	cpc	r19, r7
    68cc:	30 f6       	brcc	.-116    	; 0x685a <sd_raw_read_interval+0x74>
    68ce:	81 e0       	ldi	r24, 0x01	; 1
    68d0:	62 96       	adiw	r28, 0x12	; 18
    68d2:	0f b6       	in	r0, 0x3f	; 63
    68d4:	f8 94       	cli
    68d6:	de bf       	out	0x3e, r29	; 62
    68d8:	0f be       	out	0x3f, r0	; 63
    68da:	cd bf       	out	0x3d, r28	; 61
    68dc:	df 91       	pop	r29
    68de:	cf 91       	pop	r28
    68e0:	1f 91       	pop	r17
    68e2:	0f 91       	pop	r16
    68e4:	ff 90       	pop	r15
    68e6:	ef 90       	pop	r14
    68e8:	df 90       	pop	r13
    68ea:	cf 90       	pop	r12
    68ec:	bf 90       	pop	r11
    68ee:	af 90       	pop	r10
    68f0:	9f 90       	pop	r9
    68f2:	8f 90       	pop	r8
    68f4:	7f 90       	pop	r7
    68f6:	6f 90       	pop	r6
    68f8:	5f 90       	pop	r5
    68fa:	4f 90       	pop	r4
    68fc:	3f 90       	pop	r3
    68fe:	2f 90       	pop	r2
    6900:	08 95       	ret

00006902 <sd_raw_write>:
    6902:	2f 92       	push	r2
    6904:	3f 92       	push	r3
    6906:	4f 92       	push	r4
    6908:	5f 92       	push	r5
    690a:	6f 92       	push	r6
    690c:	7f 92       	push	r7
    690e:	8f 92       	push	r8
    6910:	9f 92       	push	r9
    6912:	af 92       	push	r10
    6914:	bf 92       	push	r11
    6916:	cf 92       	push	r12
    6918:	df 92       	push	r13
    691a:	ef 92       	push	r14
    691c:	ff 92       	push	r15
    691e:	0f 93       	push	r16
    6920:	1f 93       	push	r17
    6922:	cf 93       	push	r28
    6924:	df 93       	push	r29
    6926:	cd b7       	in	r28, 0x3d	; 61
    6928:	de b7       	in	r29, 0x3e	; 62
    692a:	60 97       	sbiw	r28, 0x10	; 16
    692c:	0f b6       	in	r0, 0x3f	; 63
    692e:	f8 94       	cli
    6930:	de bf       	out	0x3e, r29	; 62
    6932:	0f be       	out	0x3f, r0	; 63
    6934:	cd bf       	out	0x3d, r28	; 61
    6936:	29 83       	std	Y+1, r18	; 0x01
    6938:	3a 83       	std	Y+2, r19	; 0x02
    693a:	4b 83       	std	Y+3, r20	; 0x03
    693c:	5c 83       	std	Y+4, r21	; 0x04
    693e:	6d 83       	std	Y+5, r22	; 0x05
    6940:	7e 83       	std	Y+6, r23	; 0x06
    6942:	8f 83       	std	Y+7, r24	; 0x07
    6944:	98 87       	std	Y+8, r25	; 0x08
    6946:	1e 87       	std	Y+14, r17	; 0x0e
    6948:	0d 87       	std	Y+13, r16	; 0x0d
    694a:	fa 86       	std	Y+10, r15	; 0x0a
    694c:	e9 86       	std	Y+9, r14	; 0x09
    694e:	89 85       	ldd	r24, Y+9	; 0x09
    6950:	9a 85       	ldd	r25, Y+10	; 0x0a
    6952:	89 2b       	or	r24, r25
    6954:	09 f4       	brne	.+2      	; 0x6958 <sd_raw_write+0x56>
    6956:	d7 c0       	rjmp	.+430    	; 0x6b06 <sd_raw_write+0x204>
    6958:	29 81       	ldd	r18, Y+1	; 0x01
    695a:	3a 81       	ldd	r19, Y+2	; 0x02
    695c:	31 70       	andi	r19, 0x01	; 1
    695e:	3c 87       	std	Y+12, r19	; 0x0c
    6960:	2b 87       	std	Y+11, r18	; 0x0b
    6962:	19 01       	movw	r2, r18
    6964:	29 81       	ldd	r18, Y+1	; 0x01
    6966:	3a 81       	ldd	r19, Y+2	; 0x02
    6968:	4b 81       	ldd	r20, Y+3	; 0x03
    696a:	5c 81       	ldd	r21, Y+4	; 0x04
    696c:	6d 81       	ldd	r22, Y+5	; 0x05
    696e:	7e 81       	ldd	r23, Y+6	; 0x06
    6970:	8f 81       	ldd	r24, Y+7	; 0x07
    6972:	98 85       	ldd	r25, Y+8	; 0x08
    6974:	51 01       	movw	r10, r2
    6976:	c1 2c       	mov	r12, r1
    6978:	d1 2c       	mov	r13, r1
    697a:	e1 2c       	mov	r14, r1
    697c:	f1 2c       	mov	r15, r1
    697e:	00 e0       	ldi	r16, 0x00	; 0
    6980:	10 e0       	ldi	r17, 0x00	; 0
    6982:	0e 94 55 38 	call	0x70aa	; 0x70aa <__subdi3>
    6986:	39 01       	movw	r6, r18
    6988:	4a 01       	movw	r8, r20
    698a:	1b 01       	movw	r2, r22
    698c:	2c 01       	movw	r4, r24
    698e:	80 e0       	ldi	r24, 0x00	; 0
    6990:	92 e0       	ldi	r25, 0x02	; 2
    6992:	eb 85       	ldd	r30, Y+11	; 0x0b
    6994:	fc 85       	ldd	r31, Y+12	; 0x0c
    6996:	8e 1b       	sub	r24, r30
    6998:	9f 0b       	sbc	r25, r31
    699a:	98 8b       	std	Y+16, r25	; 0x10
    699c:	8f 87       	std	Y+15, r24	; 0x0f
    699e:	29 85       	ldd	r18, Y+9	; 0x09
    69a0:	3a 85       	ldd	r19, Y+10	; 0x0a
    69a2:	28 17       	cp	r18, r24
    69a4:	39 07       	cpc	r19, r25
    69a6:	10 f4       	brcc	.+4      	; 0x69ac <sd_raw_write+0xaa>
    69a8:	38 8b       	std	Y+16, r19	; 0x10
    69aa:	2f 87       	std	Y+15, r18	; 0x0f
    69ac:	a0 90 1f 02 	lds	r10, 0x021F
    69b0:	b0 90 20 02 	lds	r11, 0x0220
    69b4:	c0 90 21 02 	lds	r12, 0x0221
    69b8:	d0 90 22 02 	lds	r13, 0x0222
    69bc:	e0 90 23 02 	lds	r14, 0x0223
    69c0:	f0 90 24 02 	lds	r15, 0x0224
    69c4:	00 91 25 02 	lds	r16, 0x0225
    69c8:	10 91 26 02 	lds	r17, 0x0226
    69cc:	93 01       	movw	r18, r6
    69ce:	a4 01       	movw	r20, r8
    69d0:	b1 01       	movw	r22, r2
    69d2:	c2 01       	movw	r24, r4
    69d4:	0e 94 5e 38 	call	0x70bc	; 0x70bc <__cmpdi2>
    69d8:	41 f1       	breq	.+80     	; 0x6a2a <sd_raw_write+0x128>
    69da:	8b 85       	ldd	r24, Y+11	; 0x0b
    69dc:	9c 85       	ldd	r25, Y+12	; 0x0c
    69de:	89 2b       	or	r24, r25
    69e0:	b1 f4       	brne	.+44     	; 0x6a0e <sd_raw_write+0x10c>
    69e2:	ef 85       	ldd	r30, Y+15	; 0x0f
    69e4:	f8 89       	ldd	r31, Y+16	; 0x10
    69e6:	e1 15       	cp	r30, r1
    69e8:	f2 40       	sbci	r31, 0x02	; 2
    69ea:	89 f4       	brne	.+34     	; 0x6a0e <sd_raw_write+0x10c>
    69ec:	60 92 1f 02 	sts	0x021F, r6
    69f0:	70 92 20 02 	sts	0x0220, r7
    69f4:	80 92 21 02 	sts	0x0221, r8
    69f8:	90 92 22 02 	sts	0x0222, r9
    69fc:	20 92 23 02 	sts	0x0223, r2
    6a00:	30 92 24 02 	sts	0x0224, r3
    6a04:	40 92 25 02 	sts	0x0225, r4
    6a08:	50 92 26 02 	sts	0x0226, r5
    6a0c:	0e c0       	rjmp	.+28     	; 0x6a2a <sd_raw_write+0x128>
    6a0e:	e1 2c       	mov	r14, r1
    6a10:	82 e0       	ldi	r24, 0x02	; 2
    6a12:	f8 2e       	mov	r15, r24
    6a14:	07 e2       	ldi	r16, 0x27	; 39
    6a16:	12 e0       	ldi	r17, 0x02	; 2
    6a18:	93 01       	movw	r18, r6
    6a1a:	a4 01       	movw	r20, r8
    6a1c:	b1 01       	movw	r22, r2
    6a1e:	c2 01       	movw	r24, r4
    6a20:	0e 94 0a 32 	call	0x6414	; 0x6414 <sd_raw_read>
    6a24:	81 11       	cpse	r24, r1
    6a26:	e2 cf       	rjmp	.-60     	; 0x69ec <sd_raw_write+0xea>
    6a28:	6f c0       	rjmp	.+222    	; 0x6b08 <sd_raw_write+0x206>
    6a2a:	8d 85       	ldd	r24, Y+13	; 0x0d
    6a2c:	9e 85       	ldd	r25, Y+14	; 0x0e
    6a2e:	e2 e0       	ldi	r30, 0x02	; 2
    6a30:	87 32       	cpi	r24, 0x27	; 39
    6a32:	9e 07       	cpc	r25, r30
    6a34:	49 f0       	breq	.+18     	; 0x6a48 <sd_raw_write+0x146>
    6a36:	4f 85       	ldd	r20, Y+15	; 0x0f
    6a38:	58 89       	ldd	r21, Y+16	; 0x10
    6a3a:	bc 01       	movw	r22, r24
    6a3c:	8b 85       	ldd	r24, Y+11	; 0x0b
    6a3e:	9c 85       	ldd	r25, Y+12	; 0x0c
    6a40:	89 5d       	subi	r24, 0xD9	; 217
    6a42:	9d 4f       	sbci	r25, 0xFD	; 253
    6a44:	0e 94 de 38 	call	0x71bc	; 0x71bc <memcpy>
    6a48:	2a 98       	cbi	0x05, 2	; 5
    6a4a:	80 91 1e 02 	lds	r24, 0x021E
    6a4e:	82 ff       	sbrs	r24, 2
    6a50:	0b c0       	rjmp	.+22     	; 0x6a68 <sd_raw_write+0x166>
    6a52:	93 01       	movw	r18, r6
    6a54:	a4 01       	movw	r20, r8
    6a56:	b1 01       	movw	r22, r2
    6a58:	c2 01       	movw	r24, r4
    6a5a:	09 e0       	ldi	r16, 0x09	; 9
    6a5c:	0e 94 24 38 	call	0x7048	; 0x7048 <__lshrdi3>
    6a60:	ba 01       	movw	r22, r20
    6a62:	42 2f       	mov	r20, r18
    6a64:	53 2f       	mov	r21, r19
    6a66:	02 c0       	rjmp	.+4      	; 0x6a6c <sd_raw_write+0x16a>
    6a68:	a3 01       	movw	r20, r6
    6a6a:	b4 01       	movw	r22, r8
    6a6c:	88 e1       	ldi	r24, 0x18	; 24
    6a6e:	0e 94 cd 31 	call	0x639a	; 0x639a <sd_raw_send_command>
    6a72:	88 23       	and	r24, r24
    6a74:	19 f0       	breq	.+6      	; 0x6a7c <sd_raw_write+0x17a>
    6a76:	2a 9a       	sbi	0x05, 2	; 5
    6a78:	80 e0       	ldi	r24, 0x00	; 0
    6a7a:	46 c0       	rjmp	.+140    	; 0x6b08 <sd_raw_write+0x206>
    6a7c:	8e ef       	ldi	r24, 0xFE	; 254
    6a7e:	0e 94 bb 31 	call	0x6376	; 0x6376 <sd_raw_send_byte>
    6a82:	07 e2       	ldi	r16, 0x27	; 39
    6a84:	12 e0       	ldi	r17, 0x02	; 2
    6a86:	f8 01       	movw	r30, r16
    6a88:	81 91       	ld	r24, Z+
    6a8a:	8f 01       	movw	r16, r30
    6a8c:	0e 94 bb 31 	call	0x6376	; 0x6376 <sd_raw_send_byte>
    6a90:	f4 e0       	ldi	r31, 0x04	; 4
    6a92:	07 32       	cpi	r16, 0x27	; 39
    6a94:	1f 07       	cpc	r17, r31
    6a96:	b9 f7       	brne	.-18     	; 0x6a86 <sd_raw_write+0x184>
    6a98:	8f ef       	ldi	r24, 0xFF	; 255
    6a9a:	0e 94 bb 31 	call	0x6376	; 0x6376 <sd_raw_send_byte>
    6a9e:	8f ef       	ldi	r24, 0xFF	; 255
    6aa0:	0e 94 bb 31 	call	0x6376	; 0x6376 <sd_raw_send_byte>
    6aa4:	0e 94 c3 31 	call	0x6386	; 0x6386 <sd_raw_rec_byte>
    6aa8:	8f 3f       	cpi	r24, 0xFF	; 255
    6aaa:	e1 f7       	brne	.-8      	; 0x6aa4 <sd_raw_write+0x1a2>
    6aac:	0e 94 c3 31 	call	0x6386	; 0x6386 <sd_raw_rec_byte>
    6ab0:	2a 9a       	sbi	0x05, 2	; 5
    6ab2:	2d 85       	ldd	r18, Y+13	; 0x0d
    6ab4:	3e 85       	ldd	r19, Y+14	; 0x0e
    6ab6:	8f 85       	ldd	r24, Y+15	; 0x0f
    6ab8:	98 89       	ldd	r25, Y+16	; 0x10
    6aba:	28 0f       	add	r18, r24
    6abc:	39 1f       	adc	r19, r25
    6abe:	3e 87       	std	Y+14, r19	; 0x0e
    6ac0:	2d 87       	std	Y+13, r18	; 0x0d
    6ac2:	9c 01       	movw	r18, r24
    6ac4:	40 e0       	ldi	r20, 0x00	; 0
    6ac6:	50 e0       	ldi	r21, 0x00	; 0
    6ac8:	60 e0       	ldi	r22, 0x00	; 0
    6aca:	70 e0       	ldi	r23, 0x00	; 0
    6acc:	80 e0       	ldi	r24, 0x00	; 0
    6ace:	90 e0       	ldi	r25, 0x00	; 0
    6ad0:	a9 80       	ldd	r10, Y+1	; 0x01
    6ad2:	ba 80       	ldd	r11, Y+2	; 0x02
    6ad4:	cb 80       	ldd	r12, Y+3	; 0x03
    6ad6:	dc 80       	ldd	r13, Y+4	; 0x04
    6ad8:	ed 80       	ldd	r14, Y+5	; 0x05
    6ada:	fe 80       	ldd	r15, Y+6	; 0x06
    6adc:	0f 81       	ldd	r16, Y+7	; 0x07
    6ade:	18 85       	ldd	r17, Y+8	; 0x08
    6ae0:	0e 94 40 38 	call	0x7080	; 0x7080 <__adddi3>
    6ae4:	29 83       	std	Y+1, r18	; 0x01
    6ae6:	3a 83       	std	Y+2, r19	; 0x02
    6ae8:	4b 83       	std	Y+3, r20	; 0x03
    6aea:	5c 83       	std	Y+4, r21	; 0x04
    6aec:	6d 83       	std	Y+5, r22	; 0x05
    6aee:	7e 83       	std	Y+6, r23	; 0x06
    6af0:	8f 83       	std	Y+7, r24	; 0x07
    6af2:	98 87       	std	Y+8, r25	; 0x08
    6af4:	e9 85       	ldd	r30, Y+9	; 0x09
    6af6:	fa 85       	ldd	r31, Y+10	; 0x0a
    6af8:	2f 85       	ldd	r18, Y+15	; 0x0f
    6afa:	38 89       	ldd	r19, Y+16	; 0x10
    6afc:	e2 1b       	sub	r30, r18
    6afe:	f3 0b       	sbc	r31, r19
    6b00:	fa 87       	std	Y+10, r31	; 0x0a
    6b02:	e9 87       	std	Y+9, r30	; 0x09
    6b04:	24 cf       	rjmp	.-440    	; 0x694e <sd_raw_write+0x4c>
    6b06:	81 e0       	ldi	r24, 0x01	; 1
    6b08:	60 96       	adiw	r28, 0x10	; 16
    6b0a:	0f b6       	in	r0, 0x3f	; 63
    6b0c:	f8 94       	cli
    6b0e:	de bf       	out	0x3e, r29	; 62
    6b10:	0f be       	out	0x3f, r0	; 63
    6b12:	cd bf       	out	0x3d, r28	; 61
    6b14:	df 91       	pop	r29
    6b16:	cf 91       	pop	r28
    6b18:	1f 91       	pop	r17
    6b1a:	0f 91       	pop	r16
    6b1c:	ff 90       	pop	r15
    6b1e:	ef 90       	pop	r14
    6b20:	df 90       	pop	r13
    6b22:	cf 90       	pop	r12
    6b24:	bf 90       	pop	r11
    6b26:	af 90       	pop	r10
    6b28:	9f 90       	pop	r9
    6b2a:	8f 90       	pop	r8
    6b2c:	7f 90       	pop	r7
    6b2e:	6f 90       	pop	r6
    6b30:	5f 90       	pop	r5
    6b32:	4f 90       	pop	r4
    6b34:	3f 90       	pop	r3
    6b36:	2f 90       	pop	r2
    6b38:	08 95       	ret

00006b3a <sd_raw_write_interval>:
    6b3a:	2f 92       	push	r2
    6b3c:	3f 92       	push	r3
    6b3e:	4f 92       	push	r4
    6b40:	5f 92       	push	r5
    6b42:	6f 92       	push	r6
    6b44:	7f 92       	push	r7
    6b46:	8f 92       	push	r8
    6b48:	9f 92       	push	r9
    6b4a:	af 92       	push	r10
    6b4c:	bf 92       	push	r11
    6b4e:	cf 92       	push	r12
    6b50:	df 92       	push	r13
    6b52:	ef 92       	push	r14
    6b54:	ff 92       	push	r15
    6b56:	0f 93       	push	r16
    6b58:	1f 93       	push	r17
    6b5a:	cf 93       	push	r28
    6b5c:	df 93       	push	r29
    6b5e:	cd b7       	in	r28, 0x3d	; 61
    6b60:	de b7       	in	r29, 0x3e	; 62
    6b62:	2b 97       	sbiw	r28, 0x0b	; 11
    6b64:	0f b6       	in	r0, 0x3f	; 63
    6b66:	f8 94       	cli
    6b68:	de bf       	out	0x3e, r29	; 62
    6b6a:	0f be       	out	0x3f, r0	; 63
    6b6c:	cd bf       	out	0x3d, r28	; 61
    6b6e:	29 83       	std	Y+1, r18	; 0x01
    6b70:	3a 83       	std	Y+2, r19	; 0x02
    6b72:	94 2e       	mov	r9, r20
    6b74:	85 2e       	mov	r8, r21
    6b76:	56 2e       	mov	r5, r22
    6b78:	47 2e       	mov	r4, r23
    6b7a:	38 2e       	mov	r3, r24
    6b7c:	29 2e       	mov	r2, r25
    6b7e:	1d 83       	std	Y+5, r17	; 0x05
    6b80:	0c 83       	std	Y+4, r16	; 0x04
    6b82:	fb 86       	std	Y+11, r15	; 0x0b
    6b84:	ea 86       	std	Y+10, r14	; 0x0a
    6b86:	df 82       	std	Y+7, r13	; 0x07
    6b88:	ce 82       	std	Y+6, r12	; 0x06
    6b8a:	b9 86       	std	Y+9, r11	; 0x09
    6b8c:	a8 86       	std	Y+8, r10	; 0x08
    6b8e:	01 2b       	or	r16, r17
    6b90:	11 f4       	brne	.+4      	; 0x6b96 <sd_raw_write_interval+0x5c>
    6b92:	80 e0       	ldi	r24, 0x00	; 0
    6b94:	62 c0       	rjmp	.+196    	; 0x6c5a <sd_raw_write_interval+0x120>
    6b96:	8e 81       	ldd	r24, Y+6	; 0x06
    6b98:	9f 81       	ldd	r25, Y+7	; 0x07
    6b9a:	89 2b       	or	r24, r25
    6b9c:	d1 f3       	breq	.-12     	; 0x6b92 <sd_raw_write_interval+0x58>
    6b9e:	91 e0       	ldi	r25, 0x01	; 1
    6ba0:	9b 83       	std	Y+3, r25	; 0x03
    6ba2:	ea 85       	ldd	r30, Y+10	; 0x0a
    6ba4:	fb 85       	ldd	r31, Y+11	; 0x0b
    6ba6:	ef 2b       	or	r30, r31
    6ba8:	09 f4       	brne	.+2      	; 0x6bac <sd_raw_write_interval+0x72>
    6baa:	4a c0       	rjmp	.+148    	; 0x6c40 <sd_raw_write_interval+0x106>
    6bac:	1b 82       	std	Y+3, r1	; 0x03
    6bae:	48 c0       	rjmp	.+144    	; 0x6c40 <sd_raw_write_interval+0x106>
    6bb0:	8a 85       	ldd	r24, Y+10	; 0x0a
    6bb2:	9b 85       	ldd	r25, Y+11	; 0x0b
    6bb4:	89 2b       	or	r24, r25
    6bb6:	09 f4       	brne	.+2      	; 0x6bba <sd_raw_write_interval+0x80>
    6bb8:	48 c0       	rjmp	.+144    	; 0x6c4a <sd_raw_write_interval+0x110>
    6bba:	e8 84       	ldd	r14, Y+8	; 0x08
    6bbc:	f9 84       	ldd	r15, Y+9	; 0x09
    6bbe:	09 81       	ldd	r16, Y+1	; 0x01
    6bc0:	1a 81       	ldd	r17, Y+2	; 0x02
    6bc2:	29 2d       	mov	r18, r9
    6bc4:	38 2d       	mov	r19, r8
    6bc6:	45 2d       	mov	r20, r5
    6bc8:	54 2d       	mov	r21, r4
    6bca:	63 2d       	mov	r22, r3
    6bcc:	72 2d       	mov	r23, r2
    6bce:	8c 81       	ldd	r24, Y+4	; 0x04
    6bd0:	9d 81       	ldd	r25, Y+5	; 0x05
    6bd2:	ee 81       	ldd	r30, Y+6	; 0x06
    6bd4:	ff 81       	ldd	r31, Y+7	; 0x07
    6bd6:	09 95       	icall
    6bd8:	3c 01       	movw	r6, r24
    6bda:	89 2b       	or	r24, r25
    6bdc:	b1 f1       	breq	.+108    	; 0x6c4a <sd_raw_write_interval+0x110>
    6bde:	fb 81       	ldd	r31, Y+3	; 0x03
    6be0:	ff 23       	and	r31, r31
    6be2:	a9 f1       	breq	.+106    	; 0x6c4e <sd_raw_write_interval+0x114>
    6be4:	73 01       	movw	r14, r6
    6be6:	0c 81       	ldd	r16, Y+4	; 0x04
    6be8:	1d 81       	ldd	r17, Y+5	; 0x05
    6bea:	29 81       	ldd	r18, Y+1	; 0x01
    6bec:	3a 81       	ldd	r19, Y+2	; 0x02
    6bee:	49 2d       	mov	r20, r9
    6bf0:	58 2d       	mov	r21, r8
    6bf2:	65 2d       	mov	r22, r5
    6bf4:	74 2d       	mov	r23, r4
    6bf6:	83 2d       	mov	r24, r3
    6bf8:	92 2d       	mov	r25, r2
    6bfa:	0e 94 81 34 	call	0x6902	; 0x6902 <sd_raw_write>
    6bfe:	88 23       	and	r24, r24
    6c00:	41 f2       	breq	.-112    	; 0x6b92 <sd_raw_write_interval+0x58>
    6c02:	93 01       	movw	r18, r6
    6c04:	40 e0       	ldi	r20, 0x00	; 0
    6c06:	50 e0       	ldi	r21, 0x00	; 0
    6c08:	60 e0       	ldi	r22, 0x00	; 0
    6c0a:	70 e0       	ldi	r23, 0x00	; 0
    6c0c:	80 e0       	ldi	r24, 0x00	; 0
    6c0e:	90 e0       	ldi	r25, 0x00	; 0
    6c10:	a9 80       	ldd	r10, Y+1	; 0x01
    6c12:	ba 80       	ldd	r11, Y+2	; 0x02
    6c14:	c9 2c       	mov	r12, r9
    6c16:	d8 2c       	mov	r13, r8
    6c18:	e5 2c       	mov	r14, r5
    6c1a:	f4 2c       	mov	r15, r4
    6c1c:	03 2d       	mov	r16, r3
    6c1e:	12 2d       	mov	r17, r2
    6c20:	0e 94 40 38 	call	0x7080	; 0x7080 <__adddi3>
    6c24:	29 83       	std	Y+1, r18	; 0x01
    6c26:	3a 83       	std	Y+2, r19	; 0x02
    6c28:	94 2e       	mov	r9, r20
    6c2a:	85 2e       	mov	r8, r21
    6c2c:	56 2e       	mov	r5, r22
    6c2e:	47 2e       	mov	r4, r23
    6c30:	38 2e       	mov	r3, r24
    6c32:	29 2e       	mov	r2, r25
    6c34:	ea 85       	ldd	r30, Y+10	; 0x0a
    6c36:	fb 85       	ldd	r31, Y+11	; 0x0b
    6c38:	e6 19       	sub	r30, r6
    6c3a:	f7 09       	sbc	r31, r7
    6c3c:	fb 87       	std	Y+11, r31	; 0x0b
    6c3e:	ea 87       	std	Y+10, r30	; 0x0a
    6c40:	fb 81       	ldd	r31, Y+3	; 0x03
    6c42:	ff 23       	and	r31, r31
    6c44:	09 f4       	brne	.+2      	; 0x6c48 <sd_raw_write_interval+0x10e>
    6c46:	b4 cf       	rjmp	.-152    	; 0x6bb0 <sd_raw_write_interval+0x76>
    6c48:	b8 cf       	rjmp	.-144    	; 0x6bba <sd_raw_write_interval+0x80>
    6c4a:	81 e0       	ldi	r24, 0x01	; 1
    6c4c:	06 c0       	rjmp	.+12     	; 0x6c5a <sd_raw_write_interval+0x120>
    6c4e:	8a 85       	ldd	r24, Y+10	; 0x0a
    6c50:	9b 85       	ldd	r25, Y+11	; 0x0b
    6c52:	86 15       	cp	r24, r6
    6c54:	97 05       	cpc	r25, r7
    6c56:	30 f6       	brcc	.-116    	; 0x6be4 <sd_raw_write_interval+0xaa>
    6c58:	9c cf       	rjmp	.-200    	; 0x6b92 <sd_raw_write_interval+0x58>
    6c5a:	2b 96       	adiw	r28, 0x0b	; 11
    6c5c:	0f b6       	in	r0, 0x3f	; 63
    6c5e:	f8 94       	cli
    6c60:	de bf       	out	0x3e, r29	; 62
    6c62:	0f be       	out	0x3f, r0	; 63
    6c64:	cd bf       	out	0x3d, r28	; 61
    6c66:	df 91       	pop	r29
    6c68:	cf 91       	pop	r28
    6c6a:	1f 91       	pop	r17
    6c6c:	0f 91       	pop	r16
    6c6e:	ff 90       	pop	r15
    6c70:	ef 90       	pop	r14
    6c72:	df 90       	pop	r13
    6c74:	cf 90       	pop	r12
    6c76:	bf 90       	pop	r11
    6c78:	af 90       	pop	r10
    6c7a:	9f 90       	pop	r9
    6c7c:	8f 90       	pop	r8
    6c7e:	7f 90       	pop	r7
    6c80:	6f 90       	pop	r6
    6c82:	5f 90       	pop	r5
    6c84:	4f 90       	pop	r4
    6c86:	3f 90       	pop	r3
    6c88:	2f 90       	pop	r2
    6c8a:	08 95       	ret

00006c8c <delay_note>:
    6c8c:	20 e0       	ldi	r18, 0x00	; 0
    6c8e:	30 e0       	ldi	r19, 0x00	; 0
    6c90:	28 17       	cp	r18, r24
    6c92:	39 07       	cpc	r19, r25
    6c94:	49 f0       	breq	.+18     	; 0x6ca8 <delay_note+0x1c>
    6c96:	ef e9       	ldi	r30, 0x9F	; 159
    6c98:	ff e0       	ldi	r31, 0x0F	; 15
    6c9a:	31 97       	sbiw	r30, 0x01	; 1
    6c9c:	f1 f7       	brne	.-4      	; 0x6c9a <delay_note+0xe>
    6c9e:	00 c0       	rjmp	.+0      	; 0x6ca0 <delay_note+0x14>
    6ca0:	00 00       	nop
    6ca2:	2f 5f       	subi	r18, 0xFF	; 255
    6ca4:	3f 4f       	sbci	r19, 0xFF	; 255
    6ca6:	f4 cf       	rjmp	.-24     	; 0x6c90 <delay_note+0x4>
    6ca8:	08 95       	ret

00006caa <sound_init>:
    6caa:	10 92 80 00 	sts	0x0080, r1
    6cae:	89 e0       	ldi	r24, 0x09	; 9
    6cb0:	80 93 81 00 	sts	0x0081, r24
    6cb4:	21 9a       	sbi	0x04, 1	; 4
    6cb6:	29 98       	cbi	0x05, 1	; 5
    6cb8:	08 95       	ret

00006cba <sound_play>:
    6cba:	1f 93       	push	r17
    6cbc:	cf 93       	push	r28
    6cbe:	df 93       	push	r29
    6cc0:	ec 01       	movw	r28, r24
    6cc2:	10 e4       	ldi	r17, 0x40	; 64
    6cc4:	fe 01       	movw	r30, r28
    6cc6:	24 91       	lpm	r18, Z
    6cc8:	22 23       	and	r18, r18
    6cca:	21 f1       	breq	.+72     	; 0x6d14 <sound_play+0x5a>
    6ccc:	e2 2f       	mov	r30, r18
    6cce:	ef 71       	andi	r30, 0x1F	; 31
    6cd0:	22 95       	swap	r18
    6cd2:	26 95       	lsr	r18
    6cd4:	27 70       	andi	r18, 0x07	; 7
    6cd6:	ee 23       	and	r30, r30
    6cd8:	79 f0       	breq	.+30     	; 0x6cf8 <sound_play+0x3e>
    6cda:	f0 e0       	ldi	r31, 0x00	; 0
    6cdc:	ee 0f       	add	r30, r30
    6cde:	ff 1f       	adc	r31, r31
    6ce0:	af 01       	movw	r20, r30
    6ce2:	45 52       	subi	r20, 0x25	; 37
    6ce4:	55 4f       	sbci	r21, 0xF5	; 245
    6ce6:	fa 01       	movw	r30, r20
    6ce8:	85 91       	lpm	r24, Z+
    6cea:	94 91       	lpm	r25, Z
    6cec:	90 93 89 00 	sts	0x0089, r25
    6cf0:	80 93 88 00 	sts	0x0088, r24
    6cf4:	10 93 80 00 	sts	0x0080, r17
    6cf8:	30 e0       	ldi	r19, 0x00	; 0
    6cfa:	22 0f       	add	r18, r18
    6cfc:	33 1f       	adc	r19, r19
    6cfe:	25 53       	subi	r18, 0x35	; 53
    6d00:	35 4f       	sbci	r19, 0xF5	; 245
    6d02:	f9 01       	movw	r30, r18
    6d04:	85 91       	lpm	r24, Z+
    6d06:	94 91       	lpm	r25, Z
    6d08:	0e 94 46 36 	call	0x6c8c	; 0x6c8c <delay_note>
    6d0c:	10 92 80 00 	sts	0x0080, r1
    6d10:	21 96       	adiw	r28, 0x01	; 1
    6d12:	d8 cf       	rjmp	.-80     	; 0x6cc4 <sound_play+0xa>
    6d14:	df 91       	pop	r29
    6d16:	cf 91       	pop	r28
    6d18:	1f 91       	pop	r17
    6d1a:	08 95       	ret

00006d1c <__vector_18>:
    6d1c:	1f 92       	push	r1
    6d1e:	0f 92       	push	r0
    6d20:	0f b6       	in	r0, 0x3f	; 63
    6d22:	0f 92       	push	r0
    6d24:	11 24       	eor	r1, r1
    6d26:	8f 93       	push	r24
    6d28:	9f 93       	push	r25
    6d2a:	ef 93       	push	r30
    6d2c:	ff 93       	push	r31
    6d2e:	80 91 27 04 	lds	r24, 0x0427
    6d32:	90 91 c6 00 	lds	r25, 0x00C6
    6d36:	e8 2f       	mov	r30, r24
    6d38:	f0 e0       	ldi	r31, 0x00	; 0
    6d3a:	e3 5b       	subi	r30, 0xB3	; 179
    6d3c:	fa 4f       	sbci	r31, 0xFA	; 250
    6d3e:	90 83       	st	Z, r25
    6d40:	8f 5f       	subi	r24, 0xFF	; 255
    6d42:	80 34       	cpi	r24, 0x40	; 64
    6d44:	19 f0       	breq	.+6      	; 0x6d4c <__vector_18+0x30>
    6d46:	80 93 27 04 	sts	0x0427, r24
    6d4a:	02 c0       	rjmp	.+4      	; 0x6d50 <__vector_18+0x34>
    6d4c:	10 92 27 04 	sts	0x0427, r1
    6d50:	ff 91       	pop	r31
    6d52:	ef 91       	pop	r30
    6d54:	9f 91       	pop	r25
    6d56:	8f 91       	pop	r24
    6d58:	0f 90       	pop	r0
    6d5a:	0f be       	out	0x3f, r0	; 63
    6d5c:	0f 90       	pop	r0
    6d5e:	1f 90       	pop	r1
    6d60:	18 95       	reti

00006d62 <uart_init>:
    6d62:	51 9a       	sbi	0x0a, 1	; 10
    6d64:	50 98       	cbi	0x0a, 0	; 10
    6d66:	10 92 c5 00 	sts	0x00C5, r1
    6d6a:	80 e1       	ldi	r24, 0x10	; 16
    6d6c:	80 93 c4 00 	sts	0x00C4, r24
    6d70:	86 e0       	ldi	r24, 0x06	; 6
    6d72:	80 93 c2 00 	sts	0x00C2, r24
    6d76:	88 e9       	ldi	r24, 0x98	; 152
    6d78:	80 93 c1 00 	sts	0x00C1, r24
    6d7c:	78 94       	sei
    6d7e:	08 95       	ret

00006d80 <uart_putc>:
    6d80:	90 91 c0 00 	lds	r25, 0x00C0
    6d84:	95 ff       	sbrs	r25, 5
    6d86:	fc cf       	rjmp	.-8      	; 0x6d80 <uart_putc>
    6d88:	80 93 c6 00 	sts	0x00C6, r24
    6d8c:	08 95       	ret

00006d8e <uart_putc_hex>:
    6d8e:	cf 93       	push	r28
    6d90:	c8 2f       	mov	r28, r24
    6d92:	82 95       	swap	r24
    6d94:	8f 70       	andi	r24, 0x0F	; 15
    6d96:	8a 30       	cpi	r24, 0x0A	; 10
    6d98:	10 f4       	brcc	.+4      	; 0x6d9e <uart_putc_hex+0x10>
    6d9a:	80 5d       	subi	r24, 0xD0	; 208
    6d9c:	01 c0       	rjmp	.+2      	; 0x6da0 <uart_putc_hex+0x12>
    6d9e:	89 5c       	subi	r24, 0xC9	; 201
    6da0:	0e 94 c0 36 	call	0x6d80	; 0x6d80 <uart_putc>
    6da4:	8c 2f       	mov	r24, r28
    6da6:	8f 70       	andi	r24, 0x0F	; 15
    6da8:	8a 30       	cpi	r24, 0x0A	; 10
    6daa:	10 f4       	brcc	.+4      	; 0x6db0 <uart_putc_hex+0x22>
    6dac:	80 5d       	subi	r24, 0xD0	; 208
    6dae:	01 c0       	rjmp	.+2      	; 0x6db2 <uart_putc_hex+0x24>
    6db0:	89 5c       	subi	r24, 0xC9	; 201
    6db2:	cf 91       	pop	r28
    6db4:	0c 94 c0 36 	jmp	0x6d80	; 0x6d80 <uart_putc>

00006db8 <uart_puts>:
    6db8:	cf 93       	push	r28
    6dba:	df 93       	push	r29
    6dbc:	ec 01       	movw	r28, r24
    6dbe:	89 91       	ld	r24, Y+
    6dc0:	88 23       	and	r24, r24
    6dc2:	19 f0       	breq	.+6      	; 0x6dca <uart_puts+0x12>
    6dc4:	0e 94 c0 36 	call	0x6d80	; 0x6d80 <uart_putc>
    6dc8:	fa cf       	rjmp	.-12     	; 0x6dbe <uart_puts+0x6>
    6dca:	df 91       	pop	r29
    6dcc:	cf 91       	pop	r28
    6dce:	08 95       	ret

00006dd0 <uart_puts_p>:
    6dd0:	cf 93       	push	r28
    6dd2:	df 93       	push	r29
    6dd4:	fc 01       	movw	r30, r24
    6dd6:	84 91       	lpm	r24, Z
    6dd8:	ef 01       	movw	r28, r30
    6dda:	21 96       	adiw	r28, 0x01	; 1
    6ddc:	88 23       	and	r24, r24
    6dde:	21 f0       	breq	.+8      	; 0x6de8 <uart_puts_p+0x18>
    6de0:	0e 94 c0 36 	call	0x6d80	; 0x6d80 <uart_putc>
    6de4:	fe 01       	movw	r30, r28
    6de6:	f7 cf       	rjmp	.-18     	; 0x6dd6 <uart_puts_p+0x6>
    6de8:	df 91       	pop	r29
    6dea:	cf 91       	pop	r28
    6dec:	08 95       	ret

00006dee <uart_gets>:
    6dee:	ac 01       	movw	r20, r24
    6df0:	f8 94       	cli
    6df2:	20 91 28 04 	lds	r18, 0x0428
    6df6:	90 e0       	ldi	r25, 0x00	; 0
    6df8:	80 91 27 04 	lds	r24, 0x0427
    6dfc:	28 17       	cp	r18, r24
    6dfe:	91 f0       	breq	.+36     	; 0x6e24 <uart_gets+0x36>
    6e00:	20 34       	cpi	r18, 0x40	; 64
    6e02:	09 f4       	brne	.+2      	; 0x6e06 <uart_gets+0x18>
    6e04:	20 e0       	ldi	r18, 0x00	; 0
    6e06:	a2 2f       	mov	r26, r18
    6e08:	b0 e0       	ldi	r27, 0x00	; 0
    6e0a:	a3 5b       	subi	r26, 0xB3	; 179
    6e0c:	ba 4f       	sbci	r27, 0xFA	; 250
    6e0e:	8c 91       	ld	r24, X
    6e10:	fa 01       	movw	r30, r20
    6e12:	e9 0f       	add	r30, r25
    6e14:	f1 1d       	adc	r31, r1
    6e16:	80 83       	st	Z, r24
    6e18:	9f 5f       	subi	r25, 0xFF	; 255
    6e1a:	8c 91       	ld	r24, X
    6e1c:	8a 30       	cpi	r24, 0x0A	; 10
    6e1e:	11 f0       	breq	.+4      	; 0x6e24 <uart_gets+0x36>
    6e20:	2f 5f       	subi	r18, 0xFF	; 255
    6e22:	ea cf       	rjmp	.-44     	; 0x6df8 <uart_gets+0xa>
    6e24:	99 23       	and	r25, r25
    6e26:	41 f0       	breq	.+16     	; 0x6e38 <uart_gets+0x4a>
    6e28:	e9 2f       	mov	r30, r25
    6e2a:	f0 e0       	ldi	r31, 0x00	; 0
    6e2c:	31 97       	sbiw	r30, 0x01	; 1
    6e2e:	e4 0f       	add	r30, r20
    6e30:	f5 1f       	adc	r31, r21
    6e32:	80 81       	ld	r24, Z
    6e34:	8a 30       	cpi	r24, 0x0A	; 10
    6e36:	19 f0       	breq	.+6      	; 0x6e3e <uart_gets+0x50>
    6e38:	78 94       	sei
    6e3a:	81 e0       	ldi	r24, 0x01	; 1
    6e3c:	08 95       	ret
    6e3e:	10 82       	st	Z, r1
    6e40:	80 91 27 04 	lds	r24, 0x0427
    6e44:	80 93 28 04 	sts	0x0428, r24
    6e48:	78 94       	sei
    6e4a:	80 e0       	ldi	r24, 0x00	; 0
    6e4c:	08 95       	ret

00006e4e <__mulsi3>:
    6e4e:	db 01       	movw	r26, r22
    6e50:	8f 93       	push	r24
    6e52:	9f 93       	push	r25
    6e54:	0e 94 93 37 	call	0x6f26	; 0x6f26 <__muluhisi3>
    6e58:	bf 91       	pop	r27
    6e5a:	af 91       	pop	r26
    6e5c:	a2 9f       	mul	r26, r18
    6e5e:	80 0d       	add	r24, r0
    6e60:	91 1d       	adc	r25, r1
    6e62:	a3 9f       	mul	r26, r19
    6e64:	90 0d       	add	r25, r0
    6e66:	b2 9f       	mul	r27, r18
    6e68:	90 0d       	add	r25, r0
    6e6a:	11 24       	eor	r1, r1
    6e6c:	08 95       	ret

00006e6e <__udivmodqi4>:
    6e6e:	99 1b       	sub	r25, r25
    6e70:	79 e0       	ldi	r23, 0x09	; 9
    6e72:	04 c0       	rjmp	.+8      	; 0x6e7c <__udivmodqi4_ep>

00006e74 <__udivmodqi4_loop>:
    6e74:	99 1f       	adc	r25, r25
    6e76:	96 17       	cp	r25, r22
    6e78:	08 f0       	brcs	.+2      	; 0x6e7c <__udivmodqi4_ep>
    6e7a:	96 1b       	sub	r25, r22

00006e7c <__udivmodqi4_ep>:
    6e7c:	88 1f       	adc	r24, r24
    6e7e:	7a 95       	dec	r23
    6e80:	c9 f7       	brne	.-14     	; 0x6e74 <__udivmodqi4_loop>
    6e82:	80 95       	com	r24
    6e84:	08 95       	ret

00006e86 <__udivmodhi4>:
    6e86:	aa 1b       	sub	r26, r26
    6e88:	bb 1b       	sub	r27, r27
    6e8a:	51 e1       	ldi	r21, 0x11	; 17
    6e8c:	07 c0       	rjmp	.+14     	; 0x6e9c <__udivmodhi4_ep>

00006e8e <__udivmodhi4_loop>:
    6e8e:	aa 1f       	adc	r26, r26
    6e90:	bb 1f       	adc	r27, r27
    6e92:	a6 17       	cp	r26, r22
    6e94:	b7 07       	cpc	r27, r23
    6e96:	10 f0       	brcs	.+4      	; 0x6e9c <__udivmodhi4_ep>
    6e98:	a6 1b       	sub	r26, r22
    6e9a:	b7 0b       	sbc	r27, r23

00006e9c <__udivmodhi4_ep>:
    6e9c:	88 1f       	adc	r24, r24
    6e9e:	99 1f       	adc	r25, r25
    6ea0:	5a 95       	dec	r21
    6ea2:	a9 f7       	brne	.-22     	; 0x6e8e <__udivmodhi4_loop>
    6ea4:	80 95       	com	r24
    6ea6:	90 95       	com	r25
    6ea8:	bc 01       	movw	r22, r24
    6eaa:	cd 01       	movw	r24, r26
    6eac:	08 95       	ret

00006eae <__divmodhi4>:
    6eae:	97 fb       	bst	r25, 7
    6eb0:	07 2e       	mov	r0, r23
    6eb2:	16 f4       	brtc	.+4      	; 0x6eb8 <__divmodhi4+0xa>
    6eb4:	00 94       	com	r0
    6eb6:	07 d0       	rcall	.+14     	; 0x6ec6 <__divmodhi4_neg1>
    6eb8:	77 fd       	sbrc	r23, 7
    6eba:	09 d0       	rcall	.+18     	; 0x6ece <__divmodhi4_neg2>
    6ebc:	0e 94 43 37 	call	0x6e86	; 0x6e86 <__udivmodhi4>
    6ec0:	07 fc       	sbrc	r0, 7
    6ec2:	05 d0       	rcall	.+10     	; 0x6ece <__divmodhi4_neg2>
    6ec4:	3e f4       	brtc	.+14     	; 0x6ed4 <__divmodhi4_exit>

00006ec6 <__divmodhi4_neg1>:
    6ec6:	90 95       	com	r25
    6ec8:	81 95       	neg	r24
    6eca:	9f 4f       	sbci	r25, 0xFF	; 255
    6ecc:	08 95       	ret

00006ece <__divmodhi4_neg2>:
    6ece:	70 95       	com	r23
    6ed0:	61 95       	neg	r22
    6ed2:	7f 4f       	sbci	r23, 0xFF	; 255

00006ed4 <__divmodhi4_exit>:
    6ed4:	08 95       	ret

00006ed6 <__udivmodsi4>:
    6ed6:	a1 e2       	ldi	r26, 0x21	; 33
    6ed8:	1a 2e       	mov	r1, r26
    6eda:	aa 1b       	sub	r26, r26
    6edc:	bb 1b       	sub	r27, r27
    6ede:	fd 01       	movw	r30, r26
    6ee0:	0d c0       	rjmp	.+26     	; 0x6efc <__udivmodsi4_ep>

00006ee2 <__udivmodsi4_loop>:
    6ee2:	aa 1f       	adc	r26, r26
    6ee4:	bb 1f       	adc	r27, r27
    6ee6:	ee 1f       	adc	r30, r30
    6ee8:	ff 1f       	adc	r31, r31
    6eea:	a2 17       	cp	r26, r18
    6eec:	b3 07       	cpc	r27, r19
    6eee:	e4 07       	cpc	r30, r20
    6ef0:	f5 07       	cpc	r31, r21
    6ef2:	20 f0       	brcs	.+8      	; 0x6efc <__udivmodsi4_ep>
    6ef4:	a2 1b       	sub	r26, r18
    6ef6:	b3 0b       	sbc	r27, r19
    6ef8:	e4 0b       	sbc	r30, r20
    6efa:	f5 0b       	sbc	r31, r21

00006efc <__udivmodsi4_ep>:
    6efc:	66 1f       	adc	r22, r22
    6efe:	77 1f       	adc	r23, r23
    6f00:	88 1f       	adc	r24, r24
    6f02:	99 1f       	adc	r25, r25
    6f04:	1a 94       	dec	r1
    6f06:	69 f7       	brne	.-38     	; 0x6ee2 <__udivmodsi4_loop>
    6f08:	60 95       	com	r22
    6f0a:	70 95       	com	r23
    6f0c:	80 95       	com	r24
    6f0e:	90 95       	com	r25
    6f10:	9b 01       	movw	r18, r22
    6f12:	ac 01       	movw	r20, r24
    6f14:	bd 01       	movw	r22, r26
    6f16:	cf 01       	movw	r24, r30
    6f18:	08 95       	ret

00006f1a <__tablejump2__>:
    6f1a:	ee 0f       	add	r30, r30
    6f1c:	ff 1f       	adc	r31, r31
    6f1e:	05 90       	lpm	r0, Z+
    6f20:	f4 91       	lpm	r31, Z
    6f22:	e0 2d       	mov	r30, r0
    6f24:	09 94       	ijmp

00006f26 <__muluhisi3>:
    6f26:	0e 94 73 38 	call	0x70e6	; 0x70e6 <__umulhisi3>
    6f2a:	a5 9f       	mul	r26, r21
    6f2c:	90 0d       	add	r25, r0
    6f2e:	b4 9f       	mul	r27, r20
    6f30:	90 0d       	add	r25, r0
    6f32:	a4 9f       	mul	r26, r20
    6f34:	80 0d       	add	r24, r0
    6f36:	91 1d       	adc	r25, r1
    6f38:	11 24       	eor	r1, r1
    6f3a:	08 95       	ret

00006f3c <__muldi3>:
    6f3c:	df 93       	push	r29
    6f3e:	cf 93       	push	r28
    6f40:	1f 93       	push	r17
    6f42:	0f 93       	push	r16
    6f44:	9a 9d       	mul	r25, r10
    6f46:	f0 2d       	mov	r31, r0
    6f48:	21 9f       	mul	r18, r17
    6f4a:	f0 0d       	add	r31, r0
    6f4c:	8b 9d       	mul	r24, r11
    6f4e:	f0 0d       	add	r31, r0
    6f50:	8a 9d       	mul	r24, r10
    6f52:	e0 2d       	mov	r30, r0
    6f54:	f1 0d       	add	r31, r1
    6f56:	03 9f       	mul	r16, r19
    6f58:	f0 0d       	add	r31, r0
    6f5a:	02 9f       	mul	r16, r18
    6f5c:	e0 0d       	add	r30, r0
    6f5e:	f1 1d       	adc	r31, r1
    6f60:	4e 9d       	mul	r20, r14
    6f62:	e0 0d       	add	r30, r0
    6f64:	f1 1d       	adc	r31, r1
    6f66:	5e 9d       	mul	r21, r14
    6f68:	f0 0d       	add	r31, r0
    6f6a:	4f 9d       	mul	r20, r15
    6f6c:	f0 0d       	add	r31, r0
    6f6e:	7f 93       	push	r23
    6f70:	6f 93       	push	r22
    6f72:	bf 92       	push	r11
    6f74:	af 92       	push	r10
    6f76:	5f 93       	push	r21
    6f78:	4f 93       	push	r20
    6f7a:	d5 01       	movw	r26, r10
    6f7c:	0e 94 73 38 	call	0x70e6	; 0x70e6 <__umulhisi3>
    6f80:	8b 01       	movw	r16, r22
    6f82:	ac 01       	movw	r20, r24
    6f84:	d7 01       	movw	r26, r14
    6f86:	0e 94 73 38 	call	0x70e6	; 0x70e6 <__umulhisi3>
    6f8a:	eb 01       	movw	r28, r22
    6f8c:	e8 0f       	add	r30, r24
    6f8e:	f9 1f       	adc	r31, r25
    6f90:	d6 01       	movw	r26, r12
    6f92:	0e 94 ee 37 	call	0x6fdc	; 0x6fdc <__muldi3_6>
    6f96:	2f 91       	pop	r18
    6f98:	3f 91       	pop	r19
    6f9a:	d6 01       	movw	r26, r12
    6f9c:	0e 94 73 38 	call	0x70e6	; 0x70e6 <__umulhisi3>
    6fa0:	c6 0f       	add	r28, r22
    6fa2:	d7 1f       	adc	r29, r23
    6fa4:	e8 1f       	adc	r30, r24
    6fa6:	f9 1f       	adc	r31, r25
    6fa8:	af 91       	pop	r26
    6faa:	bf 91       	pop	r27
    6fac:	0e 94 ee 37 	call	0x6fdc	; 0x6fdc <__muldi3_6>
    6fb0:	2f 91       	pop	r18
    6fb2:	3f 91       	pop	r19
    6fb4:	0e 94 73 38 	call	0x70e6	; 0x70e6 <__umulhisi3>
    6fb8:	c6 0f       	add	r28, r22
    6fba:	d7 1f       	adc	r29, r23
    6fbc:	e8 1f       	adc	r30, r24
    6fbe:	f9 1f       	adc	r31, r25
    6fc0:	d6 01       	movw	r26, r12
    6fc2:	0e 94 73 38 	call	0x70e6	; 0x70e6 <__umulhisi3>
    6fc6:	e6 0f       	add	r30, r22
    6fc8:	f7 1f       	adc	r31, r23
    6fca:	98 01       	movw	r18, r16
    6fcc:	be 01       	movw	r22, r28
    6fce:	cf 01       	movw	r24, r30
    6fd0:	11 24       	eor	r1, r1
    6fd2:	0f 91       	pop	r16
    6fd4:	1f 91       	pop	r17
    6fd6:	cf 91       	pop	r28
    6fd8:	df 91       	pop	r29
    6fda:	08 95       	ret

00006fdc <__muldi3_6>:
    6fdc:	0e 94 73 38 	call	0x70e6	; 0x70e6 <__umulhisi3>
    6fe0:	46 0f       	add	r20, r22
    6fe2:	57 1f       	adc	r21, r23
    6fe4:	c8 1f       	adc	r28, r24
    6fe6:	d9 1f       	adc	r29, r25
    6fe8:	08 f4       	brcc	.+2      	; 0x6fec <__muldi3_6+0x10>
    6fea:	31 96       	adiw	r30, 0x01	; 1
    6fec:	08 95       	ret

00006fee <__umulsidi3>:
    6fee:	e8 94       	clt

00006ff0 <__umulsidi3_helper>:
    6ff0:	df 93       	push	r29
    6ff2:	cf 93       	push	r28
    6ff4:	fc 01       	movw	r30, r24
    6ff6:	db 01       	movw	r26, r22
    6ff8:	0e 94 73 38 	call	0x70e6	; 0x70e6 <__umulhisi3>
    6ffc:	7f 93       	push	r23
    6ffe:	6f 93       	push	r22
    7000:	e9 01       	movw	r28, r18
    7002:	9a 01       	movw	r18, r20
    7004:	ac 01       	movw	r20, r24
    7006:	bf 93       	push	r27
    7008:	af 93       	push	r26
    700a:	3f 93       	push	r19
    700c:	2f 93       	push	r18
    700e:	df 01       	movw	r26, r30
    7010:	0e 94 73 38 	call	0x70e6	; 0x70e6 <__umulhisi3>
    7014:	26 f4       	brtc	.+8      	; 0x701e <__umulsidi3_helper+0x2e>
    7016:	6c 1b       	sub	r22, r28
    7018:	7d 0b       	sbc	r23, r29
    701a:	82 0b       	sbc	r24, r18
    701c:	93 0b       	sbc	r25, r19
    701e:	9e 01       	movw	r18, r28
    7020:	eb 01       	movw	r28, r22
    7022:	fc 01       	movw	r30, r24
    7024:	0e 94 ee 37 	call	0x6fdc	; 0x6fdc <__muldi3_6>
    7028:	af 91       	pop	r26
    702a:	bf 91       	pop	r27
    702c:	2f 91       	pop	r18
    702e:	3f 91       	pop	r19
    7030:	0e 94 ee 37 	call	0x6fdc	; 0x6fdc <__muldi3_6>
    7034:	be 01       	movw	r22, r28
    7036:	cf 01       	movw	r24, r30
    7038:	f9 01       	movw	r30, r18
    703a:	2f 91       	pop	r18
    703c:	3f 91       	pop	r19
    703e:	cf 91       	pop	r28
    7040:	df 91       	pop	r29
    7042:	08 95       	ret

00007044 <__ashrdi3>:
    7044:	97 fb       	bst	r25, 7
    7046:	10 f8       	bld	r1, 0

00007048 <__lshrdi3>:
    7048:	16 94       	lsr	r1
    704a:	00 08       	sbc	r0, r0
    704c:	0f 93       	push	r16
    704e:	08 30       	cpi	r16, 0x08	; 8
    7050:	98 f0       	brcs	.+38     	; 0x7078 <__lshrdi3+0x30>
    7052:	08 50       	subi	r16, 0x08	; 8
    7054:	23 2f       	mov	r18, r19
    7056:	34 2f       	mov	r19, r20
    7058:	45 2f       	mov	r20, r21
    705a:	56 2f       	mov	r21, r22
    705c:	67 2f       	mov	r22, r23
    705e:	78 2f       	mov	r23, r24
    7060:	89 2f       	mov	r24, r25
    7062:	90 2d       	mov	r25, r0
    7064:	f4 cf       	rjmp	.-24     	; 0x704e <__lshrdi3+0x6>
    7066:	05 94       	asr	r0
    7068:	97 95       	ror	r25
    706a:	87 95       	ror	r24
    706c:	77 95       	ror	r23
    706e:	67 95       	ror	r22
    7070:	57 95       	ror	r21
    7072:	47 95       	ror	r20
    7074:	37 95       	ror	r19
    7076:	27 95       	ror	r18
    7078:	0a 95       	dec	r16
    707a:	aa f7       	brpl	.-22     	; 0x7066 <__lshrdi3+0x1e>
    707c:	0f 91       	pop	r16
    707e:	08 95       	ret

00007080 <__adddi3>:
    7080:	2a 0d       	add	r18, r10
    7082:	3b 1d       	adc	r19, r11
    7084:	4c 1d       	adc	r20, r12
    7086:	5d 1d       	adc	r21, r13
    7088:	6e 1d       	adc	r22, r14
    708a:	7f 1d       	adc	r23, r15
    708c:	80 1f       	adc	r24, r16
    708e:	91 1f       	adc	r25, r17
    7090:	08 95       	ret

00007092 <__adddi3_s8>:
    7092:	00 24       	eor	r0, r0
    7094:	a7 fd       	sbrc	r26, 7
    7096:	00 94       	com	r0
    7098:	2a 0f       	add	r18, r26
    709a:	30 1d       	adc	r19, r0
    709c:	40 1d       	adc	r20, r0
    709e:	50 1d       	adc	r21, r0
    70a0:	60 1d       	adc	r22, r0
    70a2:	70 1d       	adc	r23, r0
    70a4:	80 1d       	adc	r24, r0
    70a6:	90 1d       	adc	r25, r0
    70a8:	08 95       	ret

000070aa <__subdi3>:
    70aa:	2a 19       	sub	r18, r10
    70ac:	3b 09       	sbc	r19, r11
    70ae:	4c 09       	sbc	r20, r12
    70b0:	5d 09       	sbc	r21, r13
    70b2:	6e 09       	sbc	r22, r14
    70b4:	7f 09       	sbc	r23, r15
    70b6:	80 0b       	sbc	r24, r16
    70b8:	91 0b       	sbc	r25, r17
    70ba:	08 95       	ret

000070bc <__cmpdi2>:
    70bc:	2a 15       	cp	r18, r10
    70be:	3b 05       	cpc	r19, r11
    70c0:	4c 05       	cpc	r20, r12
    70c2:	5d 05       	cpc	r21, r13
    70c4:	6e 05       	cpc	r22, r14
    70c6:	7f 05       	cpc	r23, r15
    70c8:	80 07       	cpc	r24, r16
    70ca:	91 07       	cpc	r25, r17
    70cc:	08 95       	ret

000070ce <__cmpdi2_s8>:
    70ce:	00 24       	eor	r0, r0
    70d0:	a7 fd       	sbrc	r26, 7
    70d2:	00 94       	com	r0
    70d4:	2a 17       	cp	r18, r26
    70d6:	30 05       	cpc	r19, r0
    70d8:	40 05       	cpc	r20, r0
    70da:	50 05       	cpc	r21, r0
    70dc:	60 05       	cpc	r22, r0
    70de:	70 05       	cpc	r23, r0
    70e0:	80 05       	cpc	r24, r0
    70e2:	90 05       	cpc	r25, r0
    70e4:	08 95       	ret

000070e6 <__umulhisi3>:
    70e6:	a2 9f       	mul	r26, r18
    70e8:	b0 01       	movw	r22, r0
    70ea:	b3 9f       	mul	r27, r19
    70ec:	c0 01       	movw	r24, r0
    70ee:	a3 9f       	mul	r26, r19
    70f0:	70 0d       	add	r23, r0
    70f2:	81 1d       	adc	r24, r1
    70f4:	11 24       	eor	r1, r1
    70f6:	91 1d       	adc	r25, r1
    70f8:	b2 9f       	mul	r27, r18
    70fa:	70 0d       	add	r23, r0
    70fc:	81 1d       	adc	r24, r1
    70fe:	11 24       	eor	r1, r1
    7100:	91 1d       	adc	r25, r1
    7102:	08 95       	ret

00007104 <do_rand>:
    7104:	8f 92       	push	r8
    7106:	9f 92       	push	r9
    7108:	af 92       	push	r10
    710a:	bf 92       	push	r11
    710c:	cf 92       	push	r12
    710e:	df 92       	push	r13
    7110:	ef 92       	push	r14
    7112:	ff 92       	push	r15
    7114:	cf 93       	push	r28
    7116:	df 93       	push	r29
    7118:	ec 01       	movw	r28, r24
    711a:	68 81       	ld	r22, Y
    711c:	79 81       	ldd	r23, Y+1	; 0x01
    711e:	8a 81       	ldd	r24, Y+2	; 0x02
    7120:	9b 81       	ldd	r25, Y+3	; 0x03
    7122:	61 15       	cp	r22, r1
    7124:	71 05       	cpc	r23, r1
    7126:	81 05       	cpc	r24, r1
    7128:	91 05       	cpc	r25, r1
    712a:	21 f4       	brne	.+8      	; 0x7134 <do_rand+0x30>
    712c:	64 e2       	ldi	r22, 0x24	; 36
    712e:	79 ed       	ldi	r23, 0xD9	; 217
    7130:	8b e5       	ldi	r24, 0x5B	; 91
    7132:	97 e0       	ldi	r25, 0x07	; 7
    7134:	2d e1       	ldi	r18, 0x1D	; 29
    7136:	33 ef       	ldi	r19, 0xF3	; 243
    7138:	41 e0       	ldi	r20, 0x01	; 1
    713a:	50 e0       	ldi	r21, 0x00	; 0
    713c:	0e 94 2a 39 	call	0x7254	; 0x7254 <__divmodsi4>
    7140:	49 01       	movw	r8, r18
    7142:	5a 01       	movw	r10, r20
    7144:	9b 01       	movw	r18, r22
    7146:	ac 01       	movw	r20, r24
    7148:	a7 ea       	ldi	r26, 0xA7	; 167
    714a:	b1 e4       	ldi	r27, 0x41	; 65
    714c:	0e 94 93 37 	call	0x6f26	; 0x6f26 <__muluhisi3>
    7150:	6b 01       	movw	r12, r22
    7152:	7c 01       	movw	r14, r24
    7154:	ac ee       	ldi	r26, 0xEC	; 236
    7156:	b4 ef       	ldi	r27, 0xF4	; 244
    7158:	a5 01       	movw	r20, r10
    715a:	94 01       	movw	r18, r8
    715c:	0e 94 4c 39 	call	0x7298	; 0x7298 <__mulohisi3>
    7160:	dc 01       	movw	r26, r24
    7162:	cb 01       	movw	r24, r22
    7164:	8c 0d       	add	r24, r12
    7166:	9d 1d       	adc	r25, r13
    7168:	ae 1d       	adc	r26, r14
    716a:	bf 1d       	adc	r27, r15
    716c:	b7 ff       	sbrs	r27, 7
    716e:	03 c0       	rjmp	.+6      	; 0x7176 <do_rand+0x72>
    7170:	01 97       	sbiw	r24, 0x01	; 1
    7172:	a1 09       	sbc	r26, r1
    7174:	b0 48       	sbci	r27, 0x80	; 128
    7176:	88 83       	st	Y, r24
    7178:	99 83       	std	Y+1, r25	; 0x01
    717a:	aa 83       	std	Y+2, r26	; 0x02
    717c:	bb 83       	std	Y+3, r27	; 0x03
    717e:	9f 77       	andi	r25, 0x7F	; 127
    7180:	df 91       	pop	r29
    7182:	cf 91       	pop	r28
    7184:	ff 90       	pop	r15
    7186:	ef 90       	pop	r14
    7188:	df 90       	pop	r13
    718a:	cf 90       	pop	r12
    718c:	bf 90       	pop	r11
    718e:	af 90       	pop	r10
    7190:	9f 90       	pop	r9
    7192:	8f 90       	pop	r8
    7194:	08 95       	ret

00007196 <rand_r>:
    7196:	0e 94 82 38 	call	0x7104	; 0x7104 <do_rand>
    719a:	08 95       	ret

0000719c <rand>:
    719c:	80 e0       	ldi	r24, 0x00	; 0
    719e:	91 e0       	ldi	r25, 0x01	; 1
    71a0:	0e 94 82 38 	call	0x7104	; 0x7104 <do_rand>
    71a4:	08 95       	ret

000071a6 <srand>:
    71a6:	a0 e0       	ldi	r26, 0x00	; 0
    71a8:	b0 e0       	ldi	r27, 0x00	; 0
    71aa:	80 93 00 01 	sts	0x0100, r24
    71ae:	90 93 01 01 	sts	0x0101, r25
    71b2:	a0 93 02 01 	sts	0x0102, r26
    71b6:	b0 93 03 01 	sts	0x0103, r27
    71ba:	08 95       	ret

000071bc <memcpy>:
    71bc:	fb 01       	movw	r30, r22
    71be:	dc 01       	movw	r26, r24
    71c0:	02 c0       	rjmp	.+4      	; 0x71c6 <memcpy+0xa>
    71c2:	01 90       	ld	r0, Z+
    71c4:	0d 92       	st	X+, r0
    71c6:	41 50       	subi	r20, 0x01	; 1
    71c8:	50 40       	sbci	r21, 0x00	; 0
    71ca:	d8 f7       	brcc	.-10     	; 0x71c2 <memcpy+0x6>
    71cc:	08 95       	ret

000071ce <memset>:
    71ce:	dc 01       	movw	r26, r24
    71d0:	01 c0       	rjmp	.+2      	; 0x71d4 <memset+0x6>
    71d2:	6d 93       	st	X+, r22
    71d4:	41 50       	subi	r20, 0x01	; 1
    71d6:	50 40       	sbci	r21, 0x00	; 0
    71d8:	e0 f7       	brcc	.-8      	; 0x71d2 <memset+0x4>
    71da:	08 95       	ret

000071dc <strchr>:
    71dc:	fc 01       	movw	r30, r24
    71de:	81 91       	ld	r24, Z+
    71e0:	86 17       	cp	r24, r22
    71e2:	21 f0       	breq	.+8      	; 0x71ec <strchr+0x10>
    71e4:	88 23       	and	r24, r24
    71e6:	d9 f7       	brne	.-10     	; 0x71de <strchr+0x2>
    71e8:	99 27       	eor	r25, r25
    71ea:	08 95       	ret
    71ec:	31 97       	sbiw	r30, 0x01	; 1
    71ee:	cf 01       	movw	r24, r30
    71f0:	08 95       	ret

000071f2 <strcmp>:
    71f2:	fb 01       	movw	r30, r22
    71f4:	dc 01       	movw	r26, r24
    71f6:	8d 91       	ld	r24, X+
    71f8:	01 90       	ld	r0, Z+
    71fa:	80 19       	sub	r24, r0
    71fc:	01 10       	cpse	r0, r1
    71fe:	d9 f3       	breq	.-10     	; 0x71f6 <strcmp+0x4>
    7200:	99 0b       	sbc	r25, r25
    7202:	08 95       	ret

00007204 <strncmp>:
    7204:	fb 01       	movw	r30, r22
    7206:	dc 01       	movw	r26, r24
    7208:	41 50       	subi	r20, 0x01	; 1
    720a:	50 40       	sbci	r21, 0x00	; 0
    720c:	30 f0       	brcs	.+12     	; 0x721a <strncmp+0x16>
    720e:	8d 91       	ld	r24, X+
    7210:	01 90       	ld	r0, Z+
    7212:	80 19       	sub	r24, r0
    7214:	19 f4       	brne	.+6      	; 0x721c <strncmp+0x18>
    7216:	00 20       	and	r0, r0
    7218:	b9 f7       	brne	.-18     	; 0x7208 <strncmp+0x4>
    721a:	88 1b       	sub	r24, r24
    721c:	99 0b       	sbc	r25, r25
    721e:	08 95       	ret

00007220 <strncpy>:
    7220:	fb 01       	movw	r30, r22
    7222:	dc 01       	movw	r26, r24
    7224:	41 50       	subi	r20, 0x01	; 1
    7226:	50 40       	sbci	r21, 0x00	; 0
    7228:	48 f0       	brcs	.+18     	; 0x723c <strncpy+0x1c>
    722a:	01 90       	ld	r0, Z+
    722c:	0d 92       	st	X+, r0
    722e:	00 20       	and	r0, r0
    7230:	c9 f7       	brne	.-14     	; 0x7224 <strncpy+0x4>
    7232:	01 c0       	rjmp	.+2      	; 0x7236 <strncpy+0x16>
    7234:	1d 92       	st	X+, r1
    7236:	41 50       	subi	r20, 0x01	; 1
    7238:	50 40       	sbci	r21, 0x00	; 0
    723a:	e0 f7       	brcc	.-8      	; 0x7234 <strncpy+0x14>
    723c:	08 95       	ret

0000723e <strrchr>:
    723e:	fc 01       	movw	r30, r24
    7240:	81 e0       	ldi	r24, 0x01	; 1
    7242:	90 e0       	ldi	r25, 0x00	; 0
    7244:	01 90       	ld	r0, Z+
    7246:	06 16       	cp	r0, r22
    7248:	09 f4       	brne	.+2      	; 0x724c <strrchr+0xe>
    724a:	cf 01       	movw	r24, r30
    724c:	00 20       	and	r0, r0
    724e:	d1 f7       	brne	.-12     	; 0x7244 <strrchr+0x6>
    7250:	01 97       	sbiw	r24, 0x01	; 1
    7252:	08 95       	ret

00007254 <__divmodsi4>:
    7254:	05 2e       	mov	r0, r21
    7256:	97 fb       	bst	r25, 7
    7258:	1e f4       	brtc	.+6      	; 0x7260 <__divmodsi4+0xc>
    725a:	00 94       	com	r0
    725c:	0e 94 41 39 	call	0x7282	; 0x7282 <__negsi2>
    7260:	57 fd       	sbrc	r21, 7
    7262:	07 d0       	rcall	.+14     	; 0x7272 <__divmodsi4_neg2>
    7264:	0e 94 6b 37 	call	0x6ed6	; 0x6ed6 <__udivmodsi4>
    7268:	07 fc       	sbrc	r0, 7
    726a:	03 d0       	rcall	.+6      	; 0x7272 <__divmodsi4_neg2>
    726c:	4e f4       	brtc	.+18     	; 0x7280 <__divmodsi4_exit>
    726e:	0c 94 41 39 	jmp	0x7282	; 0x7282 <__negsi2>

00007272 <__divmodsi4_neg2>:
    7272:	50 95       	com	r21
    7274:	40 95       	com	r20
    7276:	30 95       	com	r19
    7278:	21 95       	neg	r18
    727a:	3f 4f       	sbci	r19, 0xFF	; 255
    727c:	4f 4f       	sbci	r20, 0xFF	; 255
    727e:	5f 4f       	sbci	r21, 0xFF	; 255

00007280 <__divmodsi4_exit>:
    7280:	08 95       	ret

00007282 <__negsi2>:
    7282:	90 95       	com	r25
    7284:	80 95       	com	r24
    7286:	70 95       	com	r23
    7288:	61 95       	neg	r22
    728a:	7f 4f       	sbci	r23, 0xFF	; 255
    728c:	8f 4f       	sbci	r24, 0xFF	; 255
    728e:	9f 4f       	sbci	r25, 0xFF	; 255
    7290:	08 95       	ret

00007292 <__mulshisi3>:
    7292:	b7 ff       	sbrs	r27, 7
    7294:	0c 94 93 37 	jmp	0x6f26	; 0x6f26 <__muluhisi3>

00007298 <__mulohisi3>:
    7298:	0e 94 93 37 	call	0x6f26	; 0x6f26 <__muluhisi3>
    729c:	82 1b       	sub	r24, r18
    729e:	93 0b       	sbc	r25, r19
    72a0:	08 95       	ret

000072a2 <_exit>:
    72a2:	f8 94       	cli

000072a4 <__stop_program>:
    72a4:	ff cf       	rjmp	.-2      	; 0x72a4 <__stop_program>
